TN:
SF:/usr/include/c++/11/ext/alloc_traits.h
FN:97,_ZN9__gnu_cxx14__alloc_traitsISaIcEcE17_S_select_on_copyERKS1_
FNDA:0,_ZN9__gnu_cxx14__alloc_traitsISaIcEcE17_S_select_on_copyERKS1_
DA:97,0
DA:98,0
end_of_record
SF:/usr/include/x86_64-linux-gnu/c++/11/bits/gthr-default.h
FN:300,_ZL18__gthread_active_pv
FNDA:66263095,_ZL18__gthread_active_pv
FN:746,_ZL20__gthread_mutex_lockP15pthread_mutex_t
FNDA:33131548,_ZL20__gthread_mutex_lockP15pthread_mutex_t
FN:776,_ZL22__gthread_mutex_unlockP15pthread_mutex_t
FNDA:33131550,_ZL22__gthread_mutex_unlockP15pthread_mutex_t
DA:300,66263095
DA:302,66263095
DA:746,33131548
DA:748,33131548
DA:749,33131549
DA:751,0
DA:776,33131550
DA:778,33131550
DA:779,33131550
DA:781,0
end_of_record
SF:/usr/include/c++/11/bits/cpp_type_traits.h
FN:560,_ZSt12__miter_baseIN9__gnu_cxx17__normal_iteratorIPKcSt6vectorIcSaIcEEEEET_S8_
FNDA:0,_ZSt12__miter_baseIN9__gnu_cxx17__normal_iteratorIPKcSt6vectorIcSaIcEEEEET_S8_
FN:560,_ZSt12__miter_baseIPP12loggerRecordET_S3_
FNDA:0,_ZSt12__miter_baseIPP12loggerRecordET_S3_
DA:560,0
DA:561,0
DA:560,0
DA:561,0
end_of_record
SF:/usr/include/c++/11/new
FN:174,_ZnwmPv
FNDA:0,_ZnwmPv
FN:180,_ZdlPvS_
FNDA:0,_ZdlPvS_
DA:174,0
DA:175,0
DA:180,0
end_of_record
SF:/usr/include/c++/11/type_traits
FN:3418,_ZSt21is_constant_evaluatedv
FNDA:0,_ZSt21is_constant_evaluatedv
DA:3418,0
DA:3419,0
end_of_record
SF:/usr/include/c++/11/bits/stl_construct.h
FN:80,_ZSt10destroy_atIcEvPT_
FNDA:0,_ZSt10destroy_atIcEvPT_
FN:80,_ZSt10destroy_atI12loggerRecordEvPT_
FNDA:0,_ZSt10destroy_atI12loggerRecordEvPT_
FN:94,_ZSt12construct_atI12loggerRecordJRKS0_EEDTgsnwcvPvLi0E_T_pispcl7declvalIT0_EEEEPS4_DpOS5_
FNDA:11,_ZSt12construct_atI12loggerRecordJRKS0_EEDTgsnwcvPvLi0E_T_pispcl7declvalIT0_EEEEPS4_DpOS5_
FN:146,_ZSt8_DestroyI12loggerRecordEvPT_
FNDA:0,_ZSt8_DestroyI12loggerRecordEvPT_
FN:146,_ZSt8_DestroyIcEvPT_
FNDA:0,_ZSt8_DestroyIcEvPT_
FN:160,_ZNSt12_Destroy_auxILb0EE9__destroyIP12loggerRecordEEvT_S4_
FNDA:0,_ZNSt12_Destroy_auxILb0EE9__destroyIP12loggerRecordEEvT_S4_
FN:160,_ZNSt12_Destroy_auxILb0EE9__destroyIPcEEvT_S3_
FNDA:0,_ZNSt12_Destroy_auxILb0EE9__destroyIPcEEvT_S3_
FN:172,_ZNSt12_Destroy_auxILb1EE9__destroyIPcEEvT_S3_
FNDA:0,_ZNSt12_Destroy_auxILb1EE9__destroyIPcEEvT_S3_
FN:182,_ZSt8_DestroyIP12loggerRecordEvT_S2_
FNDA:0,_ZSt8_DestroyIP12loggerRecordEvT_S2_
FN:182,_ZSt8_DestroyIPcEvT_S1_
FNDA:0,_ZSt8_DestroyIPcEvT_S1_
DA:80,0
DA:88,0
DA:89,0
DA:80,0
DA:88,0
DA:89,0
DA:94,11
DA:97,11
DA:146,0
DA:149,0
DA:153,0
DA:146,0
DA:149,0
DA:153,0
DA:160,0
DA:162,0
DA:163,0
DA:164,0
DA:160,0
DA:162,0
DA:163,0
DA:164,0
DA:172,0
DA:182,0
DA:192,0
DA:193,0
DA:196,0
DA:182,0
DA:192,0
DA:193,0
DA:196,0
end_of_record
SF:/usr/include/c++/11/bits/stl_vector.h
FN:97,_ZNSt12_Vector_baseIcSaIcEE17_Vector_impl_dataC2Ev
FNDA:0,_ZNSt12_Vector_baseIcSaIcEE17_Vector_impl_dataC2Ev
FN:136,_ZNSt12_Vector_baseIcSaIcEE12_Vector_implC2ERKS0_
FNDA:0,_ZNSt12_Vector_baseIcSaIcEE12_Vector_implC2ERKS0_
FN:276,_ZNSt12_Vector_baseIcSaIcEE19_M_get_Tp_allocatorEv
FNDA:0,_ZNSt12_Vector_baseIcSaIcEE19_M_get_Tp_allocatorEv
FN:280,_ZNKSt12_Vector_baseIcSaIcEE19_M_get_Tp_allocatorEv
FNDA:0,_ZNKSt12_Vector_baseIcSaIcEE19_M_get_Tp_allocatorEv
FN:303,_ZNSt12_Vector_baseIcSaIcEEC2EmRKS0_
FNDA:0,_ZNSt12_Vector_baseIcSaIcEEC2EmRKS0_
FN:333,_ZNSt12_Vector_baseIcSaIcEED2Ev
FNDA:0,_ZNSt12_Vector_baseIcSaIcEED2Ev
FN:343,_ZNSt12_Vector_baseIcSaIcEE11_M_allocateEm
FNDA:0,_ZNSt12_Vector_baseIcSaIcEE11_M_allocateEm
FN:350,_ZNSt12_Vector_baseIcSaIcEE13_M_deallocateEPcm
FNDA:0,_ZNSt12_Vector_baseIcSaIcEE13_M_deallocateEPcm
FN:359,_ZNSt12_Vector_baseIcSaIcEE17_M_create_storageEm
FNDA:0,_ZNSt12_Vector_baseIcSaIcEE17_M_create_storageEm
FN:553,_ZNSt6vectorIcSaIcEEC2ERKS1_
FNDA:0,_ZNSt6vectorIcSaIcEEC2ERKS1_
FN:678,_ZNSt6vectorIcSaIcEED2Ev
FNDA:0,_ZNSt6vectorIcSaIcEED2Ev
FN:820,_ZNKSt6vectorIcSaIcEE5beginEv
FNDA:0,_ZNKSt6vectorIcSaIcEE5beginEv
FN:838,_ZNKSt6vectorIcSaIcEE3endEv
FNDA:0,_ZNKSt6vectorIcSaIcEE3endEv
FN:918,_ZNKSt6vectorIcSaIcEE4sizeEv
FNDA:0,_ZNKSt6vectorIcSaIcEE4sizeEv
DA:97,0
DA:98,0
DA:99,0
DA:136,0
DA:137,0
DA:138,0
DA:276,0
DA:277,0
DA:280,0
DA:281,0
DA:303,0
DA:304,0
DA:305,0
DA:333,0
DA:335,0
DA:336,0
DA:337,0
DA:343,0
DA:346,0
DA:350,0
DA:353,0
DA:354,0
DA:355,0
DA:359,0
DA:361,0
DA:362,0
DA:363,0
DA:364,0
DA:553,0
DA:555,0
DA:557,0
DA:558,0
DA:560,0
DA:561,0
DA:678,0
DA:680,0
DA:681,0
DA:683,0
DA:820,0
DA:821,0
DA:838,0
DA:839,0
DA:918,0
DA:919,0
end_of_record
SF:/usr/include/c++/11/bits/deque.tcc
FN:484,_ZNSt5dequeI12loggerRecordSaIS0_EE16_M_push_back_auxIJRKS0_EEEvDpOT_
FNDA:0,_ZNSt5dequeI12loggerRecordSaIS0_EE16_M_push_back_auxIJRKS0_EEEvDpOT_
FN:576,_ZNSt5dequeI12loggerRecordSaIS0_EE16_M_pop_front_auxEv
FNDA:0,_ZNSt5dequeI12loggerRecordSaIS0_EE16_M_pop_front_auxEv
FN:859,_ZNSt5dequeI12loggerRecordSaIS0_EE19_M_destroy_data_auxESt15_Deque_iteratorIS0_RS0_PS0_ES6_
FNDA:0,_ZNSt5dequeI12loggerRecordSaIS0_EE19_M_destroy_data_auxESt15_Deque_iteratorIS0_RS0_PS0_ES6_
FN:931,_ZNSt5dequeI12loggerRecordSaIS0_EE17_M_reallocate_mapEmb
FNDA:0,_ZNSt5dequeI12loggerRecordSaIS0_EE17_M_reallocate_mapEmb
DA:484,0
DA:492,0
DA:493,0
DA:496,0
DA:497,0
DA:501,0
DA:507,0
DA:509,0
DA:511,0
DA:513,0
DA:514,0
DA:516,0
DA:576,0
DA:579,0
DA:581,0
DA:582,0
DA:583,0
DA:584,0
DA:859,0
DA:862,0
DA:863,0
DA:864,0
DA:865,0
DA:867,0
DA:869,0
DA:870,0
DA:871,0
DA:872,0
DA:875,0
DA:876,0
DA:877,0
DA:931,0
DA:934,0
DA:935,0
DA:936,0
DA:939,0
DA:941,0
DA:942,0
DA:943,0
DA:944,0
DA:945,0
DA:946,0
DA:949,0
DA:950,0
DA:951,0
DA:955,0
DA:956,0
DA:959,0
DA:960,0
DA:961,0
DA:962,0
DA:963,0
DA:965,0
DA:967,0
DA:968,0
DA:971,0
DA:972,0
DA:973,0
end_of_record
SF:/home/yackey/projects/waitables/logger/include/loggerRecord.h
FN:21,_ZN12loggerRecordD0Ev
FNDA:0,_ZN12loggerRecordD0Ev
FN:21,_ZN12loggerRecordD2Ev
FNDA:0,_ZN12loggerRecordD2Ev
DA:21,0
DA:21,0
end_of_record
SF:/usr/include/c++/11/bits/allocator.h
FN:169,_ZNSaIP12loggerRecordEC2IS_EERKSaIT_E
FNDA:0,_ZNSaIP12loggerRecordEC2IS_EERKSaIT_E
FN:174,_ZNSaIP12loggerRecordED2Ev
FNDA:0,_ZNSaIP12loggerRecordED2Ev
DA:169,0
DA:174,0
DA:182,0
DA:183,0
DA:185,0
DA:193,0
DA:195,0
DA:196,0
DA:199,0
end_of_record
SF:/usr/include/c++/11/bits/unique_lock.h
FN:66,_ZNSt11unique_lockISt5mutexEC2ERS0_
FNDA:11,_ZNSt11unique_lockISt5mutexEC2ERS0_
FN:101,_ZNSt11unique_lockISt5mutexED2Ev
FNDA:11,_ZNSt11unique_lockISt5mutexED2Ev
FN:131,_ZNSt11unique_lockISt5mutexE4lockEv
FNDA:11,_ZNSt11unique_lockISt5mutexE4lockEv
FN:189,_ZNSt11unique_lockISt5mutexE6unlockEv
FNDA:11,_ZNSt11unique_lockISt5mutexE6unlockEv
DA:66,11
DA:67,11
DA:69,11
DA:70,11
DA:71,11
DA:101,11
DA:103,11
DA:104,11
DA:105,11
DA:131,11
DA:133,11
DA:134,0
DA:135,11
DA:136,0
DA:139,11
DA:140,11
DA:142,11
DA:189,11
DA:191,11
DA:192,0
DA:193,11
DA:195,11
DA:196,11
DA:198,11
end_of_record
SF:/usr/include/c++/11/bits/stl_iterator.h
FN:1010,_ZN9__gnu_cxx17__normal_iteratorIPKcSt6vectorIcSaIcEEEC2ERKS2_
FNDA:0,_ZN9__gnu_cxx17__normal_iteratorIPKcSt6vectorIcSaIcEEEC2ERKS2_
FN:1088,_ZNK9__gnu_cxx17__normal_iteratorIPKcSt6vectorIcSaIcEEE4baseEv
FNDA:0,_ZNK9__gnu_cxx17__normal_iteratorIPKcSt6vectorIcSaIcEEE4baseEv
FN:1257,_ZSt12__niter_baseIPKcSt6vectorIcSaIcEEET_N9__gnu_cxx17__normal_iteratorIS5_T0_EE
FNDA:0,_ZSt12__niter_baseIPKcSt6vectorIcSaIcEEET_N9__gnu_cxx17__normal_iteratorIS5_T0_EE
DA:1010,0
DA:1011,0
DA:1088,0
DA:1089,0
DA:1257,0
DA:1259,0
end_of_record
SF:/usr/include/c++/11/bits/stl_deque.h
FN:96,_ZSt16__deque_buf_sizem
FNDA:0,_ZSt16__deque_buf_sizem
FN:131,_ZNSt15_Deque_iteratorI12loggerRecordRS0_PS0_E14_S_buffer_sizeEv
FNDA:0,_ZNSt15_Deque_iteratorI12loggerRecordRS0_PS0_E14_S_buffer_sizeEv
FN:168,_ZNSt15_Deque_iteratorI12loggerRecordRS0_PS0_EC2ERKS3_
FNDA:0,_ZNSt15_Deque_iteratorI12loggerRecordRS0_PS0_EC2ERKS3_
FN:180,_ZNKSt15_Deque_iteratorI12loggerRecordRS0_PS0_EdeEv
FNDA:11,_ZNKSt15_Deque_iteratorI12loggerRecordRS0_PS0_EdeEv
FN:260,_ZNSt15_Deque_iteratorI12loggerRecordRS0_PS0_E11_M_set_nodeEPS2_
FNDA:0,_ZNSt15_Deque_iteratorI12loggerRecordRS0_PS0_E11_M_set_nodeEPS2_
FN:268,_ZSteqRKSt15_Deque_iteratorI12loggerRecordRS0_PS0_ES5_
FNDA:33131532,_ZSteqRKSt15_Deque_iteratorI12loggerRecordRS0_PS0_ES5_
FN:353,_ZStmiRKSt15_Deque_iteratorI12loggerRecordRS0_PS0_ES5_
FNDA:4,_ZStmiRKSt15_Deque_iteratorI12loggerRecordRS0_PS0_ES5_
FN:546,_ZNSt11_Deque_baseI12loggerRecordSaIS0_EE19_M_get_Tp_allocatorEv
FNDA:0,_ZNSt11_Deque_baseI12loggerRecordSaIS0_EE19_M_get_Tp_allocatorEv
FN:550,_ZNKSt11_Deque_baseI12loggerRecordSaIS0_EE19_M_get_Tp_allocatorEv
FNDA:0,_ZNKSt11_Deque_baseI12loggerRecordSaIS0_EE19_M_get_Tp_allocatorEv
FN:554,_ZNKSt11_Deque_baseI12loggerRecordSaIS0_EE20_M_get_map_allocatorEv
FNDA:0,_ZNKSt11_Deque_baseI12loggerRecordSaIS0_EE20_M_get_map_allocatorEv
FN:558,_ZNSt11_Deque_baseI12loggerRecordSaIS0_EE16_M_allocate_nodeEv
FNDA:0,_ZNSt11_Deque_baseI12loggerRecordSaIS0_EE16_M_allocate_nodeEv
FN:565,_ZNSt11_Deque_baseI12loggerRecordSaIS0_EE18_M_deallocate_nodeEPS0_
FNDA:0,_ZNSt11_Deque_baseI12loggerRecordSaIS0_EE18_M_deallocate_nodeEPS0_
FN:572,_ZNSt11_Deque_baseI12loggerRecordSaIS0_EE15_M_allocate_mapEm
FNDA:0,_ZNSt11_Deque_baseI12loggerRecordSaIS0_EE15_M_allocate_mapEm
FN:579,_ZNSt11_Deque_baseI12loggerRecordSaIS0_EE17_M_deallocate_mapEPPS0_m
FNDA:0,_ZNSt11_Deque_baseI12loggerRecordSaIS0_EE17_M_deallocate_mapEPPS0_m
FN:673,_ZNSt11_Deque_baseI12loggerRecordSaIS0_EE16_M_destroy_nodesEPPS0_S4_
FNDA:0,_ZNSt11_Deque_baseI12loggerRecordSaIS0_EE16_M_destroy_nodesEPPS0_S4_
FN:806,_ZNSt5dequeI12loggerRecordSaIS0_EE14_S_buffer_sizeEv
FNDA:0,_ZNSt5dequeI12loggerRecordSaIS0_EE14_S_buffer_sizeEv
FN:1127,_ZNSt5dequeI12loggerRecordSaIS0_EE5beginEv
FNDA:0,_ZNSt5dequeI12loggerRecordSaIS0_EE5beginEv
FN:1144,_ZNSt5dequeI12loggerRecordSaIS0_EE3endEv
FNDA:0,_ZNSt5dequeI12loggerRecordSaIS0_EE3endEv
FN:1232,_ZNKSt5dequeI12loggerRecordSaIS0_EE4sizeEv
FNDA:4,_ZNKSt5dequeI12loggerRecordSaIS0_EE4sizeEv
FN:1237,_ZNKSt5dequeI12loggerRecordSaIS0_EE8max_sizeEv
FNDA:0,_ZNKSt5dequeI12loggerRecordSaIS0_EE8max_sizeEv
FN:1310,_ZNKSt5dequeI12loggerRecordSaIS0_EE5emptyEv
FNDA:33131532,_ZNKSt5dequeI12loggerRecordSaIS0_EE5emptyEv
FN:1404,_ZNSt5dequeI12loggerRecordSaIS0_EE5frontEv
FNDA:11,_ZNSt5dequeI12loggerRecordSaIS0_EE5frontEv
FN:1495,_ZNSt5dequeI12loggerRecordSaIS0_EE9push_backERKS0_
FNDA:11,_ZNSt5dequeI12loggerRecordSaIS0_EE9push_backERKS0_
FN:1531,_ZNSt5dequeI12loggerRecordSaIS0_EE9pop_frontEv
FNDA:11,_ZNSt5dequeI12loggerRecordSaIS0_EE9pop_frontEv
FN:1792,_ZNSt5dequeI12loggerRecordSaIS0_EE5clearEv
FNDA:3,_ZNSt5dequeI12loggerRecordSaIS0_EE5clearEv
FN:1833,_ZNSt5dequeI12loggerRecordSaIS0_EE11_S_max_sizeERKS1_
FNDA:0,_ZNSt5dequeI12loggerRecordSaIS0_EE11_S_max_sizeERKS1_
FN:2044,_ZNSt5dequeI12loggerRecordSaIS0_EE15_M_destroy_dataESt15_Deque_iteratorIS0_RS0_PS0_ES6_RKS1_
FNDA:0,_ZNSt5dequeI12loggerRecordSaIS0_EE15_M_destroy_dataESt15_Deque_iteratorIS0_RS0_PS0_ES6_RKS1_
FN:2063,_ZNSt5dequeI12loggerRecordSaIS0_EE15_M_erase_at_endESt15_Deque_iteratorIS0_RS0_PS0_E
FNDA:3,_ZNSt5dequeI12loggerRecordSaIS0_EE15_M_erase_at_endESt15_Deque_iteratorIS0_RS0_PS0_E
FN:2125,_ZNSt5dequeI12loggerRecordSaIS0_EE22_M_reserve_map_at_backEm
FNDA:0,_ZNSt5dequeI12loggerRecordSaIS0_EE22_M_reserve_map_at_backEm
DA:96,0
DA:98,0
DA:131,0
DA:132,0
DA:168,0
DA:169,0
DA:170,0
DA:180,11
DA:181,11
DA:260,0
DA:262,0
DA:263,0
DA:264,0
DA:265,0
DA:268,33131532
DA:269,33131532
DA:353,4
DA:355,4
DA:356,4
DA:357,4
DA:358,4
DA:546,0
DA:547,0
DA:550,0
DA:551,0
DA:554,0
DA:555,0
DA:558,0
DA:561,0
DA:565,0
DA:568,0
DA:569,0
DA:572,0
DA:574,0
DA:575,0
DA:576,0
DA:579,0
DA:581,0
DA:582,0
DA:583,0
DA:673,0
DA:677,0
DA:678,0
DA:679,0
DA:806,0
DA:807,0
DA:1127,0
DA:1128,0
DA:1144,0
DA:1145,0
DA:1232,4
DA:1233,4
DA:1237,0
DA:1238,0
DA:1310,33131532
DA:1311,33131532
DA:1404,11
DA:1407,11
DA:1495,11
DA:1497,11
DA:1498,11
DA:1500,11
DA:1502,11
DA:1505,0
DA:1506,11
DA:1531,11
DA:1534,11
DA:1535,11
DA:1537,11
DA:1539,11
DA:1542,0
DA:1543,11
DA:1792,3
DA:1793,3
DA:1833,0
DA:1835,0
DA:1836,0
DA:1837,0
DA:2044,0
DA:2048,0
DA:2049,0
DA:2063,3
DA:2065,3
DA:2066,3
DA:2067,3
DA:2068,3
DA:2069,3
DA:2125,0
DA:2127,0
DA:2128,0
DA:2129,0
DA:2130,0
end_of_record
SF:/usr/include/c++/11/bits/stl_algobase.h
FN:230,_ZSt3minImERKT_S2_S2_
FNDA:0,_ZSt3minImERKT_S2_S2_
FN:254,_ZSt3maxImERKT_S2_S2_
FNDA:0,_ZSt3maxImERKT_S2_S2_
FN:313,_ZSt12__niter_baseIPcET_S1_
FNDA:0,_ZSt12__niter_baseIPcET_S1_
FN:313,_ZSt12__niter_baseIPP12loggerRecordET_S3_
FNDA:0,_ZSt12__niter_baseIPP12loggerRecordET_S3_
FN:335,_ZSt12__niter_wrapIPcET_RKS1_S1_
FNDA:0,_ZSt12__niter_wrapIPcET_RKS1_S1_
FN:335,_ZSt12__niter_wrapIPP12loggerRecordET_RKS3_S3_
FNDA:0,_ZSt12__niter_wrapIPP12loggerRecordET_RKS3_S3_
FN:380,_ZNSt11__copy_moveILb0ELb0ESt26random_access_iterator_tagE8__copy_mIPP12loggerRecordS5_EET0_T_S7_S6_
FNDA:0,_ZNSt11__copy_moveILb0ELb0ESt26random_access_iterator_tagE8__copy_mIPP12loggerRecordS5_EET0_T_S7_S6_
FN:380,_ZNSt11__copy_moveILb0ELb0ESt26random_access_iterator_tagE8__copy_mIPKcPcEET0_T_S7_S6_
FNDA:0,_ZNSt11__copy_moveILb0ELb0ESt26random_access_iterator_tagE8__copy_mIPKcPcEET0_T_S7_S6_
FN:420,_ZNSt11__copy_moveILb0ELb1ESt26random_access_iterator_tagE8__copy_mIP12loggerRecordEEPT_PKS5_S8_S6_
FNDA:0,_ZNSt11__copy_moveILb0ELb1ESt26random_access_iterator_tagE8__copy_mIP12loggerRecordEEPT_PKS5_S8_S6_
FN:420,_ZNSt11__copy_moveILb0ELb1ESt26random_access_iterator_tagE8__copy_mIcEEPT_PKS3_S6_S4_
FNDA:0,_ZNSt11__copy_moveILb0ELb1ESt26random_access_iterator_tagE8__copy_mIcEEPT_PKS3_S6_S4_
FN:486,_ZSt14__copy_move_a2ILb0EPP12loggerRecordS2_ET1_T0_S4_S3_
FNDA:0,_ZSt14__copy_move_a2ILb0EPP12loggerRecordS2_ET1_T0_S4_S3_
FN:486,_ZSt14__copy_move_a2ILb0EPKcPcET1_T0_S4_S3_
FNDA:0,_ZSt14__copy_move_a2ILb0EPKcPcET1_T0_S4_S3_
FN:521,_ZSt14__copy_move_a1ILb0EPKcPcET1_T0_S4_S3_
FNDA:0,_ZSt14__copy_move_a1ILb0EPKcPcET1_T0_S4_S3_
FN:521,_ZSt14__copy_move_a1ILb0EPP12loggerRecordS2_ET1_T0_S4_S3_
FNDA:0,_ZSt14__copy_move_a1ILb0EPP12loggerRecordS2_ET1_T0_S4_S3_
FN:527,_ZSt13__copy_move_aILb0EN9__gnu_cxx17__normal_iteratorIPKcSt6vectorIcSaIcEEEEPcET1_T0_SA_S9_
FNDA:0,_ZSt13__copy_move_aILb0EN9__gnu_cxx17__normal_iteratorIPKcSt6vectorIcSaIcEEEEPcET1_T0_SA_S9_
FN:527,_ZSt13__copy_move_aILb0EPP12loggerRecordS2_ET1_T0_S4_S3_
FNDA:0,_ZSt13__copy_move_aILb0EPP12loggerRecordS2_ET1_T0_S4_S3_
FN:611,_ZSt4copyIN9__gnu_cxx17__normal_iteratorIPKcSt6vectorIcSaIcEEEEPcET0_T_SA_S9_
FNDA:0,_ZSt4copyIN9__gnu_cxx17__normal_iteratorIPKcSt6vectorIcSaIcEEEEPcET0_T_SA_S9_
FN:611,_ZSt4copyIPP12loggerRecordS2_ET0_T_S4_S3_
FNDA:0,_ZSt4copyIPP12loggerRecordS2_ET0_T_S4_S3_
FN:697,_ZNSt20__copy_move_backwardILb0ELb0ESt26random_access_iterator_tagE13__copy_move_bIPP12loggerRecordS5_EET0_T_S7_S6_
FNDA:0,_ZNSt20__copy_move_backwardILb0ELb0ESt26random_access_iterator_tagE13__copy_move_bIPP12loggerRecordS5_EET0_T_S7_S6_
FN:731,_ZNSt20__copy_move_backwardILb0ELb1ESt26random_access_iterator_tagE13__copy_move_bIP12loggerRecordEEPT_PKS5_S8_S6_
FNDA:0,_ZNSt20__copy_move_backwardILb0ELb1ESt26random_access_iterator_tagE13__copy_move_bIP12loggerRecordEEPT_PKS5_S8_S6_
FN:750,_ZSt23__copy_move_backward_a2ILb0EPP12loggerRecordS2_ET1_T0_S4_S3_
FNDA:0,_ZSt23__copy_move_backward_a2ILb0EPP12loggerRecordS2_ET1_T0_S4_S3_
FN:768,_ZSt23__copy_move_backward_a1ILb0EPP12loggerRecordS2_ET1_T0_S4_S3_
FNDA:0,_ZSt23__copy_move_backward_a1ILb0EPP12loggerRecordS2_ET1_T0_S4_S3_
FN:796,_ZSt22__copy_move_backward_aILb0EPP12loggerRecordS2_ET1_T0_S4_S3_
FNDA:0,_ZSt22__copy_move_backward_aILb0EPP12loggerRecordS2_ET1_T0_S4_S3_
FN:848,_ZSt13copy_backwardIPP12loggerRecordS2_ET0_T_S4_S3_
FNDA:0,_ZSt13copy_backwardIPP12loggerRecordS2_ET0_T_S4_S3_
DA:230,0
DA:235,0
DA:236,0
DA:237,0
DA:254,0
DA:259,0
DA:260,0
DA:261,0
DA:313,0
DA:315,0
DA:313,0
DA:315,0
DA:335,0
DA:336,0
DA:335,0
DA:336,0
DA:380,0
DA:383,0
DA:385,0
DA:386,0
DA:387,0
DA:389,0
DA:380,0
DA:383,0
DA:385,0
DA:386,0
DA:387,0
DA:389,0
DA:420,0
DA:429,0
DA:430,0
DA:431,0
DA:432,0
DA:420,0
DA:429,0
DA:430,0
DA:431,0
DA:432,0
DA:486,0
DA:490,0
DA:492,0
DA:495,0
DA:486,0
DA:490,0
DA:492,0
DA:495,0
DA:521,0
DA:522,0
DA:521,0
DA:522,0
DA:527,0
DA:529,0
DA:532,0
DA:527,0
DA:529,0
DA:532,0
DA:611,0
DA:620,0
DA:611,0
DA:620,0
DA:697,0
DA:700,0
DA:701,0
DA:702,0
DA:703,0
DA:731,0
DA:740,0
DA:741,0
DA:742,0
DA:743,0
DA:750,0
DA:754,0
DA:756,0
DA:760,0
DA:762,0
DA:768,0
DA:769,0
DA:796,0
DA:798,0
DA:801,0
DA:848,0
DA:859,0
end_of_record
SF:/usr/include/c++/11/condition_variable
FN:100,_ZNSt18condition_variable4waitIZN11loggerQueue3popEvEUlvE_EEvRSt11unique_lockISt5mutexET_
FNDA:11,_ZNSt18condition_variable4waitIZN11loggerQueue3popEvEUlvE_EEvRSt11unique_lockISt5mutexET_
DA:100,11
DA:102,11
DA:103,0
DA:104,11
end_of_record
SF:/usr/include/c++/11/bits/std_mutex.h
FN:98,_ZNSt5mutex4lockEv
FNDA:33131548,_ZNSt5mutex4lockEv
FN:115,_ZNSt5mutex6unlockEv
FNDA:33131550,_ZNSt5mutex6unlockEv
FN:228,_ZNSt10lock_guardISt5mutexEC2ERS0_
FNDA:33131537,_ZNSt10lock_guardISt5mutexEC2ERS0_
FN:234,_ZNSt10lock_guardISt5mutexED2Ev
FNDA:33131539,_ZNSt10lock_guardISt5mutexED2Ev
DA:98,33131548
DA:100,33131548
DA:103,33131550
DA:104,0
DA:105,33131550
DA:115,33131550
DA:118,33131550
DA:119,33131550
DA:228,33131537
DA:229,33131537
DA:234,33131539
DA:235,33131539
end_of_record
SF:/usr/include/c++/11/ext/new_allocator.h
FN:79,_ZN9__gnu_cxx13new_allocatorIP12loggerRecordEC2Ev
FNDA:0,_ZN9__gnu_cxx13new_allocatorIP12loggerRecordEC2Ev
FN:82,_ZN9__gnu_cxx13new_allocatorIcEC2ERKS1_
FNDA:0,_ZN9__gnu_cxx13new_allocatorIcEC2ERKS1_
FN:103,_ZN9__gnu_cxx13new_allocatorIP12loggerRecordE8allocateEmPKv
FNDA:0,_ZN9__gnu_cxx13new_allocatorIP12loggerRecordE8allocateEmPKv
FN:103,_ZN9__gnu_cxx13new_allocatorI12loggerRecordE8allocateEmPKv
FNDA:0,_ZN9__gnu_cxx13new_allocatorI12loggerRecordE8allocateEmPKv
FN:103,_ZN9__gnu_cxx13new_allocatorIcE8allocateEmPKv
FNDA:0,_ZN9__gnu_cxx13new_allocatorIcE8allocateEmPKv
FN:132,_ZN9__gnu_cxx13new_allocatorIP12loggerRecordE10deallocateEPS2_m
FNDA:0,_ZN9__gnu_cxx13new_allocatorIP12loggerRecordE10deallocateEPS2_m
FN:132,_ZN9__gnu_cxx13new_allocatorI12loggerRecordE10deallocateEPS1_m
FNDA:0,_ZN9__gnu_cxx13new_allocatorI12loggerRecordE10deallocateEPS1_m
FN:132,_ZN9__gnu_cxx13new_allocatorIcE10deallocateEPcm
FNDA:0,_ZN9__gnu_cxx13new_allocatorIcE10deallocateEPcm
FN:197,_ZNK9__gnu_cxx13new_allocatorIP12loggerRecordE11_M_max_sizeEv
FNDA:0,_ZNK9__gnu_cxx13new_allocatorIP12loggerRecordE11_M_max_sizeEv
FN:197,_ZNK9__gnu_cxx13new_allocatorI12loggerRecordE11_M_max_sizeEv
FNDA:0,_ZNK9__gnu_cxx13new_allocatorI12loggerRecordE11_M_max_sizeEv
FN:197,_ZNK9__gnu_cxx13new_allocatorIcE11_M_max_sizeEv
FNDA:0,_ZNK9__gnu_cxx13new_allocatorIcE11_M_max_sizeEv
DA:79,0
DA:82,0
DA:103,0
DA:111,0
DA:115,0
DA:116,0
DA:117,0
DA:127,0
DA:103,0
DA:111,0
DA:115,0
DA:116,0
DA:117,0
DA:127,0
DA:103,0
DA:111,0
DA:117,0
DA:127,0
DA:132,0
DA:145,0
DA:132,0
DA:145,0
DA:132,0
DA:145,0
DA:197,0
DA:200,0
DA:197,0
DA:200,0
DA:197,0
DA:200,0
end_of_record
SF:/usr/include/c++/11/bits/stl_uninitialized.h
FN:108,_ZNSt20__uninitialized_copyILb1EE13__uninit_copyIN9__gnu_cxx17__normal_iteratorIPKcSt6vectorIcSaIcEEEEPcEET0_T_SC_SB_
FNDA:0,_ZNSt20__uninitialized_copyILb1EE13__uninit_copyIN9__gnu_cxx17__normal_iteratorIPKcSt6vectorIcSaIcEEEEPcEET0_T_SC_SB_
FN:126,_ZSt18uninitialized_copyIN9__gnu_cxx17__normal_iteratorIPKcSt6vectorIcSaIcEEEEPcET0_T_SA_S9_
FNDA:0,_ZSt18uninitialized_copyIN9__gnu_cxx17__normal_iteratorIPKcSt6vectorIcSaIcEEEEPcET0_T_SA_S9_
FN:331,_ZSt22__uninitialized_copy_aIN9__gnu_cxx17__normal_iteratorIPKcSt6vectorIcSaIcEEEEPccET0_T_SA_S9_RSaIT1_E
FNDA:0,_ZSt22__uninitialized_copy_aIN9__gnu_cxx17__normal_iteratorIPKcSt6vectorIcSaIcEEEEPccET0_T_SA_S9_RSaIT1_E
DA:108,0
DA:110,0
DA:126,0
DA:145,0
DA:151,0
DA:331,0
DA:333,0
end_of_record
SF:/usr/include/c++/11/bits/move.h
FN:49,_ZSt11__addressofI12loggerRecordEPT_RS1_
FNDA:0,_ZSt11__addressofI12loggerRecordEPT_RS1_
FN:49,_ZSt11__addressofIcEPT_RS0_
FNDA:0,_ZSt11__addressofIcEPT_RS0_
FN:49,_ZSt11__addressofISt5mutexEPT_RS1_
FNDA:11,_ZSt11__addressofISt5mutexEPT_RS1_
FN:77,_ZSt7forwardIRK12loggerRecordEOT_RNSt16remove_referenceIS3_E4typeE
FNDA:22,_ZSt7forwardIRK12loggerRecordEOT_RNSt16remove_referenceIS3_E4typeE
DA:49,0
DA:50,0
DA:49,0
DA:50,0
DA:49,11
DA:50,11
DA:77,22
DA:78,22
end_of_record
SF:/home/yackey/projects/waitables/logger/src/loggerQueue.cpp
FN:3,_ZN11loggerQueue3popEv
FNDA:11,_ZN11loggerQueue3popEv
FN:5,_ZZN11loggerQueue3popEvENKUlvE_clEv
FNDA:11,_ZZN11loggerQueue3popEvENKUlvE_clEv
FN:11,_ZN11loggerQueue4pushE12loggerRecord
FNDA:11,_ZN11loggerQueue4pushE12loggerRecord
FN:17,_ZN11loggerQueue7isEmptyEv
FNDA:33131521,_ZN11loggerQueue7isEmptyEv
FN:22,_ZN11loggerQueue4sizeEv
FNDA:4,_ZN11loggerQueue4sizeEv
FN:27,_ZN11loggerQueue5clearEv
FNDA:3,_ZN11loggerQueue5clearEv
DA:3,11
DA:4,11
DA:5,22
DA:6,11
DA:7,11
DA:8,22
DA:9,11
DA:11,11
DA:12,11
DA:13,11
DA:14,11
DA:15,11
DA:17,33131521
DA:18,33131521
DA:19,66263042
DA:20,33131521
DA:22,4
DA:23,4
DA:24,8
DA:25,4
DA:27,3
DA:28,3
DA:29,6
DA:30,3
end_of_record
SF:/usr/include/c++/11/bits/alloc_traits.h
FN:463,_ZNSt16allocator_traitsISaIP12loggerRecordEE8allocateERS2_m
FNDA:0,_ZNSt16allocator_traitsISaIP12loggerRecordEE8allocateERS2_m
FN:463,_ZNSt16allocator_traitsISaI12loggerRecordEE8allocateERS1_m
FNDA:0,_ZNSt16allocator_traitsISaI12loggerRecordEE8allocateERS1_m
FN:463,_ZNSt16allocator_traitsISaIcEE8allocateERS0_m
FNDA:0,_ZNSt16allocator_traitsISaIcEE8allocateERS0_m
FN:495,_ZNSt16allocator_traitsISaIP12loggerRecordEE10deallocateERS2_PS1_m
FNDA:0,_ZNSt16allocator_traitsISaIP12loggerRecordEE10deallocateERS2_PS1_m
FN:495,_ZNSt16allocator_traitsISaI12loggerRecordEE10deallocateERS1_PS0_m
FNDA:0,_ZNSt16allocator_traitsISaI12loggerRecordEE10deallocateERS1_PS0_m
FN:495,_ZNSt16allocator_traitsISaIcEE10deallocateERS0_Pcm
FNDA:0,_ZNSt16allocator_traitsISaIcEE10deallocateERS0_Pcm
FN:511,_ZNSt16allocator_traitsISaI12loggerRecordEE9constructIS0_JRKS0_EEEvRS1_PT_DpOT0_
FNDA:11,_ZNSt16allocator_traitsISaI12loggerRecordEE9constructIS0_JRKS0_EEEvRS1_PT_DpOT0_
FN:531,_ZNSt16allocator_traitsISaI12loggerRecordEE7destroyIS0_EEvRS1_PT_
FNDA:11,_ZNSt16allocator_traitsISaI12loggerRecordEE7destroyIS0_EEvRS1_PT_
FN:547,_ZNSt16allocator_traitsISaI12loggerRecordEE8max_sizeERKS1_
FNDA:0,_ZNSt16allocator_traitsISaI12loggerRecordEE8max_sizeERKS1_
FN:562,_ZNSt16allocator_traitsISaIcEE37select_on_container_copy_constructionERKS0_
FNDA:0,_ZNSt16allocator_traitsISaIcEE37select_on_container_copy_constructionERKS0_
FN:845,_ZSt8_DestroyIP12loggerRecordS0_EvT_S2_RSaIT0_E
FNDA:0,_ZSt8_DestroyIP12loggerRecordS0_EvT_S2_RSaIT0_E
FN:845,_ZSt8_DestroyIPccEvT_S1_RSaIT0_E
FNDA:0,_ZSt8_DestroyIPccEvT_S1_RSaIT0_E
DA:463,0
DA:464,0
DA:463,0
DA:464,0
DA:463,0
DA:464,0
DA:495,0
DA:496,0
DA:495,0
DA:496,0
DA:495,0
DA:496,0
DA:511,11
DA:518,11
DA:520,11
DA:531,11
DA:537,11
DA:539,11
DA:547,0
DA:552,0
DA:562,0
DA:563,0
DA:845,0
DA:848,0
DA:849,0
DA:845,0
DA:848,0
DA:849,0
end_of_record
TN:
SF:/usr/include/c++/11/ext/alloc_traits.h
FN:103,_ZN9__gnu_cxx14__alloc_traitsISaIcEcE27_S_propagate_on_copy_assignEv
FNDA:37,_ZN9__gnu_cxx14__alloc_traitsISaIcEcE27_S_propagate_on_copy_assignEv
FN:112,_ZN9__gnu_cxx14__alloc_traitsISaIcEcE15_S_always_equalEv
FNDA:0,_ZN9__gnu_cxx14__alloc_traitsISaIcEcE15_S_always_equalEv
DA:103,37
DA:104,37
DA:112,0
DA:113,0
end_of_record
SF:/usr/include/c++/11/bits/ptr_traits.h
FN:149,_ZNSt14pointer_traitsIPKcE10pointer_toERS0_
FNDA:0,_ZNSt14pointer_traitsIPKcE10pointer_toERS0_
FN:149,_ZNSt14pointer_traitsIPcE10pointer_toERc
FNDA:0,_ZNSt14pointer_traitsIPcE10pointer_toERc
DA:149,0
DA:150,0
DA:149,0
DA:150,0
end_of_record
SF:/home/yackey/projects/waitables/logger/src/loggerConfig.cpp
FN:5,_ZN12loggerConfigC2Ev
FNDA:3,_ZN12loggerConfigC2Ev
FN:18,_ZN12loggerConfig4initENSt7__cxx1112basic_stringIcSt11char_traitsIcESaIcEEES5_S5_jjjj
FNDA:0,_ZN12loggerConfig4initENSt7__cxx1112basic_stringIcSt11char_traitsIcESaIcEEES5_S5_jjjj
FN:30,_ZN12loggerConfig13setFnFromBaseEv
FNDA:3,_ZN12loggerConfig13setFnFromBaseEv
DA:5,3
DA:6,3
DA:7,3
DA:8,3
DA:9,3
DA:10,3
DA:11,3
DA:12,3
DA:13,3
DA:18,0
DA:20,0
DA:21,0
DA:22,0
DA:23,0
DA:24,0
DA:25,0
DA:26,0
DA:27,0
DA:28,0
DA:30,3
DA:31,3
DA:33,3
DA:34,3
DA:36,3
DA:37,3
end_of_record
SF:/usr/include/c++/11/bits/stl_construct.h
FN:80,_ZSt10destroy_atIcEvPT_
FNDA:0,_ZSt10destroy_atIcEvPT_
FN:109,_ZSt10_ConstructIcJEEvPT_DpOT0_
FNDA:31,_ZSt10_ConstructIcJEEvPT_DpOT0_
FN:146,_ZSt8_DestroyIcEvPT_
FNDA:0,_ZSt8_DestroyIcEvPT_
FN:160,_ZNSt12_Destroy_auxILb0EE9__destroyIPcEEvT_S3_
FNDA:0,_ZNSt12_Destroy_auxILb0EE9__destroyIPcEEvT_S3_
FN:172,_ZNSt12_Destroy_auxILb1EE9__destroyIPcEEvT_S3_
FNDA:69,_ZNSt12_Destroy_auxILb1EE9__destroyIPcEEvT_S3_
FN:182,_ZSt8_DestroyIPcEvT_S1_
FNDA:69,_ZSt8_DestroyIPcEvT_S1_
DA:80,0
DA:88,0
DA:89,0
DA:109,31
DA:119,31
DA:146,0
DA:149,0
DA:153,0
DA:160,0
DA:162,0
DA:163,0
DA:164,0
DA:172,69
DA:182,69
DA:192,69
DA:193,0
DA:196,69
end_of_record
SF:/usr/include/c++/11/type_traits
FN:3418,_ZSt21is_constant_evaluatedv
FNDA:0,_ZSt21is_constant_evaluatedv
DA:3418,0
DA:3419,0
end_of_record
SF:/usr/include/c++/11/new
FN:174,_ZnwmPv
FNDA:0,_ZnwmPv
DA:174,0
DA:175,0
end_of_record
SF:/home/yackey/projects/waitables/logger/include/loggerConfig.h
FN:8,_ZN12loggerConfigD0Ev
FNDA:0,_ZN12loggerConfigD0Ev
FN:8,_ZN12loggerConfigD2Ev
FNDA:3,_ZN12loggerConfigD2Ev
DA:8,0
DA:8,3
end_of_record
SF:/usr/include/c++/11/bits/cpp_type_traits.h
FN:560,_ZSt12__miter_baseIPKcET_S2_
FNDA:0,_ZSt12__miter_baseIPKcET_S2_
DA:560,0
DA:561,0
end_of_record
SF:/usr/include/c++/11/bits/allocator.h
FN:204,_ZSteqRKSaIcES1_
FNDA:0,_ZSteqRKSaIcES1_
DA:182,0
DA:183,0
DA:185,0
DA:193,0
DA:195,0
DA:196,0
DA:199,0
DA:204,0
DA:205,0
end_of_record
SF:/usr/include/c++/11/bits/basic_string.h
FN:167,_ZNSt7__cxx1112basic_stringIcSt11char_traitsIcESaIcEE12_Alloc_hiderC2EPcOS3_
FNDA:0,_ZNSt7__cxx1112basic_stringIcSt11char_traitsIcESaIcEE12_Alloc_hiderC2EPcOS3_
FN:186,_ZNSt7__cxx1112basic_stringIcSt11char_traitsIcESaIcEE7_M_dataEPc
FNDA:0,_ZNSt7__cxx1112basic_stringIcSt11char_traitsIcESaIcEE7_M_dataEPc
FN:190,_ZNSt7__cxx1112basic_stringIcSt11char_traitsIcESaIcEE9_M_lengthEm
FNDA:0,_ZNSt7__cxx1112basic_stringIcSt11char_traitsIcESaIcEE9_M_lengthEm
FN:194,_ZNKSt7__cxx1112basic_stringIcSt11char_traitsIcESaIcEE7_M_dataEv
FNDA:0,_ZNKSt7__cxx1112basic_stringIcSt11char_traitsIcESaIcEE7_M_dataEv
FN:198,_ZNSt7__cxx1112basic_stringIcSt11char_traitsIcESaIcEE13_M_local_dataEv
FNDA:0,_ZNSt7__cxx1112basic_stringIcSt11char_traitsIcESaIcEE13_M_local_dataEv
FN:208,_ZNKSt7__cxx1112basic_stringIcSt11char_traitsIcESaIcEE13_M_local_dataEv
FNDA:0,_ZNKSt7__cxx1112basic_stringIcSt11char_traitsIcESaIcEE13_M_local_dataEv
FN:218,_ZNSt7__cxx1112basic_stringIcSt11char_traitsIcESaIcEE11_M_capacityEm
FNDA:0,_ZNSt7__cxx1112basic_stringIcSt11char_traitsIcESaIcEE11_M_capacityEm
FN:222,_ZNSt7__cxx1112basic_stringIcSt11char_traitsIcESaIcEE13_M_set_lengthEm
FNDA:0,_ZNSt7__cxx1112basic_stringIcSt11char_traitsIcESaIcEE13_M_set_lengthEm
FN:229,_ZNKSt7__cxx1112basic_stringIcSt11char_traitsIcESaIcEE11_M_is_localEv
FNDA:0,_ZNKSt7__cxx1112basic_stringIcSt11char_traitsIcESaIcEE11_M_is_localEv
FN:237,_ZNSt7__cxx1112basic_stringIcSt11char_traitsIcESaIcEE10_M_disposeEv
FNDA:0,_ZNSt7__cxx1112basic_stringIcSt11char_traitsIcESaIcEE10_M_disposeEv
FN:244,_ZNSt7__cxx1112basic_stringIcSt11char_traitsIcESaIcEE10_M_destroyEm
FNDA:0,_ZNSt7__cxx1112basic_stringIcSt11char_traitsIcESaIcEE10_M_destroyEm
FN:294,_ZNSt7__cxx1112basic_stringIcSt11char_traitsIcESaIcEE16_M_get_allocatorEv
FNDA:0,_ZNSt7__cxx1112basic_stringIcSt11char_traitsIcESaIcEE16_M_get_allocatorEv
FN:298,_ZNKSt7__cxx1112basic_stringIcSt11char_traitsIcESaIcEE16_M_get_allocatorEv
FNDA:0,_ZNKSt7__cxx1112basic_stringIcSt11char_traitsIcESaIcEE16_M_get_allocatorEv
FN:328,_ZNKSt7__cxx1112basic_stringIcSt11char_traitsIcESaIcEE15_M_check_lengthEmmPKc
FNDA:109,_ZNKSt7__cxx1112basic_stringIcSt11char_traitsIcESaIcEE15_M_check_lengthEmmPKc
FN:345,_ZNKSt7__cxx1112basic_stringIcSt11char_traitsIcESaIcEE11_M_disjunctEPKc
FNDA:79,_ZNKSt7__cxx1112basic_stringIcSt11char_traitsIcESaIcEE11_M_disjunctEPKc
FN:354,_ZNSt7__cxx1112basic_stringIcSt11char_traitsIcESaIcEE7_S_copyEPcPKcm
FNDA:0,_ZNSt7__cxx1112basic_stringIcSt11char_traitsIcESaIcEE7_S_copyEPcPKcm
FN:363,_ZNSt7__cxx1112basic_stringIcSt11char_traitsIcESaIcEE7_S_moveEPcPKcm
FNDA:0,_ZNSt7__cxx1112basic_stringIcSt11char_traitsIcESaIcEE7_S_moveEPcPKcm
FN:439,_ZNSt7__cxx1112basic_stringIcSt11char_traitsIcESaIcEEC2Ev
FNDA:105,_ZNSt7__cxx1112basic_stringIcSt11char_traitsIcESaIcEEC2Ev
FN:671,_ZNSt7__cxx1112basic_stringIcSt11char_traitsIcESaIcEED2Ev
FNDA:0,_ZNSt7__cxx1112basic_stringIcSt11char_traitsIcESaIcEED2Ev
FN:679,_ZNSt7__cxx1112basic_stringIcSt11char_traitsIcESaIcEEaSERKS4_
FNDA:37,_ZNSt7__cxx1112basic_stringIcSt11char_traitsIcESaIcEEaSERKS4_
FN:689,_ZNSt7__cxx1112basic_stringIcSt11char_traitsIcESaIcEEaSEPKc
FNDA:27,_ZNSt7__cxx1112basic_stringIcSt11char_traitsIcESaIcEEaSEPKc
FN:920,_ZNKSt7__cxx1112basic_stringIcSt11char_traitsIcESaIcEE4sizeEv
FNDA:280,_ZNKSt7__cxx1112basic_stringIcSt11char_traitsIcESaIcEE4sizeEv
FN:926,_ZNKSt7__cxx1112basic_stringIcSt11char_traitsIcESaIcEE6lengthEv
FNDA:0,_ZNKSt7__cxx1112basic_stringIcSt11char_traitsIcESaIcEE6lengthEv
FN:931,_ZNKSt7__cxx1112basic_stringIcSt11char_traitsIcESaIcEE8max_sizeEv
FNDA:0,_ZNKSt7__cxx1112basic_stringIcSt11char_traitsIcESaIcEE8max_sizeEv
FN:976,_ZNKSt7__cxx1112basic_stringIcSt11char_traitsIcESaIcEE8capacityEv
FNDA:179,_ZNKSt7__cxx1112basic_stringIcSt11char_traitsIcESaIcEE8capacityEv
FN:1356,_ZNSt7__cxx1112basic_stringIcSt11char_traitsIcESaIcEE6assignERKS4_
FNDA:37,_ZNSt7__cxx1112basic_stringIcSt11char_traitsIcESaIcEE6assignERKS4_
FN:1456,_ZNSt7__cxx1112basic_stringIcSt11char_traitsIcESaIcEE6assignEPKc
FNDA:27,_ZNSt7__cxx1112basic_stringIcSt11char_traitsIcESaIcEE6assignEPKc
FN:2320,_ZNKSt7__cxx1112basic_stringIcSt11char_traitsIcESaIcEE5c_strEv
FNDA:0,_ZNKSt7__cxx1112basic_stringIcSt11char_traitsIcESaIcEE5c_strEv
DA:167,0
DA:168,0
DA:186,0
DA:187,0
DA:190,0
DA:191,0
DA:194,0
DA:195,0
DA:198,0
DA:201,0
DA:208,0
DA:211,0
DA:218,0
DA:219,0
DA:222,0
DA:224,0
DA:225,0
DA:226,0
DA:229,0
DA:230,0
DA:237,0
DA:239,0
DA:240,0
DA:241,0
DA:244,0
DA:245,0
DA:294,0
DA:295,0
DA:298,0
DA:299,0
DA:328,109
DA:330,109
DA:331,0
DA:332,109
DA:345,79
DA:347,79
DA:348,79
DA:354,0
DA:356,0
DA:357,0
DA:359,0
DA:360,0
DA:363,0
DA:365,0
DA:366,0
DA:368,0
DA:369,0
DA:439,105
DA:441,105
DA:442,105
DA:671,0
DA:672,0
DA:679,37
DA:681,37
DA:689,27
DA:690,27
DA:920,280
DA:921,280
DA:926,0
DA:927,0
DA:931,0
DA:932,0
DA:976,179
DA:978,179
DA:979,179
DA:1356,37
DA:1359,37
DA:1361,0
DA:1362,0
DA:1366,0
DA:1368,0
DA:1369,0
DA:1370,0
DA:1374,0
DA:1375,0
DA:1377,0
DA:1378,0
DA:1379,0
DA:1380,0
DA:1381,0
DA:1382,0
DA:1384,0
DA:1387,37
DA:1388,37
DA:1456,27
DA:1459,27
DA:1460,27
DA:2320,0
DA:2321,0
end_of_record
SF:/usr/include/c++/11/bits/char_traits.h
FN:106,_ZN9__gnu_cxx11char_traitsIcE2eqERKcS3_
FNDA:0,_ZN9__gnu_cxx11char_traitsIcE2eqERKcS3_
FN:167,_ZN9__gnu_cxx11char_traitsIcE6lengthEPKc
FNDA:0,_ZN9__gnu_cxx11char_traitsIcE6lengthEPKc
FN:190,_ZN9__gnu_cxx11char_traitsIcE4moveEPcPKcm
FNDA:0,_ZN9__gnu_cxx11char_traitsIcE4moveEPcPKcm
FN:240,_ZN9__gnu_cxx11char_traitsIcE4copyEPcPKcm
FNDA:0,_ZN9__gnu_cxx11char_traitsIcE4copyEPcPKcm
FN:356,_ZNSt11char_traitsIcE6assignERcRKc
FNDA:0,_ZNSt11char_traitsIcE6assignERcRKc
FN:393,_ZNSt11char_traitsIcE6lengthEPKc
FNDA:0,_ZNSt11char_traitsIcE6lengthEPKc
FN:417,_ZNSt11char_traitsIcE4moveEPcPKcm
FNDA:0,_ZNSt11char_traitsIcE4moveEPcPKcm
FN:429,_ZNSt11char_traitsIcE4copyEPcPKcm
FNDA:0,_ZNSt11char_traitsIcE4copyEPcPKcm
DA:106,0
DA:107,0
DA:167,0
DA:170,0
DA:171,0
DA:172,0
DA:173,0
DA:190,0
DA:193,0
DA:194,0
DA:196,0
DA:198,0
DA:199,0
DA:203,0
DA:204,0
DA:205,0
DA:206,0
DA:230,0
DA:233,0
DA:234,0
DA:240,0
DA:244,0
DA:245,0
DA:290,0
DA:356,0
DA:357,0
DA:393,0
DA:396,0
DA:397,0
DA:399,0
DA:417,0
DA:419,0
DA:420,0
DA:422,0
DA:423,0
DA:425,0
DA:429,0
DA:431,0
DA:432,0
DA:434,0
DA:435,0
DA:437,0
end_of_record
SF:/usr/include/c++/11/bits/stl_vector.h
FN:97,_ZNSt12_Vector_baseIcSaIcEE17_Vector_impl_dataC2Ev
FNDA:68,_ZNSt12_Vector_baseIcSaIcEE17_Vector_impl_dataC2Ev
FN:136,_ZNSt12_Vector_baseIcSaIcEE12_Vector_implC2ERKS0_
FNDA:57,_ZNSt12_Vector_baseIcSaIcEE12_Vector_implC2ERKS0_
FN:276,_ZNSt12_Vector_baseIcSaIcEE19_M_get_Tp_allocatorEv
FNDA:138,_ZNSt12_Vector_baseIcSaIcEE19_M_get_Tp_allocatorEv
FN:303,_ZNSt12_Vector_baseIcSaIcEEC2EmRKS0_
FNDA:57,_ZNSt12_Vector_baseIcSaIcEEC2EmRKS0_
FN:333,_ZNSt12_Vector_baseIcSaIcEED2Ev
FNDA:69,_ZNSt12_Vector_baseIcSaIcEED2Ev
FN:343,_ZNSt12_Vector_baseIcSaIcEE11_M_allocateEm
FNDA:63,_ZNSt12_Vector_baseIcSaIcEE11_M_allocateEm
FN:350,_ZNSt12_Vector_baseIcSaIcEE13_M_deallocateEPcm
FNDA:74,_ZNSt12_Vector_baseIcSaIcEE13_M_deallocateEPcm
FN:359,_ZNSt12_Vector_baseIcSaIcEE17_M_create_storageEm
FNDA:57,_ZNSt12_Vector_baseIcSaIcEE17_M_create_storageEm
FN:510,_ZNSt6vectorIcSaIcEEC2EmRKS0_
FNDA:25,_ZNSt6vectorIcSaIcEEC2EmRKS0_
FN:678,_ZNSt6vectorIcSaIcEED2Ev
FNDA:69,_ZNSt6vectorIcSaIcEED2Ev
FN:918,_ZNKSt6vectorIcSaIcEE4sizeEv
FNDA:106,_ZNKSt6vectorIcSaIcEE4sizeEv
FN:1168,_ZNSt6vectorIcSaIcEE4dataEv
FNDA:111,_ZNSt6vectorIcSaIcEE4dataEv
FN:1603,_ZNSt6vectorIcSaIcEE21_M_default_initializeEm
FNDA:25,_ZNSt6vectorIcSaIcEE21_M_default_initializeEm
FN:1767,_ZNSt6vectorIcSaIcEE17_S_check_init_lenEmRKS0_
FNDA:25,_ZNSt6vectorIcSaIcEE17_S_check_init_lenEmRKS0_
FN:1776,_ZNSt6vectorIcSaIcEE11_S_max_sizeERKS0_
FNDA:48,_ZNSt6vectorIcSaIcEE11_S_max_sizeERKS0_
FN:1844,_ZNKSt6vectorIcSaIcEE11_M_data_ptrIcEEPT_S4_
FNDA:111,_ZNKSt6vectorIcSaIcEE11_M_data_ptrIcEEPT_S4_
DA:97,68
DA:98,68
DA:99,68
DA:136,57
DA:137,57
DA:138,57
DA:276,138
DA:277,138
DA:303,57
DA:304,57
DA:305,57
DA:333,69
DA:335,69
DA:336,69
DA:337,69
DA:343,63
DA:346,63
DA:350,74
DA:353,74
DA:354,49
DA:355,74
DA:359,57
DA:361,57
DA:362,57
DA:363,57
DA:364,57
DA:510,25
DA:511,25
DA:512,25
DA:678,69
DA:680,69
DA:681,69
DA:683,69
DA:918,106
DA:919,106
DA:1168,111
DA:1169,111
DA:1603,25
DA:1605,25
DA:1606,25
DA:1607,25
DA:1608,25
DA:1767,25
DA:1769,25
DA:1770,0
DA:1772,25
DA:1776,48
DA:1781,48
DA:1783,48
DA:1784,48
DA:1844,111
DA:1845,111
end_of_record
SF:/usr/include/c++/11/bits/move.h
FN:49,_ZSt11__addressofIKcEPT_RS1_
FNDA:0,_ZSt11__addressofIKcEPT_RS1_
FN:49,_ZSt11__addressofIcEPT_RS0_
FNDA:0,_ZSt11__addressofIcEPT_RS0_
FN:104,_ZSt4moveIRSaIcEEONSt16remove_referenceIT_E4typeEOS3_
FNDA:0,_ZSt4moveIRSaIcEEONSt16remove_referenceIT_E4typeEOS3_
FN:145,_ZSt9addressofIKcEPT_RS1_
FNDA:0,_ZSt9addressofIKcEPT_RS1_
FN:145,_ZSt9addressofIcEPT_RS0_
FNDA:0,_ZSt9addressofIcEPT_RS0_
DA:49,0
DA:50,0
DA:49,0
DA:50,0
DA:104,0
DA:105,0
DA:145,0
DA:146,0
DA:145,0
DA:146,0
end_of_record
SF:/usr/include/c++/11/bits/alloc_traits.h
FN:463,_ZNSt16allocator_traitsISaIcEE8allocateERS0_m
FNDA:0,_ZNSt16allocator_traitsISaIcEE8allocateERS0_m
FN:495,_ZNSt16allocator_traitsISaIcEE10deallocateERS0_Pcm
FNDA:0,_ZNSt16allocator_traitsISaIcEE10deallocateERS0_Pcm
FN:547,_ZNSt16allocator_traitsISaIcEE8max_sizeERKS0_
FNDA:0,_ZNSt16allocator_traitsISaIcEE8max_sizeERKS0_
FN:678,_ZSt15__alloc_on_copyISaIcEEvRT_RKS1_
FNDA:0,_ZSt15__alloc_on_copyISaIcEEvRT_RKS1_
FN:845,_ZSt8_DestroyIPccEvT_S1_RSaIT0_E
FNDA:69,_ZSt8_DestroyIPccEvT_S1_RSaIT0_E
DA:463,0
DA:464,0
DA:495,0
DA:496,0
DA:547,0
DA:552,0
DA:678,0
DA:688,0
DA:845,69
DA:848,69
DA:849,69
end_of_record
SF:/usr/include/c++/11/bits/basic_string.tcc
FN:132,_ZNSt7__cxx1112basic_stringIcSt11char_traitsIcESaIcEE9_M_createERmm
FNDA:0,_ZNSt7__cxx1112basic_stringIcSt11char_traitsIcESaIcEE9_M_createERmm
FN:254,_ZNSt7__cxx1112basic_stringIcSt11char_traitsIcESaIcEE9_M_assignERKS4_
FNDA:37,_ZNSt7__cxx1112basic_stringIcSt11char_traitsIcESaIcEE9_M_assignERKS4_
FN:300,_ZNSt7__cxx1112basic_stringIcSt11char_traitsIcESaIcEE9_M_mutateEmmPKcm
FNDA:33,_ZNSt7__cxx1112basic_stringIcSt11char_traitsIcESaIcEE9_M_mutateEmmPKcm
FN:448,_ZNSt7__cxx1112basic_stringIcSt11char_traitsIcESaIcEE10_M_replaceEmmPKcm
FNDA:109,_ZNSt7__cxx1112basic_stringIcSt11char_traitsIcESaIcEE10_M_replaceEmmPKcm
DA:132,0
DA:137,0
DA:138,0
DA:143,0
DA:145,0
DA:147,0
DA:148,0
DA:153,0
DA:254,37
DA:257,37
DA:259,37
DA:260,37
DA:262,37
DA:264,1
DA:265,1
DA:266,1
DA:267,1
DA:268,1
DA:271,37
DA:272,19
DA:274,37
DA:276,37
DA:300,33
DA:304,33
DA:306,33
DA:307,33
DA:309,33
DA:310,3
DA:311,33
DA:312,33
DA:313,33
DA:314,0
DA:315,0
DA:317,33
DA:318,33
DA:319,33
DA:320,33
DA:448,109
DA:452,109
DA:454,109
DA:455,109
DA:457,109
DA:459,79
DA:461,79
DA:462,79
DA:464,79
DA:465,0
DA:466,79
DA:467,79
DA:472,0
DA:473,0
DA:474,0
DA:475,0
DA:476,0
DA:478,0
DA:479,0
DA:480,0
DA:484,0
DA:485,0
DA:489,0
DA:490,0
DA:491,0
DA:498,30
DA:500,109
DA:501,109
end_of_record
SF:/usr/include/c++/11/bits/stl_uninitialized.h
FN:595,_ZNSt27__uninitialized_default_n_1ILb1EE18__uninit_default_nIPcmEET_S3_T0_
FNDA:31,_ZNSt27__uninitialized_default_n_1ILb1EE18__uninit_default_nIPcmEET_S3_T0_
FN:630,_ZSt25__uninitialized_default_nIPcmET_S1_T0_
FNDA:31,_ZSt25__uninitialized_default_nIPcmET_S1_T0_
FN:702,_ZSt27__uninitialized_default_n_aIPcmcET_S1_T0_RSaIT1_E
FNDA:31,_ZSt27__uninitialized_default_n_aIPcmcET_S1_T0_RSaIT1_E
DA:595,31
DA:597,31
DA:600,31
DA:601,31
DA:602,31
DA:603,31
DA:605,31
DA:630,31
DA:635,31
DA:640,31
DA:702,31
DA:704,31
end_of_record
SF:/usr/include/c++/11/ext/new_allocator.h
FN:79,_ZN9__gnu_cxx13new_allocatorIcEC2Ev
FNDA:0,_ZN9__gnu_cxx13new_allocatorIcEC2Ev
FN:82,_ZN9__gnu_cxx13new_allocatorIcEC2ERKS1_
FNDA:0,_ZN9__gnu_cxx13new_allocatorIcEC2ERKS1_
FN:103,_ZN9__gnu_cxx13new_allocatorIcE8allocateEmPKv
FNDA:0,_ZN9__gnu_cxx13new_allocatorIcE8allocateEmPKv
FN:132,_ZN9__gnu_cxx13new_allocatorIcE10deallocateEPcm
FNDA:0,_ZN9__gnu_cxx13new_allocatorIcE10deallocateEPcm
FN:197,_ZNK9__gnu_cxx13new_allocatorIcE11_M_max_sizeEv
FNDA:0,_ZNK9__gnu_cxx13new_allocatorIcE11_M_max_sizeEv
DA:79,0
DA:82,0
DA:103,0
DA:111,0
DA:117,0
DA:127,0
DA:132,0
DA:145,0
DA:197,0
DA:200,0
end_of_record
SF:/usr/include/c++/11/bits/stl_iterator_base_types.h
FN:238,_ZSt19__iterator_categoryIPcENSt15iterator_traitsIT_E17iterator_categoryERKS2_
FNDA:0,_ZSt19__iterator_categoryIPcENSt15iterator_traitsIT_E17iterator_categoryERKS2_
DA:238,0
DA:239,0
end_of_record
SF:/usr/include/c++/11/bits/stl_function.h
FN:447,_ZNKSt4lessIPKcEclES1_S1_
FNDA:79,_ZNKSt4lessIPKcEclES1_S1_
DA:447,79
DA:457,79
end_of_record
SF:/usr/include/c++/11/bits/stl_algobase.h
FN:230,_ZSt3minImERKT_S2_S2_
FNDA:83,_ZSt3minImERKT_S2_S2_
FN:313,_ZSt12__niter_baseIPcET_S1_
FNDA:0,_ZSt12__niter_baseIPcET_S1_
FN:313,_ZSt12__niter_baseIPKcET_S2_
FNDA:0,_ZSt12__niter_baseIPKcET_S2_
FN:335,_ZSt12__niter_wrapIPcET_RKS1_S1_
FNDA:0,_ZSt12__niter_wrapIPcET_RKS1_S1_
FN:380,_ZNSt11__copy_moveILb0ELb0ESt26random_access_iterator_tagE8__copy_mIPKcPcEET0_T_S7_S6_
FNDA:0,_ZNSt11__copy_moveILb0ELb0ESt26random_access_iterator_tagE8__copy_mIPKcPcEET0_T_S7_S6_
FN:420,_ZNSt11__copy_moveILb0ELb1ESt26random_access_iterator_tagE8__copy_mIcEEPT_PKS3_S6_S4_
FNDA:0,_ZNSt11__copy_moveILb0ELb1ESt26random_access_iterator_tagE8__copy_mIcEEPT_PKS3_S6_S4_
FN:486,_ZSt14__copy_move_a2ILb0EPKcPcET1_T0_S4_S3_
FNDA:0,_ZSt14__copy_move_a2ILb0EPKcPcET1_T0_S4_S3_
FN:521,_ZSt14__copy_move_a1ILb0EPKcPcET1_T0_S4_S3_
FNDA:0,_ZSt14__copy_move_a1ILb0EPKcPcET1_T0_S4_S3_
FN:527,_ZSt13__copy_move_aILb0EPKcPcET1_T0_S4_S3_
FNDA:0,_ZSt13__copy_move_aILb0EPKcPcET1_T0_S4_S3_
FN:611,_ZSt4copyIPKcPcET0_T_S4_S3_
FNDA:0,_ZSt4copyIPKcPcET0_T_S4_S3_
FN:932,_ZSt9__fill_a1IcEN9__gnu_cxx11__enable_ifIXsrSt9__is_byteIT_E7__valueEvE6__typeEPS3_S7_RKS3_
FNDA:31,_ZSt9__fill_a1IcEN9__gnu_cxx11__enable_ifIXsrSt9__is_byteIT_E7__valueEvE6__typeEPS3_S7_RKS3_
FN:968,_ZSt8__fill_aIPccEvT_S1_RKT0_
FNDA:31,_ZSt8__fill_aIPccEvT_S1_RKT0_
FN:1010,_ZSt17__size_to_integerm
FNDA:31,_ZSt17__size_to_integerm
FN:1109,_ZSt10__fill_n_aIPcmcET_S1_T0_RKT1_St26random_access_iterator_tag
FNDA:31,_ZSt10__fill_n_aIPcmcET_S1_T0_RKT1_St26random_access_iterator_tag
FN:1144,_ZSt6fill_nIPcmcET_S1_T0_RKT1_
FNDA:31,_ZSt6fill_nIPcmcET_S1_T0_RKT1_
DA:230,83
DA:235,83
DA:236,0
DA:237,83
DA:313,0
DA:315,0
DA:313,0
DA:315,0
DA:335,0
DA:336,0
DA:380,0
DA:383,0
DA:385,0
DA:386,0
DA:387,0
DA:389,0
DA:420,0
DA:429,0
DA:430,0
DA:431,0
DA:432,0
DA:486,0
DA:490,0
DA:492,0
DA:495,0
DA:521,0
DA:522,0
DA:527,0
DA:529,0
DA:532,0
DA:611,0
DA:620,0
DA:932,31
DA:934,31
DA:936,31
DA:938,0
DA:939,0
DA:940,0
DA:943,31
DA:944,31
DA:968,31
DA:969,31
DA:1010,31
DA:1109,31
DA:1115,31
DA:1116,0
DA:1120,31
DA:1121,31
DA:1144,31
DA:1149,31
DA:1150,62
end_of_record
TN:
SF:/usr/include/c++/11/bits/unique_ptr.h
FN:79,_ZNKSt14default_deleteINSt6thread6_StateEEclEPS1_
FNDA:0,_ZNKSt14default_deleteINSt6thread6_StateEEclEPS1_
FN:155,_ZNSt15__uniq_ptr_implINSt6thread6_StateESt14default_deleteIS1_EEC2EPS1_
FNDA:3,_ZNSt15__uniq_ptr_implINSt6thread6_StateESt14default_deleteIS1_EEC2EPS1_
FN:172,_ZNSt15__uniq_ptr_implINSt6thread6_StateESt14default_deleteIS1_EE6_M_ptrEv
FNDA:6,_ZNSt15__uniq_ptr_implINSt6thread6_StateESt14default_deleteIS1_EE6_M_ptrEv
FN:174,_ZNSt15__uniq_ptr_implINSt6thread6_StateESt14default_deleteIS1_EE10_M_deleterEv
FNDA:0,_ZNSt15__uniq_ptr_implINSt6thread6_StateESt14default_deleteIS1_EE10_M_deleterEv
FN:281,_ZNSt10unique_ptrINSt6thread6_StateESt14default_deleteIS1_EEC2IS3_vEEPS1_
FNDA:3,_ZNSt10unique_ptrINSt6thread6_StateESt14default_deleteIS1_EEC2IS3_vEEPS1_
FN:355,_ZNSt10unique_ptrINSt6thread6_StateESt14default_deleteIS1_EED2Ev
FNDA:3,_ZNSt10unique_ptrINSt6thread6_StateESt14default_deleteIS1_EED2Ev
FN:426,_ZNSt10unique_ptrINSt6thread6_StateESt14default_deleteIS1_EE11get_deleterEv
FNDA:0,_ZNSt10unique_ptrINSt6thread6_StateESt14default_deleteIS1_EE11get_deleterEv
DA:79,0
DA:85,0
DA:86,0
DA:155,3
DA:172,6
DA:174,0
DA:281,3
DA:282,3
DA:283,3
DA:355,3
DA:359,3
DA:360,3
DA:361,0
DA:362,3
DA:363,3
DA:426,0
DA:427,0
end_of_record
SF:/usr/include/c++/11/bits/basic_string.h
FN:167,_ZNSt7__cxx1112basic_stringIcSt11char_traitsIcESaIcEE12_Alloc_hiderC2EPcOS3_
FNDA:0,_ZNSt7__cxx1112basic_stringIcSt11char_traitsIcESaIcEE12_Alloc_hiderC2EPcOS3_
FN:186,_ZNSt7__cxx1112basic_stringIcSt11char_traitsIcESaIcEE7_M_dataEPc
FNDA:0,_ZNSt7__cxx1112basic_stringIcSt11char_traitsIcESaIcEE7_M_dataEPc
FN:190,_ZNSt7__cxx1112basic_stringIcSt11char_traitsIcESaIcEE9_M_lengthEm
FNDA:0,_ZNSt7__cxx1112basic_stringIcSt11char_traitsIcESaIcEE9_M_lengthEm
FN:194,_ZNKSt7__cxx1112basic_stringIcSt11char_traitsIcESaIcEE7_M_dataEv
FNDA:0,_ZNKSt7__cxx1112basic_stringIcSt11char_traitsIcESaIcEE7_M_dataEv
FN:198,_ZNSt7__cxx1112basic_stringIcSt11char_traitsIcESaIcEE13_M_local_dataEv
FNDA:0,_ZNSt7__cxx1112basic_stringIcSt11char_traitsIcESaIcEE13_M_local_dataEv
FN:208,_ZNKSt7__cxx1112basic_stringIcSt11char_traitsIcESaIcEE13_M_local_dataEv
FNDA:0,_ZNKSt7__cxx1112basic_stringIcSt11char_traitsIcESaIcEE13_M_local_dataEv
FN:218,_ZNSt7__cxx1112basic_stringIcSt11char_traitsIcESaIcEE11_M_capacityEm
FNDA:0,_ZNSt7__cxx1112basic_stringIcSt11char_traitsIcESaIcEE11_M_capacityEm
FN:222,_ZNSt7__cxx1112basic_stringIcSt11char_traitsIcESaIcEE13_M_set_lengthEm
FNDA:0,_ZNSt7__cxx1112basic_stringIcSt11char_traitsIcESaIcEE13_M_set_lengthEm
FN:229,_ZNKSt7__cxx1112basic_stringIcSt11char_traitsIcESaIcEE11_M_is_localEv
FNDA:0,_ZNKSt7__cxx1112basic_stringIcSt11char_traitsIcESaIcEE11_M_is_localEv
FN:237,_ZNSt7__cxx1112basic_stringIcSt11char_traitsIcESaIcEE10_M_disposeEv
FNDA:0,_ZNSt7__cxx1112basic_stringIcSt11char_traitsIcESaIcEE10_M_disposeEv
FN:244,_ZNSt7__cxx1112basic_stringIcSt11char_traitsIcESaIcEE10_M_destroyEm
FNDA:0,_ZNSt7__cxx1112basic_stringIcSt11char_traitsIcESaIcEE10_M_destroyEm
FN:251,_ZNSt7__cxx1112basic_stringIcSt11char_traitsIcESaIcEE16_M_construct_auxIPcEEvT_S7_St12__false_type
FNDA:0,_ZNSt7__cxx1112basic_stringIcSt11char_traitsIcESaIcEE16_M_construct_auxIPcEEvT_S7_St12__false_type
FN:271,_ZNSt7__cxx1112basic_stringIcSt11char_traitsIcESaIcEE12_M_constructIPcEEvT_S7_
FNDA:0,_ZNSt7__cxx1112basic_stringIcSt11char_traitsIcESaIcEE12_M_constructIPcEEvT_S7_
FN:294,_ZNSt7__cxx1112basic_stringIcSt11char_traitsIcESaIcEE16_M_get_allocatorEv
FNDA:0,_ZNSt7__cxx1112basic_stringIcSt11char_traitsIcESaIcEE16_M_get_allocatorEv
FN:298,_ZNKSt7__cxx1112basic_stringIcSt11char_traitsIcESaIcEE16_M_get_allocatorEv
FNDA:0,_ZNKSt7__cxx1112basic_stringIcSt11char_traitsIcESaIcEE16_M_get_allocatorEv
FN:328,_ZNKSt7__cxx1112basic_stringIcSt11char_traitsIcESaIcEE15_M_check_lengthEmmPKc
FNDA:0,_ZNKSt7__cxx1112basic_stringIcSt11char_traitsIcESaIcEE15_M_check_lengthEmmPKc
FN:345,_ZNKSt7__cxx1112basic_stringIcSt11char_traitsIcESaIcEE11_M_disjunctEPKc
FNDA:0,_ZNKSt7__cxx1112basic_stringIcSt11char_traitsIcESaIcEE11_M_disjunctEPKc
FN:354,_ZNSt7__cxx1112basic_stringIcSt11char_traitsIcESaIcEE7_S_copyEPcPKcm
FNDA:0,_ZNSt7__cxx1112basic_stringIcSt11char_traitsIcESaIcEE7_S_copyEPcPKcm
FN:363,_ZNSt7__cxx1112basic_stringIcSt11char_traitsIcESaIcEE7_S_moveEPcPKcm
FNDA:0,_ZNSt7__cxx1112basic_stringIcSt11char_traitsIcESaIcEE7_S_moveEPcPKcm
FN:400,_ZNSt7__cxx1112basic_stringIcSt11char_traitsIcESaIcEE13_S_copy_charsEPcS5_S5_
FNDA:0,_ZNSt7__cxx1112basic_stringIcSt11char_traitsIcESaIcEE13_S_copy_charsEPcS5_S5_
FN:439,_ZNSt7__cxx1112basic_stringIcSt11char_traitsIcESaIcEEC2Ev
FNDA:0,_ZNSt7__cxx1112basic_stringIcSt11char_traitsIcESaIcEEC2Ev
FN:456,_ZNSt7__cxx1112basic_stringIcSt11char_traitsIcESaIcEEC2ERKS4_
FNDA:0,_ZNSt7__cxx1112basic_stringIcSt11char_traitsIcESaIcEEC2ERKS4_
FN:671,_ZNSt7__cxx1112basic_stringIcSt11char_traitsIcESaIcEED2Ev
FNDA:0,_ZNSt7__cxx1112basic_stringIcSt11char_traitsIcESaIcEED2Ev
FN:689,_ZNSt7__cxx1112basic_stringIcSt11char_traitsIcESaIcEEaSEPKc
FNDA:0,_ZNSt7__cxx1112basic_stringIcSt11char_traitsIcESaIcEEaSEPKc
FN:717,_ZNSt7__cxx1112basic_stringIcSt11char_traitsIcESaIcEEaSEOS4_
FNDA:3,_ZNSt7__cxx1112basic_stringIcSt11char_traitsIcESaIcEEaSEOS4_
FN:920,_ZNKSt7__cxx1112basic_stringIcSt11char_traitsIcESaIcEE4sizeEv
FNDA:0,_ZNKSt7__cxx1112basic_stringIcSt11char_traitsIcESaIcEE4sizeEv
FN:926,_ZNKSt7__cxx1112basic_stringIcSt11char_traitsIcESaIcEE6lengthEv
FNDA:0,_ZNKSt7__cxx1112basic_stringIcSt11char_traitsIcESaIcEE6lengthEv
FN:931,_ZNKSt7__cxx1112basic_stringIcSt11char_traitsIcESaIcEE8max_sizeEv
FNDA:0,_ZNKSt7__cxx1112basic_stringIcSt11char_traitsIcESaIcEE8max_sizeEv
FN:976,_ZNKSt7__cxx1112basic_stringIcSt11char_traitsIcESaIcEE8capacityEv
FNDA:0,_ZNKSt7__cxx1112basic_stringIcSt11char_traitsIcESaIcEE8capacityEv
FN:1015,_ZNSt7__cxx1112basic_stringIcSt11char_traitsIcESaIcEE5clearEv
FNDA:3,_ZNSt7__cxx1112basic_stringIcSt11char_traitsIcESaIcEE5clearEv
FN:1356,_ZNSt7__cxx1112basic_stringIcSt11char_traitsIcESaIcEE6assignERKS4_
FNDA:0,_ZNSt7__cxx1112basic_stringIcSt11char_traitsIcESaIcEE6assignERKS4_
FN:1456,_ZNSt7__cxx1112basic_stringIcSt11char_traitsIcESaIcEE6assignEPKc
FNDA:0,_ZNSt7__cxx1112basic_stringIcSt11char_traitsIcESaIcEE6assignEPKc
FN:2320,_ZNKSt7__cxx1112basic_stringIcSt11char_traitsIcESaIcEE5c_strEv
FNDA:0,_ZNKSt7__cxx1112basic_stringIcSt11char_traitsIcESaIcEE5c_strEv
DA:167,0
DA:168,0
DA:186,0
DA:187,0
DA:190,0
DA:191,0
DA:194,0
DA:195,0
DA:198,0
DA:201,0
DA:208,0
DA:211,0
DA:218,0
DA:219,0
DA:222,0
DA:224,0
DA:225,0
DA:226,0
DA:229,0
DA:230,0
DA:237,0
DA:239,0
DA:240,0
DA:241,0
DA:244,0
DA:245,0
DA:251,0
DA:255,0
DA:256,0
DA:271,0
DA:274,0
DA:275,0
DA:294,0
DA:295,0
DA:298,0
DA:299,0
DA:328,0
DA:330,0
DA:331,0
DA:332,0
DA:345,0
DA:347,0
DA:348,0
DA:354,0
DA:356,0
DA:357,0
DA:359,0
DA:360,0
DA:363,0
DA:365,0
DA:366,0
DA:368,0
DA:369,0
DA:400,0
DA:401,0
DA:439,0
DA:441,0
DA:442,0
DA:456,0
DA:457,0
DA:458,0
DA:459,0
DA:671,0
DA:672,0
DA:689,0
DA:690,0
DA:717,3
DA:720,3
DA:721,0
DA:722,3
DA:725,0
DA:726,0
DA:727,0
DA:730,3
DA:732,3
DA:737,0
DA:739,0
DA:740,0
DA:741,0
DA:744,3
DA:745,0
DA:746,3
DA:749,3
DA:751,3
DA:753,0
DA:756,0
DA:757,0
DA:760,0
DA:763,3
DA:764,3
DA:765,3
DA:766,3
DA:768,0
DA:769,0
DA:772,3
DA:775,0
DA:776,3
DA:777,3
DA:920,0
DA:921,0
DA:926,0
DA:927,0
DA:931,0
DA:932,0
DA:976,0
DA:978,0
DA:979,0
DA:1015,3
DA:1016,3
DA:1356,0
DA:1359,0
DA:1361,0
DA:1362,0
DA:1366,0
DA:1368,0
DA:1369,0
DA:1370,0
DA:1374,0
DA:1375,0
DA:1377,0
DA:1378,0
DA:1379,0
DA:1380,0
DA:1381,0
DA:1382,0
DA:1384,0
DA:1387,0
DA:1388,0
DA:1456,0
DA:1459,0
DA:1460,0
DA:2320,0
DA:2321,0
end_of_record
SF:/usr/include/c++/11/bits/deque.tcc
FN:859,_ZNSt5dequeI12loggerRecordSaIS0_EE19_M_destroy_data_auxESt15_Deque_iteratorIS0_RS0_PS0_ES6_
FNDA:6,_ZNSt5dequeI12loggerRecordSaIS0_EE19_M_destroy_data_auxESt15_Deque_iteratorIS0_RS0_PS0_ES6_
DA:859,6
DA:862,6
DA:863,6
DA:864,0
DA:865,0
DA:867,6
DA:869,0
DA:870,0
DA:871,0
DA:872,0
DA:875,6
DA:876,6
DA:877,6
end_of_record
SF:/usr/include/c++/11/bits/char_traits.h
FN:106,_ZN9__gnu_cxx11char_traitsIcE2eqERKcS3_
FNDA:0,_ZN9__gnu_cxx11char_traitsIcE2eqERKcS3_
FN:167,_ZN9__gnu_cxx11char_traitsIcE6lengthEPKc
FNDA:0,_ZN9__gnu_cxx11char_traitsIcE6lengthEPKc
FN:190,_ZN9__gnu_cxx11char_traitsIcE4moveEPcPKcm
FNDA:0,_ZN9__gnu_cxx11char_traitsIcE4moveEPcPKcm
FN:240,_ZN9__gnu_cxx11char_traitsIcE4copyEPcPKcm
FNDA:0,_ZN9__gnu_cxx11char_traitsIcE4copyEPcPKcm
FN:356,_ZNSt11char_traitsIcE6assignERcRKc
FNDA:0,_ZNSt11char_traitsIcE6assignERcRKc
FN:393,_ZNSt11char_traitsIcE6lengthEPKc
FNDA:0,_ZNSt11char_traitsIcE6lengthEPKc
FN:417,_ZNSt11char_traitsIcE4moveEPcPKcm
FNDA:0,_ZNSt11char_traitsIcE4moveEPcPKcm
FN:429,_ZNSt11char_traitsIcE4copyEPcPKcm
FNDA:0,_ZNSt11char_traitsIcE4copyEPcPKcm
DA:106,0
DA:107,0
DA:167,0
DA:170,0
DA:171,0
DA:172,0
DA:173,0
DA:190,0
DA:193,0
DA:194,0
DA:196,0
DA:198,0
DA:199,0
DA:203,0
DA:204,0
DA:205,0
DA:206,0
DA:230,0
DA:233,0
DA:234,0
DA:240,0
DA:244,0
DA:245,0
DA:290,0
DA:356,0
DA:357,0
DA:393,0
DA:396,0
DA:397,0
DA:399,0
DA:417,0
DA:419,0
DA:420,0
DA:422,0
DA:423,0
DA:425,0
DA:429,0
DA:431,0
DA:432,0
DA:434,0
DA:435,0
DA:437,0
end_of_record
SF:/usr/include/c++/11/bits/stl_uninitialized.h
FN:108,_ZNSt20__uninitialized_copyILb1EE13__uninit_copyIN9__gnu_cxx17__normal_iteratorIPKcSt6vectorIcSaIcEEEEPcEET0_T_SC_SB_
FNDA:33,_ZNSt20__uninitialized_copyILb1EE13__uninit_copyIN9__gnu_cxx17__normal_iteratorIPKcSt6vectorIcSaIcEEEEPcEET0_T_SC_SB_
FN:126,_ZSt18uninitialized_copyIN9__gnu_cxx17__normal_iteratorIPKcSt6vectorIcSaIcEEEEPcET0_T_SA_S9_
FNDA:33,_ZSt18uninitialized_copyIN9__gnu_cxx17__normal_iteratorIPKcSt6vectorIcSaIcEEEEPcET0_T_SA_S9_
FN:331,_ZSt22__uninitialized_copy_aIN9__gnu_cxx17__normal_iteratorIPKcSt6vectorIcSaIcEEEEPccET0_T_SA_S9_RSaIT1_E
FNDA:33,_ZSt22__uninitialized_copy_aIN9__gnu_cxx17__normal_iteratorIPKcSt6vectorIcSaIcEEEEPccET0_T_SA_S9_RSaIT1_E
FN:595,_ZNSt27__uninitialized_default_n_1ILb1EE18__uninit_default_nIPcmEET_S3_T0_
FNDA:0,_ZNSt27__uninitialized_default_n_1ILb1EE18__uninit_default_nIPcmEET_S3_T0_
FN:630,_ZSt25__uninitialized_default_nIPcmET_S1_T0_
FNDA:0,_ZSt25__uninitialized_default_nIPcmET_S1_T0_
FN:702,_ZSt27__uninitialized_default_n_aIPcmcET_S1_T0_RSaIT1_E
FNDA:0,_ZSt27__uninitialized_default_n_aIPcmcET_S1_T0_RSaIT1_E
FN:1006,_ZSt14__relocate_a_1IccENSt9enable_ifIXsrSt24__is_bitwise_relocatableIT_vE5valueEPS2_E4typeES4_S4_S4_RSaIT0_E
FNDA:6,_ZSt14__relocate_a_1IccENSt9enable_ifIXsrSt24__is_bitwise_relocatableIT_vE5valueEPS2_E4typeES4_S4_S4_RSaIT0_E
FN:1040,_ZSt12__relocate_aIPcS0_SaIcEET0_T_S3_S2_RT1_
FNDA:6,_ZSt12__relocate_aIPcS0_SaIcEET0_T_S3_S2_RT1_
DA:108,33
DA:110,33
DA:126,33
DA:145,33
DA:151,33
DA:331,33
DA:333,33
DA:595,0
DA:597,0
DA:600,0
DA:601,0
DA:602,0
DA:603,0
DA:605,0
DA:630,0
DA:635,0
DA:640,0
DA:702,0
DA:704,0
DA:1006,6
DA:1009,6
DA:1010,6
DA:1011,0
DA:1012,6
DA:1040,6
DA:1046,6
DA:1048,6
end_of_record
SF:/usr/include/c++/11/bits/alloc_traits.h
FN:463,_ZNSt16allocator_traitsISaI12loggerRecordEE8allocateERS1_m
FNDA:3,_ZNSt16allocator_traitsISaI12loggerRecordEE8allocateERS1_m
FN:463,_ZNSt16allocator_traitsISaIP12loggerRecordEE8allocateERS2_m
FNDA:3,_ZNSt16allocator_traitsISaIP12loggerRecordEE8allocateERS2_m
FN:463,_ZNSt16allocator_traitsISaIcEE8allocateERS0_m
FNDA:0,_ZNSt16allocator_traitsISaIcEE8allocateERS0_m
FN:495,_ZNSt16allocator_traitsISaI12loggerRecordEE10deallocateERS1_PS0_m
FNDA:3,_ZNSt16allocator_traitsISaI12loggerRecordEE10deallocateERS1_PS0_m
FN:495,_ZNSt16allocator_traitsISaIP12loggerRecordEE10deallocateERS2_PS1_m
FNDA:3,_ZNSt16allocator_traitsISaIP12loggerRecordEE10deallocateERS2_PS1_m
FN:495,_ZNSt16allocator_traitsISaIcEE10deallocateERS0_Pcm
FNDA:0,_ZNSt16allocator_traitsISaIcEE10deallocateERS0_Pcm
FN:547,_ZNSt16allocator_traitsISaIcEE8max_sizeERKS0_
FNDA:0,_ZNSt16allocator_traitsISaIcEE8max_sizeERKS0_
FN:562,_ZNSt16allocator_traitsISaIcEE37select_on_container_copy_constructionERKS0_
FNDA:0,_ZNSt16allocator_traitsISaIcEE37select_on_container_copy_constructionERKS0_
FN:678,_ZSt15__alloc_on_copyISaIcEEvRT_RKS1_
FNDA:0,_ZSt15__alloc_on_copyISaIcEEvRT_RKS1_
FN:710,_ZSt15__alloc_on_moveISaIcEEvRT_S2_
FNDA:3,_ZSt15__alloc_on_moveISaIcEEvRT_S2_
FN:845,_ZSt8_DestroyIP12loggerRecordS0_EvT_S2_RSaIT0_E
FNDA:6,_ZSt8_DestroyIP12loggerRecordS0_EvT_S2_RSaIT0_E
FN:845,_ZSt8_DestroyIPccEvT_S1_RSaIT0_E
FNDA:0,_ZSt8_DestroyIPccEvT_S1_RSaIT0_E
DA:463,3
DA:464,3
DA:463,3
DA:464,3
DA:463,0
DA:464,0
DA:495,3
DA:496,3
DA:495,3
DA:496,3
DA:495,0
DA:496,0
DA:547,0
DA:552,0
DA:562,0
DA:563,0
DA:678,0
DA:688,0
DA:710,3
DA:716,3
DA:720,3
DA:845,6
DA:848,6
DA:849,6
DA:845,0
DA:848,0
DA:849,0
end_of_record
SF:/usr/include/c++/11/bits/stl_deque.h
FN:96,_ZSt16__deque_buf_sizem
FNDA:22,_ZSt16__deque_buf_sizem
FN:131,_ZNSt15_Deque_iteratorI12loggerRecordRS0_PS0_E14_S_buffer_sizeEv
FNDA:10,_ZNSt15_Deque_iteratorI12loggerRecordRS0_PS0_E14_S_buffer_sizeEv
FN:151,_ZNSt15_Deque_iteratorI12loggerRecordRS0_PS0_EC2Ev
FNDA:6,_ZNSt15_Deque_iteratorI12loggerRecordRS0_PS0_EC2Ev
FN:168,_ZNSt15_Deque_iteratorI12loggerRecordRS0_PS0_EC2ERKS3_
FNDA:38,_ZNSt15_Deque_iteratorI12loggerRecordRS0_PS0_EC2ERKS3_
FN:260,_ZNSt15_Deque_iteratorI12loggerRecordRS0_PS0_E11_M_set_nodeEPS2_
FNDA:6,_ZNSt15_Deque_iteratorI12loggerRecordRS0_PS0_E11_M_set_nodeEPS2_
FN:436,_ZNSt11_Deque_baseI12loggerRecordSaIS0_EEC2Ev
FNDA:3,_ZNSt11_Deque_baseI12loggerRecordSaIS0_EEC2Ev
FN:494,_ZNSt11_Deque_baseI12loggerRecordSaIS0_EE16_Deque_impl_dataC2Ev
FNDA:3,_ZNSt11_Deque_baseI12loggerRecordSaIS0_EE16_Deque_impl_dataC2Ev
FN:523,_ZNSt11_Deque_baseI12loggerRecordSaIS0_EE11_Deque_implC2Ev
FNDA:3,_ZNSt11_Deque_baseI12loggerRecordSaIS0_EE11_Deque_implC2Ev
FN:546,_ZNSt11_Deque_baseI12loggerRecordSaIS0_EE19_M_get_Tp_allocatorEv
FNDA:23,_ZNSt11_Deque_baseI12loggerRecordSaIS0_EE19_M_get_Tp_allocatorEv
FN:550,_ZNKSt11_Deque_baseI12loggerRecordSaIS0_EE19_M_get_Tp_allocatorEv
FNDA:6,_ZNKSt11_Deque_baseI12loggerRecordSaIS0_EE19_M_get_Tp_allocatorEv
FN:554,_ZNKSt11_Deque_baseI12loggerRecordSaIS0_EE20_M_get_map_allocatorEv
FNDA:6,_ZNKSt11_Deque_baseI12loggerRecordSaIS0_EE20_M_get_map_allocatorEv
FN:558,_ZNSt11_Deque_baseI12loggerRecordSaIS0_EE16_M_allocate_nodeEv
FNDA:3,_ZNSt11_Deque_baseI12loggerRecordSaIS0_EE16_M_allocate_nodeEv
FN:565,_ZNSt11_Deque_baseI12loggerRecordSaIS0_EE18_M_deallocate_nodeEPS0_
FNDA:3,_ZNSt11_Deque_baseI12loggerRecordSaIS0_EE18_M_deallocate_nodeEPS0_
FN:572,_ZNSt11_Deque_baseI12loggerRecordSaIS0_EE15_M_allocate_mapEm
FNDA:3,_ZNSt11_Deque_baseI12loggerRecordSaIS0_EE15_M_allocate_mapEm
FN:579,_ZNSt11_Deque_baseI12loggerRecordSaIS0_EE17_M_deallocate_mapEPPS0_m
FNDA:3,_ZNSt11_Deque_baseI12loggerRecordSaIS0_EE17_M_deallocate_mapEPPS0_m
FN:595,_ZNSt11_Deque_baseI12loggerRecordSaIS0_EED2Ev
FNDA:3,_ZNSt11_Deque_baseI12loggerRecordSaIS0_EED2Ev
FN:616,_ZNSt11_Deque_baseI12loggerRecordSaIS0_EE17_M_initialize_mapEm
FNDA:3,_ZNSt11_Deque_baseI12loggerRecordSaIS0_EE17_M_initialize_mapEm
FN:655,_ZNSt11_Deque_baseI12loggerRecordSaIS0_EE15_M_create_nodesEPPS0_S4_
FNDA:3,_ZNSt11_Deque_baseI12loggerRecordSaIS0_EE15_M_create_nodesEPPS0_S4_
FN:673,_ZNSt11_Deque_baseI12loggerRecordSaIS0_EE16_M_destroy_nodesEPPS0_S4_
FNDA:6,_ZNSt11_Deque_baseI12loggerRecordSaIS0_EE16_M_destroy_nodesEPPS0_S4_
FN:806,_ZNSt5dequeI12loggerRecordSaIS0_EE14_S_buffer_sizeEv
FNDA:0,_ZNSt5dequeI12loggerRecordSaIS0_EE14_S_buffer_sizeEv
FN:833,_ZNSt5dequeI12loggerRecordSaIS0_EEC2Ev
FNDA:3,_ZNSt5dequeI12loggerRecordSaIS0_EEC2Ev
FN:1005,_ZNSt5dequeI12loggerRecordSaIS0_EED2Ev
FNDA:3,_ZNSt5dequeI12loggerRecordSaIS0_EED2Ev
FN:1127,_ZNSt5dequeI12loggerRecordSaIS0_EE5beginEv
FNDA:17,_ZNSt5dequeI12loggerRecordSaIS0_EE5beginEv
FN:1144,_ZNSt5dequeI12loggerRecordSaIS0_EE3endEv
FNDA:6,_ZNSt5dequeI12loggerRecordSaIS0_EE3endEv
FN:2044,_ZNSt5dequeI12loggerRecordSaIS0_EE15_M_destroy_dataESt15_Deque_iteratorIS0_RS0_PS0_ES6_RKS1_
FNDA:6,_ZNSt5dequeI12loggerRecordSaIS0_EE15_M_destroy_dataESt15_Deque_iteratorIS0_RS0_PS0_ES6_RKS1_
DA:96,22
DA:98,22
DA:131,10
DA:132,10
DA:151,6
DA:152,6
DA:168,38
DA:169,38
DA:170,38
DA:260,6
DA:262,6
DA:263,6
DA:264,6
DA:265,6
DA:436,3
DA:437,3
DA:438,3
DA:494,3
DA:495,3
DA:496,3
DA:523,3
DA:525,3
DA:526,3
DA:546,23
DA:547,23
DA:550,6
DA:551,6
DA:554,6
DA:555,6
DA:558,3
DA:561,3
DA:565,3
DA:568,3
DA:569,3
DA:572,3
DA:574,3
DA:575,6
DA:576,3
DA:579,3
DA:581,3
DA:582,3
DA:583,3
DA:595,3
DA:598,3
DA:600,3
DA:601,3
DA:602,3
DA:604,3
DA:616,3
DA:619,3
DA:622,6
DA:623,3
DA:624,3
DA:631,3
DA:632,3
DA:633,3
DA:636,3
DA:637,0
DA:639,0
DA:640,0
DA:641,0
DA:642,0
DA:645,3
DA:646,3
DA:647,3
DA:648,6
DA:649,3
DA:650,3
DA:651,3
DA:655,3
DA:661,6
DA:662,3
DA:664,0
DA:666,0
DA:667,0
DA:669,3
DA:673,6
DA:677,9
DA:678,3
DA:679,6
DA:806,0
DA:807,0
DA:833,3
DA:1005,3
DA:1006,3
DA:1127,17
DA:1128,17
DA:1144,6
DA:1145,6
DA:2044,6
DA:2048,6
DA:2049,6
end_of_record
SF:/usr/include/c++/11/bits/stl_iterator.h
FN:1010,_ZN9__gnu_cxx17__normal_iteratorIPKcSt6vectorIcSaIcEEEC2ERKS2_
FNDA:66,_ZN9__gnu_cxx17__normal_iteratorIPKcSt6vectorIcSaIcEEEC2ERKS2_
FN:1088,_ZNK9__gnu_cxx17__normal_iteratorIPKcSt6vectorIcSaIcEEE4baseEv
FNDA:66,_ZNK9__gnu_cxx17__normal_iteratorIPKcSt6vectorIcSaIcEEE4baseEv
FN:1257,_ZSt12__niter_baseIPKcSt6vectorIcSaIcEEET_N9__gnu_cxx17__normal_iteratorIS5_T0_EE
FNDA:66,_ZSt12__niter_baseIPKcSt6vectorIcSaIcEEET_N9__gnu_cxx17__normal_iteratorIS5_T0_EE
DA:1010,66
DA:1011,66
DA:1088,66
DA:1089,66
DA:1257,66
DA:1259,66
end_of_record
SF:/usr/include/c++/11/bits/stl_algobase.h
FN:230,_ZSt3minImERKT_S2_S2_
FNDA:0,_ZSt3minImERKT_S2_S2_
FN:254,_ZSt3maxImERKT_S2_S2_
FNDA:25,_ZSt3maxImERKT_S2_S2_
FN:313,_ZSt12__niter_baseIPcET_S1_
FNDA:0,_ZSt12__niter_baseIPcET_S1_
FN:313,_ZSt12__niter_baseIPKcET_S2_
FNDA:0,_ZSt12__niter_baseIPKcET_S2_
FN:335,_ZSt12__niter_wrapIPcET_RKS1_S1_
FNDA:0,_ZSt12__niter_wrapIPcET_RKS1_S1_
FN:380,_ZNSt11__copy_moveILb0ELb0ESt26random_access_iterator_tagE8__copy_mIPKcPcEET0_T_S7_S6_
FNDA:0,_ZNSt11__copy_moveILb0ELb0ESt26random_access_iterator_tagE8__copy_mIPKcPcEET0_T_S7_S6_
FN:420,_ZNSt11__copy_moveILb0ELb1ESt26random_access_iterator_tagE8__copy_mIcEEPT_PKS3_S6_S4_
FNDA:0,_ZNSt11__copy_moveILb0ELb1ESt26random_access_iterator_tagE8__copy_mIcEEPT_PKS3_S6_S4_
FN:486,_ZSt14__copy_move_a2ILb0EPKcPcET1_T0_S4_S3_
FNDA:0,_ZSt14__copy_move_a2ILb0EPKcPcET1_T0_S4_S3_
FN:521,_ZSt14__copy_move_a1ILb0EPKcPcET1_T0_S4_S3_
FNDA:0,_ZSt14__copy_move_a1ILb0EPKcPcET1_T0_S4_S3_
FN:527,_ZSt13__copy_move_aILb0EN9__gnu_cxx17__normal_iteratorIPKcSt6vectorIcSaIcEEEEPcET1_T0_SA_S9_
FNDA:33,_ZSt13__copy_move_aILb0EN9__gnu_cxx17__normal_iteratorIPKcSt6vectorIcSaIcEEEEPcET1_T0_SA_S9_
FN:527,_ZSt13__copy_move_aILb0EPKcPcET1_T0_S4_S3_
FNDA:0,_ZSt13__copy_move_aILb0EPKcPcET1_T0_S4_S3_
FN:611,_ZSt4copyIN9__gnu_cxx17__normal_iteratorIPKcSt6vectorIcSaIcEEEEPcET0_T_SA_S9_
FNDA:33,_ZSt4copyIN9__gnu_cxx17__normal_iteratorIPKcSt6vectorIcSaIcEEEEPcET0_T_SA_S9_
FN:611,_ZSt4copyIPKcPcET0_T_S4_S3_
FNDA:0,_ZSt4copyIPKcPcET0_T_S4_S3_
FN:932,_ZSt9__fill_a1IcEN9__gnu_cxx11__enable_ifIXsrSt9__is_byteIT_E7__valueEvE6__typeEPS3_S7_RKS3_
FNDA:0,_ZSt9__fill_a1IcEN9__gnu_cxx11__enable_ifIXsrSt9__is_byteIT_E7__valueEvE6__typeEPS3_S7_RKS3_
FN:968,_ZSt8__fill_aIPccEvT_S1_RKT0_
FNDA:0,_ZSt8__fill_aIPccEvT_S1_RKT0_
FN:1010,_ZSt17__size_to_integerm
FNDA:0,_ZSt17__size_to_integerm
FN:1109,_ZSt10__fill_n_aIPcmcET_S1_T0_RKT1_St26random_access_iterator_tag
FNDA:0,_ZSt10__fill_n_aIPcmcET_S1_T0_RKT1_St26random_access_iterator_tag
FN:1144,_ZSt6fill_nIPcmcET_S1_T0_RKT1_
FNDA:0,_ZSt6fill_nIPcmcET_S1_T0_RKT1_
DA:230,0
DA:235,0
DA:236,0
DA:237,0
DA:254,25
DA:259,25
DA:260,16
DA:261,9
DA:313,0
DA:315,0
DA:313,0
DA:315,0
DA:335,0
DA:336,0
DA:380,0
DA:383,0
DA:385,0
DA:386,0
DA:387,0
DA:389,0
DA:420,0
DA:429,0
DA:430,0
DA:431,0
DA:432,0
DA:486,0
DA:490,0
DA:492,0
DA:495,0
DA:521,0
DA:522,0
DA:527,33
DA:529,33
DA:532,33
DA:527,0
DA:529,0
DA:532,0
DA:611,33
DA:620,33
DA:611,0
DA:620,0
DA:932,0
DA:934,0
DA:936,0
DA:938,0
DA:939,0
DA:940,0
DA:943,0
DA:944,0
DA:968,0
DA:969,0
DA:1010,0
DA:1109,0
DA:1115,0
DA:1116,0
DA:1120,0
DA:1121,0
DA:1144,0
DA:1149,0
DA:1150,0
end_of_record
SF:/usr/include/c++/11/bits/std_mutex.h
FN:65,_ZNSt12__mutex_baseC2Ev
FNDA:6,_ZNSt12__mutex_baseC2Ev
FN:91,_ZNSt5mutexC2Ev
FNDA:6,_ZNSt5mutexC2Ev
DA:65,6
DA:91,6
end_of_record
SF:/usr/include/c++/11/bits/shared_ptr_base.h
FN:984,_ZNKSt19__shared_ptr_accessI12loggerConfigLN9__gnu_cxx12_Lock_policyE2ELb0ELb0EEptEv
FNDA:6,_ZNKSt19__shared_ptr_accessI12loggerConfigLN9__gnu_cxx12_Lock_policyE2ELb0ELb0EEptEv
FN:992,_ZNKSt19__shared_ptr_accessI12loggerConfigLN9__gnu_cxx12_Lock_policyE2ELb0ELb0EE6_M_getEv
FNDA:6,_ZNKSt19__shared_ptr_accessI12loggerConfigLN9__gnu_cxx12_Lock_policyE2ELb0ELb0EE6_M_getEv
FN:1295,_ZNKSt12__shared_ptrI12loggerConfigLN9__gnu_cxx12_Lock_policyE2EE3getEv
FNDA:6,_ZNKSt12__shared_ptrI12loggerConfigLN9__gnu_cxx12_Lock_policyE2EE3getEv
DA:984,6
DA:987,6
DA:992,6
DA:993,6
DA:1295,6
DA:1296,6
end_of_record
SF:/usr/include/c++/11/tuple
FN:80,_ZNSt10_Head_baseILm1ESt14default_deleteINSt6thread6_StateEELb1EEC2Ev
FNDA:3,_ZNSt10_Head_baseILm1ESt14default_deleteINSt6thread6_StateEELb1EEC2Ev
FN:124,_ZNSt10_Head_baseILm1ESt14default_deleteINSt6thread6_StateEELb1EE7_M_headERS4_
FNDA:0,_ZNSt10_Head_baseILm1ESt14default_deleteINSt6thread6_StateEELb1EE7_M_headERS4_
FN:189,_ZNSt10_Head_baseILm0EPNSt6thread6_StateELb0EEC2Ev
FNDA:3,_ZNSt10_Head_baseILm0EPNSt6thread6_StateELb0EEC2Ev
FN:199,_ZNSt10_Head_baseILm0EZN12vpgnixlogger10InitializeESt10shared_ptrI12loggerConfigEEUlvE_Lb0EEC2IS4_EEOT_
FNDA:3,_ZNSt10_Head_baseILm0EZN12vpgnixlogger10InitializeESt10shared_ptrI12loggerConfigEEUlvE_Lb0EEC2IS4_EEOT_
FN:233,_ZNSt10_Head_baseILm0EZN12vpgnixlogger10InitializeESt10shared_ptrI12loggerConfigEEUlvE_Lb0EE7_M_headERS5_
FNDA:3,_ZNSt10_Head_baseILm0EZN12vpgnixlogger10InitializeESt10shared_ptrI12loggerConfigEEUlvE_Lb0EE7_M_headERS5_
FN:233,_ZNSt10_Head_baseILm0EPNSt6thread6_StateELb0EE7_M_headERS3_
FNDA:6,_ZNSt10_Head_baseILm0EPNSt6thread6_StateELb0EE7_M_headERS3_
FN:268,_ZNSt11_Tuple_implILm0EJPNSt6thread6_StateESt14default_deleteIS1_EEE7_M_headERS5_
FNDA:6,_ZNSt11_Tuple_implILm0EJPNSt6thread6_StateESt14default_deleteIS1_EEE7_M_headERS5_
FN:279,_ZNSt11_Tuple_implILm0EJPNSt6thread6_StateESt14default_deleteIS1_EEEC2Ev
FNDA:3,_ZNSt11_Tuple_implILm0EJPNSt6thread6_StateESt14default_deleteIS1_EEEC2Ev
FN:424,_ZNSt11_Tuple_implILm0EJZN12vpgnixlogger10InitializeESt10shared_ptrI12loggerConfigEEUlvE_EE7_M_headERS5_
FNDA:3,_ZNSt11_Tuple_implILm0EJZN12vpgnixlogger10InitializeESt10shared_ptrI12loggerConfigEEUlvE_EE7_M_headERS5_
FN:424,_ZNSt11_Tuple_implILm1EJSt14default_deleteINSt6thread6_StateEEEE7_M_headERS4_
FNDA:0,_ZNSt11_Tuple_implILm1EJSt14default_deleteINSt6thread6_StateEEEE7_M_headERS4_
FN:430,_ZNSt11_Tuple_implILm1EJSt14default_deleteINSt6thread6_StateEEEEC2Ev
FNDA:3,_ZNSt11_Tuple_implILm1EJSt14default_deleteINSt6thread6_StateEEEEC2Ev
FN:440,_ZNSt11_Tuple_implILm0EJZN12vpgnixlogger10InitializeESt10shared_ptrI12loggerConfigEEUlvE_EEC2IS4_EEOT_
FNDA:3,_ZNSt11_Tuple_implILm0EJZN12vpgnixlogger10InitializeESt10shared_ptrI12loggerConfigEEUlvE_EEC2IS4_EEOT_
FN:746,_ZNSt5tupleIJZN12vpgnixlogger10InitializeESt10shared_ptrI12loggerConfigEEUlvE_EEC2IJS4_ELb1ELb1EEEDpOT_
FNDA:3,_ZNSt5tupleIJZN12vpgnixlogger10InitializeESt10shared_ptrI12loggerConfigEEUlvE_EEC2IJS4_ELb1ELb1EEEDpOT_
FN:1053,_ZNSt5tupleIJPNSt6thread6_StateESt14default_deleteIS1_EEEC2ILb1ELb1EEEv
FNDA:3,_ZNSt5tupleIJPNSt6thread6_StateESt14default_deleteIS1_EEEC2ILb1ELb1EEEv
FN:1381,_ZSt12__get_helperILm1ESt14default_deleteINSt6thread6_StateEEJEERT0_RSt11_Tuple_implIXT_EJS4_DpT1_EE
FNDA:0,_ZSt12__get_helperILm1ESt14default_deleteINSt6thread6_StateEEJEERT0_RSt11_Tuple_implIXT_EJS4_DpT1_EE
FN:1381,_ZSt12__get_helperILm0EPNSt6thread6_StateEJSt14default_deleteIS1_EEERT0_RSt11_Tuple_implIXT_EJS5_DpT1_EE
FNDA:6,_ZSt12__get_helperILm0EPNSt6thread6_StateEJSt14default_deleteIS1_EEERT0_RSt11_Tuple_implIXT_EJS5_DpT1_EE
FN:1381,_ZSt12__get_helperILm0EZN12vpgnixlogger10InitializeESt10shared_ptrI12loggerConfigEEUlvE_JEERT0_RSt11_Tuple_implIXT_EJS5_DpT1_EE
FNDA:3,_ZSt12__get_helperILm0EZN12vpgnixlogger10InitializeESt10shared_ptrI12loggerConfigEEUlvE_JEERT0_RSt11_Tuple_implIXT_EJS5_DpT1_EE
FN:1397,_ZSt3getILm1EJPNSt6thread6_StateESt14default_deleteIS1_EEERNSt13tuple_elementIXT_ESt5tupleIJDpT0_EEE4typeERS9_
FNDA:0,_ZSt3getILm1EJPNSt6thread6_StateESt14default_deleteIS1_EEERNSt13tuple_elementIXT_ESt5tupleIJDpT0_EEE4typeERS9_
FN:1397,_ZSt3getILm0EJPNSt6thread6_StateESt14default_deleteIS1_EEERNSt13tuple_elementIXT_ESt5tupleIJDpT0_EEE4typeERS9_
FNDA:6,_ZSt3getILm0EJPNSt6thread6_StateESt14default_deleteIS1_EEERNSt13tuple_elementIXT_ESt5tupleIJDpT0_EEE4typeERS9_
FN:1409,_ZSt3getILm0EJZN12vpgnixlogger10InitializeESt10shared_ptrI12loggerConfigEEUlvE_EEONSt13tuple_elementIXT_ESt5tupleIJDpT0_EEE4typeEOS9_
FNDA:3,_ZSt3getILm0EJZN12vpgnixlogger10InitializeESt10shared_ptrI12loggerConfigEEUlvE_EEONSt13tuple_elementIXT_ESt5tupleIJDpT0_EEE4typeEOS9_
DA:80,3
DA:81,3
DA:124,0
DA:189,3
DA:190,3
DA:199,3
DA:200,3
DA:233,3
DA:233,6
DA:268,6
DA:279,3
DA:280,3
DA:424,3
DA:424,0
DA:430,3
DA:431,3
DA:440,3
DA:441,3
DA:442,3
DA:746,3
DA:748,3
DA:1053,3
DA:1055,3
DA:1381,3
DA:1382,3
DA:1381,0
DA:1382,0
DA:1381,6
DA:1382,6
DA:1397,0
DA:1398,0
DA:1397,6
DA:1398,6
DA:1409,3
DA:1412,3
end_of_record
SF:/usr/include/c++/11/ext/alloc_traits.h
FN:97,_ZN9__gnu_cxx14__alloc_traitsISaIcEcE17_S_select_on_copyERKS1_
FNDA:0,_ZN9__gnu_cxx14__alloc_traitsISaIcEcE17_S_select_on_copyERKS1_
FN:103,_ZN9__gnu_cxx14__alloc_traitsISaIcEcE27_S_propagate_on_copy_assignEv
FNDA:0,_ZN9__gnu_cxx14__alloc_traitsISaIcEcE27_S_propagate_on_copy_assignEv
FN:106,_ZN9__gnu_cxx14__alloc_traitsISaIcEcE27_S_propagate_on_move_assignEv
FNDA:3,_ZN9__gnu_cxx14__alloc_traitsISaIcEcE27_S_propagate_on_move_assignEv
FN:112,_ZN9__gnu_cxx14__alloc_traitsISaIcEcE15_S_always_equalEv
FNDA:0,_ZN9__gnu_cxx14__alloc_traitsISaIcEcE15_S_always_equalEv
DA:97,0
DA:98,0
DA:103,0
DA:104,0
DA:106,3
DA:107,3
DA:112,0
DA:113,0
end_of_record
SF:/usr/include/c++/11/type_traits
FN:3418,_ZSt21is_constant_evaluatedv
FNDA:0,_ZSt21is_constant_evaluatedv
DA:3418,0
DA:3419,0
end_of_record
SF:/usr/include/c++/11/bits/stl_construct.h
FN:80,_ZSt10destroy_atI12loggerRecordEvPT_
FNDA:11,_ZSt10destroy_atI12loggerRecordEvPT_
FN:80,_ZSt10destroy_atIcEvPT_
FNDA:0,_ZSt10destroy_atIcEvPT_
FN:109,_ZSt10_ConstructIcJEEvPT_DpOT0_
FNDA:0,_ZSt10_ConstructIcJEEvPT_DpOT0_
FN:146,_ZSt8_DestroyI12loggerRecordEvPT_
FNDA:0,_ZSt8_DestroyI12loggerRecordEvPT_
FN:146,_ZSt8_DestroyIcEvPT_
FNDA:0,_ZSt8_DestroyIcEvPT_
FN:160,_ZNSt12_Destroy_auxILb0EE9__destroyIP12loggerRecordEEvT_S4_
FNDA:6,_ZNSt12_Destroy_auxILb0EE9__destroyIP12loggerRecordEEvT_S4_
FN:160,_ZNSt12_Destroy_auxILb0EE9__destroyIPcEEvT_S3_
FNDA:0,_ZNSt12_Destroy_auxILb0EE9__destroyIPcEEvT_S3_
FN:172,_ZNSt12_Destroy_auxILb1EE9__destroyIPcEEvT_S3_
FNDA:0,_ZNSt12_Destroy_auxILb1EE9__destroyIPcEEvT_S3_
FN:182,_ZSt8_DestroyIP12loggerRecordEvT_S2_
FNDA:6,_ZSt8_DestroyIP12loggerRecordEvT_S2_
FN:182,_ZSt8_DestroyIPcEvT_S1_
FNDA:0,_ZSt8_DestroyIPcEvT_S1_
DA:80,11
DA:88,11
DA:89,11
DA:80,0
DA:88,0
DA:89,0
DA:109,0
DA:119,0
DA:146,0
DA:149,0
DA:153,0
DA:146,0
DA:149,0
DA:153,0
DA:160,6
DA:162,6
DA:163,0
DA:164,6
DA:160,0
DA:162,0
DA:163,0
DA:164,0
DA:172,0
DA:182,6
DA:192,6
DA:193,0
DA:196,6
DA:182,0
DA:192,0
DA:193,0
DA:196,0
end_of_record
SF:/usr/include/c++/11/ext/type_traits.h
FN:152,_ZN9__gnu_cxx17__is_null_pointerIcEEbPT_
FNDA:0,_ZN9__gnu_cxx17__is_null_pointerIcEEbPT_
DA:152,0
DA:153,0
end_of_record
SF:/usr/include/c++/11/bits/vector.tcc
FN:611,_ZNSt6vectorIcSaIcEE17_M_default_appendEm
FNDA:6,_ZNSt6vectorIcSaIcEE17_M_default_appendEm
DA:611,6
DA:614,6
DA:616,6
DA:617,6
DA:618,6
DA:620,6
DA:621,0
DA:623,6
DA:626,0
DA:627,0
DA:628,0
DA:634,6
DA:635,6
DA:640,6
DA:641,6
DA:643,0
DA:645,0
DA:646,0
DA:648,6
DA:649,6
DA:675,6
DA:676,6
DA:677,6
DA:678,6
DA:679,6
DA:680,6
DA:683,6
end_of_record
SF:/usr/include/c++/11/new
FN:174,_ZnwmPv
FNDA:0,_ZnwmPv
DA:174,0
DA:175,0
end_of_record
SF:/usr/include/c++/11/bits/allocator.h
FN:156,_ZNSaI12loggerRecordEC2Ev
FNDA:3,_ZNSaI12loggerRecordEC2Ev
FN:169,_ZNSaIP12loggerRecordEC2IS_EERKSaIT_E
FNDA:6,_ZNSaIP12loggerRecordEC2IS_EERKSaIT_E
FN:174,_ZNSaIP12loggerRecordED2Ev
FNDA:6,_ZNSaIP12loggerRecordED2Ev
FN:174,_ZNSaI12loggerRecordED2Ev
FNDA:3,_ZNSaI12loggerRecordED2Ev
FN:204,_ZSteqRKSaIcES1_
FNDA:0,_ZSteqRKSaIcES1_
DA:156,3
DA:169,6
DA:174,6
DA:174,3
DA:182,6
DA:183,0
DA:185,6
DA:193,6
DA:195,0
DA:196,0
DA:199,6
DA:204,0
DA:205,0
end_of_record
SF:/home/yackey/projects/waitables/logger/include/loggerRecord.h
FN:12,_ZN12loggerRecordC2Ej
FNDA:11,_ZN12loggerRecordC2Ej
FN:21,_ZN12loggerRecordD0Ev
FNDA:0,_ZN12loggerRecordD0Ev
FN:21,_ZN12loggerRecordD2Ev
FNDA:44,_ZN12loggerRecordD2Ev
DA:12,11
DA:13,11
DA:14,11
DA:15,22
DA:17,11
DA:18,11
DA:21,0
DA:21,44
end_of_record
SF:/usr/include/c++/11/bits/stl_vector.h
FN:97,_ZNSt12_Vector_baseIcSaIcEE17_Vector_impl_dataC2Ev
FNDA:0,_ZNSt12_Vector_baseIcSaIcEE17_Vector_impl_dataC2Ev
FN:131,_ZNSt12_Vector_baseIcSaIcEE12_Vector_implC2Ev
FNDA:11,_ZNSt12_Vector_baseIcSaIcEE12_Vector_implC2Ev
FN:136,_ZNSt12_Vector_baseIcSaIcEE12_Vector_implC2ERKS0_
FNDA:0,_ZNSt12_Vector_baseIcSaIcEE12_Vector_implC2ERKS0_
FN:276,_ZNSt12_Vector_baseIcSaIcEE19_M_get_Tp_allocatorEv
FNDA:0,_ZNSt12_Vector_baseIcSaIcEE19_M_get_Tp_allocatorEv
FN:280,_ZNKSt12_Vector_baseIcSaIcEE19_M_get_Tp_allocatorEv
FNDA:57,_ZNKSt12_Vector_baseIcSaIcEE19_M_get_Tp_allocatorEv
FN:288,_ZNSt12_Vector_baseIcSaIcEEC2Ev
FNDA:11,_ZNSt12_Vector_baseIcSaIcEEC2Ev
FN:303,_ZNSt12_Vector_baseIcSaIcEEC2EmRKS0_
FNDA:0,_ZNSt12_Vector_baseIcSaIcEEC2EmRKS0_
FN:333,_ZNSt12_Vector_baseIcSaIcEED2Ev
FNDA:0,_ZNSt12_Vector_baseIcSaIcEED2Ev
FN:343,_ZNSt12_Vector_baseIcSaIcEE11_M_allocateEm
FNDA:0,_ZNSt12_Vector_baseIcSaIcEE11_M_allocateEm
FN:350,_ZNSt12_Vector_baseIcSaIcEE13_M_deallocateEPcm
FNDA:0,_ZNSt12_Vector_baseIcSaIcEE13_M_deallocateEPcm
FN:359,_ZNSt12_Vector_baseIcSaIcEE17_M_create_storageEm
FNDA:0,_ZNSt12_Vector_baseIcSaIcEE17_M_create_storageEm
FN:453,_ZNSt6vectorIcSaIcEE14_S_do_relocateEPcS2_S2_RS0_St17integral_constantIbLb1EE
FNDA:6,_ZNSt6vectorIcSaIcEE14_S_do_relocateEPcS2_S2_RS0_St17integral_constantIbLb1EE
FN:465,_ZNSt6vectorIcSaIcEE11_S_relocateEPcS2_S2_RS0_
FNDA:6,_ZNSt6vectorIcSaIcEE11_S_relocateEPcS2_S2_RS0_
FN:487,_ZNSt6vectorIcSaIcEEC2Ev
FNDA:11,_ZNSt6vectorIcSaIcEEC2Ev
FN:510,_ZNSt6vectorIcSaIcEEC2EmRKS0_
FNDA:0,_ZNSt6vectorIcSaIcEEC2EmRKS0_
FN:553,_ZNSt6vectorIcSaIcEEC2ERKS1_
FNDA:33,_ZNSt6vectorIcSaIcEEC2ERKS1_
FN:678,_ZNSt6vectorIcSaIcEED2Ev
FNDA:0,_ZNSt6vectorIcSaIcEED2Ev
FN:820,_ZNKSt6vectorIcSaIcEE5beginEv
FNDA:33,_ZNKSt6vectorIcSaIcEE5beginEv
FN:838,_ZNKSt6vectorIcSaIcEE3endEv
FNDA:33,_ZNKSt6vectorIcSaIcEE3endEv
FN:918,_ZNKSt6vectorIcSaIcEE4sizeEv
FNDA:0,_ZNKSt6vectorIcSaIcEE4sizeEv
FN:923,_ZNKSt6vectorIcSaIcEE8max_sizeEv
FNDA:24,_ZNKSt6vectorIcSaIcEE8max_sizeEv
FN:937,_ZNSt6vectorIcSaIcEE6resizeEm
FNDA:6,_ZNSt6vectorIcSaIcEE6resizeEm
FN:1168,_ZNSt6vectorIcSaIcEE4dataEv
FNDA:0,_ZNSt6vectorIcSaIcEE4dataEv
FN:1603,_ZNSt6vectorIcSaIcEE21_M_default_initializeEm
FNDA:0,_ZNSt6vectorIcSaIcEE21_M_default_initializeEm
FN:1756,_ZNKSt6vectorIcSaIcEE12_M_check_lenEmPKc
FNDA:6,_ZNKSt6vectorIcSaIcEE12_M_check_lenEmPKc
FN:1767,_ZNSt6vectorIcSaIcEE17_S_check_init_lenEmRKS0_
FNDA:0,_ZNSt6vectorIcSaIcEE17_S_check_init_lenEmRKS0_
FN:1776,_ZNSt6vectorIcSaIcEE11_S_max_sizeERKS0_
FNDA:0,_ZNSt6vectorIcSaIcEE11_S_max_sizeERKS0_
FN:1792,_ZNSt6vectorIcSaIcEE15_M_erase_at_endEPc
FNDA:0,_ZNSt6vectorIcSaIcEE15_M_erase_at_endEPc
FN:1844,_ZNKSt6vectorIcSaIcEE11_M_data_ptrIcEEPT_S4_
FNDA:0,_ZNKSt6vectorIcSaIcEE11_M_data_ptrIcEEPT_S4_
DA:97,0
DA:98,0
DA:99,0
DA:131,11
DA:133,11
DA:134,11
DA:136,0
DA:137,0
DA:138,0
DA:276,0
DA:277,0
DA:280,57
DA:281,57
DA:288,11
DA:303,0
DA:304,0
DA:305,0
DA:333,0
DA:335,0
DA:336,0
DA:337,0
DA:343,0
DA:346,0
DA:350,0
DA:353,0
DA:354,0
DA:355,0
DA:359,0
DA:361,0
DA:362,0
DA:363,0
DA:364,0
DA:453,6
DA:456,6
DA:465,6
DA:469,6
DA:487,11
DA:510,0
DA:511,0
DA:512,0
DA:553,33
DA:555,33
DA:557,33
DA:558,33
DA:560,33
DA:561,33
DA:678,0
DA:680,0
DA:681,0
DA:683,0
DA:820,33
DA:821,33
DA:838,33
DA:839,33
DA:918,0
DA:919,0
DA:923,24
DA:924,24
DA:937,6
DA:939,6
DA:940,6
DA:941,0
DA:942,0
DA:943,6
DA:1168,0
DA:1169,0
DA:1603,0
DA:1605,0
DA:1606,0
DA:1607,0
DA:1608,0
DA:1756,6
DA:1758,6
DA:1759,0
DA:1761,6
DA:1762,6
DA:1767,0
DA:1769,0
DA:1770,0
DA:1772,0
DA:1776,0
DA:1781,0
DA:1783,0
DA:1784,0
DA:1792,0
DA:1794,0
DA:1796,0
DA:1797,0
DA:1798,0
DA:1801,0
DA:1844,0
DA:1845,0
end_of_record
SF:/usr/include/c++/11/bits/basic_string.tcc
FN:132,_ZNSt7__cxx1112basic_stringIcSt11char_traitsIcESaIcEE9_M_createERmm
FNDA:0,_ZNSt7__cxx1112basic_stringIcSt11char_traitsIcESaIcEE9_M_createERmm
FN:206,_ZNSt7__cxx1112basic_stringIcSt11char_traitsIcESaIcEE12_M_constructIPcEEvT_S7_St20forward_iterator_tag
FNDA:0,_ZNSt7__cxx1112basic_stringIcSt11char_traitsIcESaIcEE12_M_constructIPcEEvT_S7_St20forward_iterator_tag
FN:254,_ZNSt7__cxx1112basic_stringIcSt11char_traitsIcESaIcEE9_M_assignERKS4_
FNDA:0,_ZNSt7__cxx1112basic_stringIcSt11char_traitsIcESaIcEE9_M_assignERKS4_
FN:300,_ZNSt7__cxx1112basic_stringIcSt11char_traitsIcESaIcEE9_M_mutateEmmPKcm
FNDA:0,_ZNSt7__cxx1112basic_stringIcSt11char_traitsIcESaIcEE9_M_mutateEmmPKcm
FN:448,_ZNSt7__cxx1112basic_stringIcSt11char_traitsIcESaIcEE10_M_replaceEmmPKcm
FNDA:0,_ZNSt7__cxx1112basic_stringIcSt11char_traitsIcESaIcEE10_M_replaceEmmPKcm
DA:132,0
DA:137,0
DA:138,0
DA:143,0
DA:145,0
DA:147,0
DA:148,0
DA:153,0
DA:206,0
DA:211,0
DA:212,0
DA:215,0
DA:217,0
DA:219,0
DA:220,0
DA:225,0
DA:232,0
DA:233,0
DA:254,0
DA:257,0
DA:259,0
DA:260,0
DA:262,0
DA:264,0
DA:265,0
DA:266,0
DA:267,0
DA:268,0
DA:271,0
DA:272,0
DA:274,0
DA:276,0
DA:300,0
DA:304,0
DA:306,0
DA:307,0
DA:309,0
DA:310,0
DA:311,0
DA:312,0
DA:313,0
DA:314,0
DA:315,0
DA:317,0
DA:318,0
DA:319,0
DA:320,0
DA:448,0
DA:452,0
DA:454,0
DA:455,0
DA:457,0
DA:459,0
DA:461,0
DA:462,0
DA:464,0
DA:465,0
DA:466,0
DA:467,0
DA:472,0
DA:473,0
DA:474,0
DA:475,0
DA:476,0
DA:478,0
DA:479,0
DA:480,0
DA:484,0
DA:485,0
DA:489,0
DA:490,0
DA:491,0
DA:498,0
DA:500,0
DA:501,0
end_of_record
SF:/usr/include/c++/11/ext/new_allocator.h
FN:79,_ZN9__gnu_cxx13new_allocatorIP12loggerRecordEC2Ev
FNDA:6,_ZN9__gnu_cxx13new_allocatorIP12loggerRecordEC2Ev
FN:79,_ZN9__gnu_cxx13new_allocatorI12loggerRecordEC2Ev
FNDA:3,_ZN9__gnu_cxx13new_allocatorI12loggerRecordEC2Ev
FN:79,_ZN9__gnu_cxx13new_allocatorIcEC2Ev
FNDA:0,_ZN9__gnu_cxx13new_allocatorIcEC2Ev
FN:82,_ZN9__gnu_cxx13new_allocatorIcEC2ERKS1_
FNDA:0,_ZN9__gnu_cxx13new_allocatorIcEC2ERKS1_
FN:103,_ZN9__gnu_cxx13new_allocatorI12loggerRecordE8allocateEmPKv
FNDA:3,_ZN9__gnu_cxx13new_allocatorI12loggerRecordE8allocateEmPKv
FN:103,_ZN9__gnu_cxx13new_allocatorIP12loggerRecordE8allocateEmPKv
FNDA:3,_ZN9__gnu_cxx13new_allocatorIP12loggerRecordE8allocateEmPKv
FN:103,_ZN9__gnu_cxx13new_allocatorIcE8allocateEmPKv
FNDA:0,_ZN9__gnu_cxx13new_allocatorIcE8allocateEmPKv
FN:132,_ZN9__gnu_cxx13new_allocatorI12loggerRecordE10deallocateEPS1_m
FNDA:3,_ZN9__gnu_cxx13new_allocatorI12loggerRecordE10deallocateEPS1_m
FN:132,_ZN9__gnu_cxx13new_allocatorIP12loggerRecordE10deallocateEPS2_m
FNDA:3,_ZN9__gnu_cxx13new_allocatorIP12loggerRecordE10deallocateEPS2_m
FN:132,_ZN9__gnu_cxx13new_allocatorIcE10deallocateEPcm
FNDA:0,_ZN9__gnu_cxx13new_allocatorIcE10deallocateEPcm
FN:197,_ZNK9__gnu_cxx13new_allocatorI12loggerRecordE11_M_max_sizeEv
FNDA:3,_ZNK9__gnu_cxx13new_allocatorI12loggerRecordE11_M_max_sizeEv
FN:197,_ZNK9__gnu_cxx13new_allocatorIP12loggerRecordE11_M_max_sizeEv
FNDA:3,_ZNK9__gnu_cxx13new_allocatorIP12loggerRecordE11_M_max_sizeEv
FN:197,_ZNK9__gnu_cxx13new_allocatorIcE11_M_max_sizeEv
FNDA:0,_ZNK9__gnu_cxx13new_allocatorIcE11_M_max_sizeEv
DA:79,6
DA:79,3
DA:79,0
DA:82,0
DA:103,3
DA:111,3
DA:115,0
DA:116,0
DA:117,0
DA:127,3
DA:103,3
DA:111,3
DA:115,0
DA:116,0
DA:117,0
DA:127,3
DA:103,0
DA:111,0
DA:117,0
DA:127,0
DA:132,3
DA:145,3
DA:132,3
DA:145,3
DA:132,0
DA:145,0
DA:197,3
DA:200,3
DA:197,3
DA:200,3
DA:197,0
DA:200,0
end_of_record
SF:/usr/include/c++/11/bits/move.h
FN:49,_ZSt11__addressofI12loggerRecordEPT_RS1_
FNDA:0,_ZSt11__addressofI12loggerRecordEPT_RS1_
FN:49,_ZSt11__addressofIKcEPT_RS1_
FNDA:0,_ZSt11__addressofIKcEPT_RS1_
FN:49,_ZSt11__addressofIcEPT_RS0_
FNDA:0,_ZSt11__addressofIcEPT_RS0_
FN:49,_ZSt11__addressofINSt7__cxx1112basic_stringIcSt11char_traitsIcESaIcEEEEPT_RS6_
FNDA:20,_ZSt11__addressofINSt7__cxx1112basic_stringIcSt11char_traitsIcESaIcEEEEPT_RS6_
FN:77,_ZSt7forwardIZN12vpgnixlogger10InitializeESt10shared_ptrI12loggerConfigEEUlvE_EOT_RNSt16remove_referenceIS5_E4typeE
FNDA:24,_ZSt7forwardIZN12vpgnixlogger10InitializeESt10shared_ptrI12loggerConfigEEUlvE_EOT_RNSt16remove_referenceIS5_E4typeE
FN:104,_ZSt4moveIRSt5tupleIJZN12vpgnixlogger10InitializeESt10shared_ptrI12loggerConfigEEUlvE_EEEONSt16remove_referenceIT_E4typeEOS9_
FNDA:3,_ZSt4moveIRSt5tupleIJZN12vpgnixlogger10InitializeESt10shared_ptrI12loggerConfigEEUlvE_EEEONSt16remove_referenceIT_E4typeEOS9_
FN:104,_ZSt4moveIRPNSt6thread6_StateEEONSt16remove_referenceIT_E4typeEOS5_
FNDA:0,_ZSt4moveIRPNSt6thread6_StateEEONSt16remove_referenceIT_E4typeEOS5_
FN:104,_ZSt4moveIRNSt6thread2idEEONSt16remove_referenceIT_E4typeEOS4_
FNDA:9,_ZSt4moveIRNSt6thread2idEEONSt16remove_referenceIT_E4typeEOS4_
FN:104,_ZSt4moveIRSaIcEEONSt16remove_referenceIT_E4typeEOS3_
FNDA:0,_ZSt4moveIRSaIcEEONSt16remove_referenceIT_E4typeEOS3_
FN:104,_ZSt4moveISt6threadEONSt16remove_referenceIT_E4typeEOS2_
FNDA:3,_ZSt4moveISt6threadEONSt16remove_referenceIT_E4typeEOS2_
FN:145,_ZSt9addressofIKcEPT_RS1_
FNDA:0,_ZSt9addressofIKcEPT_RS1_
FN:145,_ZSt9addressofIcEPT_RS0_
FNDA:0,_ZSt9addressofIcEPT_RS0_
FN:196,_ZSt4swapINSt6thread2idEENSt9enable_ifIXsrSt6__and_IJSt6__not_ISt15__is_tuple_likeIT_EESt21is_move_constructibleIS6_ESt18is_move_assignableIS6_EEE5valueEvE4typeERS6_SG_
FNDA:3,_ZSt4swapINSt6thread2idEENSt9enable_ifIXsrSt6__and_IJSt6__not_ISt15__is_tuple_likeIT_EESt21is_move_constructibleIS6_ESt18is_move_assignableIS6_EEE5valueEvE4typeERS6_SG_
DA:49,0
DA:50,0
DA:49,0
DA:50,0
DA:49,0
DA:50,0
DA:49,20
DA:50,20
DA:77,24
DA:78,24
DA:104,3
DA:105,3
DA:104,0
DA:105,0
DA:104,9
DA:105,9
DA:104,0
DA:105,0
DA:104,3
DA:105,3
DA:145,0
DA:146,0
DA:145,0
DA:146,0
DA:196,3
DA:204,3
DA:205,3
DA:206,3
DA:207,3
end_of_record
SF:/home/yackey/projects/waitables/logger/src/vpgnixlogger.cpp
FN:3,_ZN12vpgnixloggerC2Ev
FNDA:3,_ZN12vpgnixloggerC2Ev
FN:12,_ZN12vpgnixloggerD0Ev
FNDA:3,_ZN12vpgnixloggerD0Ev
FN:12,_ZN12vpgnixloggerD2Ev
FNDA:3,_ZN12vpgnixloggerD2Ev
FN:16,_ZN12vpgnixlogger12UninitializeEv
FNDA:3,_ZN12vpgnixlogger12UninitializeEv
FN:27,_ZN12vpgnixlogger10InitializeESt10shared_ptrI12loggerConfigE
FNDA:3,_ZN12vpgnixlogger10InitializeESt10shared_ptrI12loggerConfigE
FN:32,_ZZN12vpgnixlogger10InitializeESt10shared_ptrI12loggerConfigEENKUlvE_clEv
FNDA:3,_ZZN12vpgnixlogger10InitializeESt10shared_ptrI12loggerConfigEENKUlvE_clEv
FN:36,_ZN12vpgnixlogger3LogEjNSt7__cxx1112basic_stringIcSt11char_traitsIcESaIcEEEz
FNDA:12,_ZN12vpgnixlogger3LogEjNSt7__cxx1112basic_stringIcSt11char_traitsIcESaIcEEEz
FN:54,_ZN12vpgnixlogger3LogEjR7cstring
FNDA:5,_ZN12vpgnixlogger3LogEjR7cstring
FN:66,_ZN12vpgnixlogger5writeEv
FNDA:3,_ZN12vpgnixlogger5writeEv
DA:3,21
DA:4,3
DA:5,3
DA:6,3
DA:7,3
DA:8,3
DA:9,3
DA:10,3
DA:12,3
DA:14,3
DA:12,21
DA:13,3
DA:14,27
DA:16,3
DA:17,4
DA:19,1
DA:20,1
DA:22,3
DA:23,3
DA:24,3
DA:25,3
DA:27,3
DA:28,3
DA:29,3
DA:30,3
DA:31,3
DA:32,6
DA:33,3
DA:34,3
DA:36,12
DA:37,12
DA:38,6
DA:40,6
DA:41,6
DA:42,6
DA:44,6
DA:46,6
DA:47,6
DA:48,6
DA:49,6
DA:50,6
DA:51,6
DA:52,6
DA:54,5
DA:55,5
DA:56,0
DA:58,5
DA:59,5
DA:60,5
DA:63,5
DA:64,5
DA:66,3
DA:67,33131513
DA:68,33131521
DA:69,11
DA:75,11
DA:76,11
DA:77,11
DA:79,22
DA:82,11
DA:86,11
DA:87,22
DA:90,11
DA:94,11
DA:95,11
DA:96,11
DA:97,11
DA:99,3
end_of_record
SF:/usr/include/c++/11/bits/stl_iterator_base_types.h
FN:238,_ZSt19__iterator_categoryIPcENSt15iterator_traitsIT_E17iterator_categoryERKS2_
FNDA:0,_ZSt19__iterator_categoryIPcENSt15iterator_traitsIT_E17iterator_categoryERKS2_
DA:238,0
DA:239,0
end_of_record
SF:/usr/include/c++/11/bits/stl_function.h
FN:447,_ZNKSt4lessIPKcEclES1_S1_
FNDA:0,_ZNKSt4lessIPKcEclES1_S1_
DA:447,0
DA:457,0
end_of_record
SF:/usr/include/c++/11/bits/std_thread.h
FN:86,_ZNSt6thread2idC2Ev
FNDA:15,_ZNSt6thread2idC2Ev
FN:121,_ZNSt6threadC2Ev
FNDA:3,_ZNSt6threadC2Ev
FN:127,_ZNSt6threadC2IZN12vpgnixlogger10InitializeESt10shared_ptrI12loggerConfigEEUlvE_JEvEEOT_DpOT0_
FNDA:3,_ZNSt6threadC2IZN12vpgnixlogger10InitializeESt10shared_ptrI12loggerConfigEEUlvE_JEvEEOT_DpOT0_
FN:149,_ZNSt6threadD2Ev
FNDA:6,_ZNSt6threadD2Ev
FN:162,_ZNSt6threadaSEOS_
FNDA:3,_ZNSt6threadaSEOS_
FN:171,_ZNSt6thread4swapERS_
FNDA:3,_ZNSt6thread4swapERS_
FN:175,_ZNKSt6thread8joinableEv
FNDA:9,_ZNKSt6thread8joinableEv
FN:206,_ZNSt6thread11_State_implINS_8_InvokerISt5tupleIJZN12vpgnixlogger10InitializeESt10shared_ptrI12loggerConfigEEUlvE_EEEEEC2IJS7_EEEDpOT_
FNDA:3,_ZNSt6thread11_State_implINS_8_InvokerISt5tupleIJZN12vpgnixlogger10InitializeESt10shared_ptrI12loggerConfigEEUlvE_EEEEEC2IJS7_EEEDpOT_
FN:211,_ZNSt6thread11_State_implINS_8_InvokerISt5tupleIJZN12vpgnixlogger10InitializeESt10shared_ptrI12loggerConfigEEUlvE_EEEEE6_M_runEv
FNDA:3,_ZNSt6thread11_State_implINS_8_InvokerISt5tupleIJZN12vpgnixlogger10InitializeESt10shared_ptrI12loggerConfigEEUlvE_EEEEE6_M_runEv
FN:252,_ZNSt6thread8_InvokerISt5tupleIJZN12vpgnixlogger10InitializeESt10shared_ptrI12loggerConfigEEUlvE_EEE9_M_invokeIJLm0EEEEvSt12_Index_tupleIJXspT_EEE
FNDA:3,_ZNSt6thread8_InvokerISt5tupleIJZN12vpgnixlogger10InitializeESt10shared_ptrI12loggerConfigEEUlvE_EEE9_M_invokeIJLm0EEEEvSt12_Index_tupleIJXspT_EEE
FN:256,_ZNSt6thread8_InvokerISt5tupleIJZN12vpgnixlogger10InitializeESt10shared_ptrI12loggerConfigEEUlvE_EEEclEv
FNDA:3,_ZNSt6thread8_InvokerISt5tupleIJZN12vpgnixlogger10InitializeESt10shared_ptrI12loggerConfigEEUlvE_EEEclEv
FN:281,_ZSteqNSt6thread2idES0_
FNDA:9,_ZSteqNSt6thread2idES0_
DA:86,15
DA:121,3
DA:127,3
DA:128,3
DA:138,3
DA:143,3
DA:144,3
DA:146,3
DA:149,6
DA:151,6
DA:152,0
DA:153,6
DA:162,3
DA:164,3
DA:165,0
DA:166,3
DA:167,3
DA:171,3
DA:172,3
DA:175,9
DA:176,9
DA:206,3
DA:207,3
DA:208,3
DA:211,3
DA:252,3
DA:253,3
DA:256,3
DA:260,3
DA:281,9
DA:287,9
end_of_record
SF:/usr/include/c++/11/bits/stl_iterator_base_funcs.h
FN:98,_ZSt10__distanceIPcENSt15iterator_traitsIT_E15difference_typeES2_S2_St26random_access_iterator_tag
FNDA:0,_ZSt10__distanceIPcENSt15iterator_traitsIT_E15difference_typeES2_S2_St26random_access_iterator_tag
FN:138,_ZSt8distanceIPcENSt15iterator_traitsIT_E15difference_typeES2_S2_
FNDA:0,_ZSt8distanceIPcENSt15iterator_traitsIT_E15difference_typeES2_S2_
DA:98,0
DA:104,0
DA:138,0
DA:141,0
DA:142,0
end_of_record
SF:/usr/include/c++/11/bits/invoke.h
FN:60,_ZSt13__invoke_implIvZN12vpgnixlogger10InitializeESt10shared_ptrI12loggerConfigEEUlvE_JEET_St14__invoke_otherOT0_DpOT1_
FNDA:3,_ZSt13__invoke_implIvZN12vpgnixlogger10InitializeESt10shared_ptrI12loggerConfigEEUlvE_JEET_St14__invoke_otherOT0_DpOT1_
FN:90,_ZSt8__invokeIZN12vpgnixlogger10InitializeESt10shared_ptrI12loggerConfigEEUlvE_JEENSt15__invoke_resultIT_JDpT0_EE4typeEOS6_DpOS7_
FNDA:3,_ZSt8__invokeIZN12vpgnixlogger10InitializeESt10shared_ptrI12loggerConfigEEUlvE_JEENSt15__invoke_resultIT_JDpT0_EE4typeEOS6_DpOS7_
DA:60,3
DA:61,3
DA:90,3
DA:96,3
DA:97,3
end_of_record
SF:/home/yackey/projects/waitables/logger/include/logger_interface.h
FN:10,_ZN7ILoggerD0Ev
FNDA:0,_ZN7ILoggerD0Ev
FN:10,_ZN7ILoggerD2Ev
FNDA:3,_ZN7ILoggerD2Ev
DA:10,0
DA:10,3
end_of_record
SF:/home/yackey/projects/waitables/logger/include/loggerQueue.h
FN:9,_ZN11loggerQueueC2Ev
FNDA:3,_ZN11loggerQueueC2Ev
FN:10,_ZN11loggerQueueD0Ev
FNDA:0,_ZN11loggerQueueD0Ev
FN:10,_ZN11loggerQueueD2Ev
FNDA:3,_ZN11loggerQueueD2Ev
DA:9,3
DA:10,0
DA:10,3
end_of_record
SF:/usr/include/c++/11/bits/ptr_traits.h
FN:149,_ZNSt14pointer_traitsIPKcE10pointer_toERS0_
FNDA:0,_ZNSt14pointer_traitsIPKcE10pointer_toERS0_
FN:149,_ZNSt14pointer_traitsIPcE10pointer_toERc
FNDA:0,_ZNSt14pointer_traitsIPcE10pointer_toERc
DA:149,0
DA:150,0
DA:149,0
DA:150,0
end_of_record
SF:/home/yackey/projects/waitables/logger/include/loggerConfig.h
FN:10,_ZN12loggerConfig5getFnB5cxx11Ev
FNDA:3,_ZN12loggerConfig5getFnB5cxx11Ev
FN:11,_ZN12loggerConfig6getLvlEv
FNDA:3,_ZN12loggerConfig6getLvlEv
DA:10,3
DA:11,3
end_of_record
SF:/usr/include/c++/11/bits/cpp_type_traits.h
FN:560,_ZSt12__miter_baseIN9__gnu_cxx17__normal_iteratorIPKcSt6vectorIcSaIcEEEEET_S8_
FNDA:66,_ZSt12__miter_baseIN9__gnu_cxx17__normal_iteratorIPKcSt6vectorIcSaIcEEEEET_S8_
FN:560,_ZSt12__miter_baseIPKcET_S2_
FNDA:0,_ZSt12__miter_baseIPKcET_S2_
DA:560,66
DA:561,66
DA:560,0
DA:561,0
end_of_record
