TN:
SF:/home/yackey/projects/waitables/cstring/src/cstring.cpp
FN:5,_ZN7cstringC2Ev
FNDA:13,_ZN7cstringC2Ev
FN:9,_ZN7cstringC2ENSt7__cxx1112basic_stringIcSt11char_traitsIcESaIcEEE
FNDA:21,_ZN7cstringC2ENSt7__cxx1112basic_stringIcSt11char_traitsIcESaIcEEE
FN:14,_ZN7cstringC2ERS_
FNDA:4,_ZN7cstringC2ERS_
FN:19,_ZN7cstringD2Ev
FNDA:38,_ZN7cstringD2Ev
FN:26,_ZN7cstringaSES_
FNDA:6,_ZN7cstringaSES_
FN:32,_ZN7cstringpLERNSt7__cxx1112basic_stringIcSt11char_traitsIcESaIcEEE
FNDA:1,_ZN7cstringpLERNSt7__cxx1112basic_stringIcSt11char_traitsIcESaIcEEE
FN:38,_ZN7cstringpLERS_
FNDA:3,_ZN7cstringpLERS_
FN:44,_ZN7cstringplERNSt7__cxx1112basic_stringIcSt11char_traitsIcESaIcEEE
FNDA:2,_ZN7cstringplERNSt7__cxx1112basic_stringIcSt11char_traitsIcESaIcEEE
FN:51,_ZN7cstringplERS_
FNDA:2,_ZN7cstringplERS_
FN:58,_ZN7cstring6formatENSt7__cxx1112basic_stringIcSt11char_traitsIcESaIcEEEz
FNDA:2,_ZN7cstring6formatENSt7__cxx1112basic_stringIcSt11char_traitsIcESaIcEEEz
FN:71,_ZN7cstring4dataEv
FNDA:30,_ZN7cstring4dataEv
FN:75,_ZNK7cstring4sizeEv
FNDA:27,_ZNK7cstring4sizeEv
DA:5,13
DA:6,13
DA:7,13
DA:9,21
DA:10,21
DA:11,21
DA:12,21
DA:14,4
DA:15,4
DA:16,4
DA:17,4
DA:19,38
DA:20,38
DA:21,38
DA:22,38
DA:24,38
DA:26,6
DA:27,6
DA:28,6
DA:29,6
DA:32,1
DA:33,1
DA:34,1
DA:35,1
DA:38,3
DA:39,3
DA:40,3
DA:41,3
DA:44,2
DA:45,2
DA:46,2
DA:47,2
DA:48,2
DA:51,2
DA:52,2
DA:53,2
DA:54,2
DA:55,2
DA:58,2
DA:60,2
DA:62,2
DA:63,2
DA:64,2
DA:65,2
DA:66,2
DA:67,2
DA:68,2
DA:71,30
DA:72,30
DA:75,27
DA:76,27
end_of_record
SF:/usr/include/c++/11/bits/basic_string.h
FN:194,_ZNKSt7__cxx1112basic_stringIcSt11char_traitsIcESaIcEE7_M_dataEv
FNDA:0,_ZNKSt7__cxx1112basic_stringIcSt11char_traitsIcESaIcEE7_M_dataEv
FN:920,_ZNKSt7__cxx1112basic_stringIcSt11char_traitsIcESaIcEE4sizeEv
FNDA:0,_ZNKSt7__cxx1112basic_stringIcSt11char_traitsIcESaIcEE4sizeEv
FN:2320,_ZNKSt7__cxx1112basic_stringIcSt11char_traitsIcESaIcEE5c_strEv
FNDA:0,_ZNKSt7__cxx1112basic_stringIcSt11char_traitsIcESaIcEE5c_strEv
FN:2343,_ZNSt7__cxx1112basic_stringIcSt11char_traitsIcESaIcEE4dataEv
FNDA:2,_ZNSt7__cxx1112basic_stringIcSt11char_traitsIcESaIcEE4dataEv
DA:194,0
DA:195,0
DA:920,0
DA:921,0
DA:2320,0
DA:2321,0
DA:2343,2
DA:2344,2
end_of_record
