TN:
SF:/usr/include/c++/11/bits/cpp_type_traits.h
FN:560,_ZSt12__miter_baseIPKcET_S2_
FNDA:0,_ZSt12__miter_baseIPKcET_S2_
DA:560,0
DA:561,0
end_of_record
SF:/usr/include/c++/11/type_traits
FN:3418,_ZSt21is_constant_evaluatedv
FNDA:0,_ZSt21is_constant_evaluatedv
DA:3418,0
DA:3419,0
end_of_record
SF:/usr/include/c++/11/bits/allocator.h
FN:156,_ZNSaI14waitable_eventEC2Ev
FNDA:3,_ZNSaI14waitable_eventEC2Ev
FN:156,_ZNSaI9aspthreadEC2Ev
FNDA:1,_ZNSaI9aspthreadEC2Ev
FN:156,_ZNSaI10corethreadEC2Ev
FNDA:1,_ZNSaI10corethreadEC2Ev
FN:156,_ZNSaI6vpgnixEC2Ev
FNDA:1,_ZNSaI6vpgnixEC2Ev
FN:159,_ZNSaI10corethreadEC2ERKS0_
FNDA:3,_ZNSaI10corethreadEC2ERKS0_
FN:159,_ZNSaI9aspthreadEC2ERKS0_
FNDA:3,_ZNSaI9aspthreadEC2ERKS0_
FN:159,_ZNSaI14waitable_eventEC2ERKS0_
FNDA:9,_ZNSaI14waitable_eventEC2ERKS0_
FN:159,_ZNSaI6vpgnixEC2ERKS0_
FNDA:3,_ZNSaI6vpgnixEC2ERKS0_
FN:169,_ZNSaISt23_Sp_counted_ptr_inplaceI9aspthreadSaIS0_ELN9__gnu_cxx12_Lock_policyE2EEEC2IS0_EERKSaIT_E
FNDA:2,_ZNSaISt23_Sp_counted_ptr_inplaceI9aspthreadSaIS0_ELN9__gnu_cxx12_Lock_policyE2EEEC2IS0_EERKSaIT_E
FN:169,_ZNSaISt23_Sp_counted_ptr_inplaceI14waitable_eventSaIS0_ELN9__gnu_cxx12_Lock_policyE2EEEC2IS0_EERKSaIT_E
FNDA:6,_ZNSaISt23_Sp_counted_ptr_inplaceI14waitable_eventSaIS0_ELN9__gnu_cxx12_Lock_policyE2EEEC2IS0_EERKSaIT_E
FN:169,_ZNSaISt23_Sp_counted_ptr_inplaceI10corethreadSaIS0_ELN9__gnu_cxx12_Lock_policyE2EEEC2IS0_EERKSaIT_E
FNDA:2,_ZNSaISt23_Sp_counted_ptr_inplaceI10corethreadSaIS0_ELN9__gnu_cxx12_Lock_policyE2EEEC2IS0_EERKSaIT_E
FN:169,_ZNSaISt23_Sp_counted_ptr_inplaceI6vpgnixSaIS0_ELN9__gnu_cxx12_Lock_policyE2EEEC2IS0_EERKSaIT_E
FNDA:2,_ZNSaISt23_Sp_counted_ptr_inplaceI6vpgnixSaIS0_ELN9__gnu_cxx12_Lock_policyE2EEEC2IS0_EERKSaIT_E
FN:174,_ZNSaI6vpgnixED2Ev
FNDA:4,_ZNSaI6vpgnixED2Ev
FN:174,_ZNSaISt23_Sp_counted_ptr_inplaceI14waitable_eventSaIS0_ELN9__gnu_cxx12_Lock_policyE2EEED2Ev
FNDA:6,_ZNSaISt23_Sp_counted_ptr_inplaceI14waitable_eventSaIS0_ELN9__gnu_cxx12_Lock_policyE2EEED2Ev
FN:174,_ZNSaI10corethreadED2Ev
FNDA:4,_ZNSaI10corethreadED2Ev
FN:174,_ZNSaISt23_Sp_counted_ptr_inplaceI9aspthreadSaIS0_ELN9__gnu_cxx12_Lock_policyE2EEED2Ev
FNDA:2,_ZNSaISt23_Sp_counted_ptr_inplaceI9aspthreadSaIS0_ELN9__gnu_cxx12_Lock_policyE2EEED2Ev
FN:174,_ZNSaI9aspthreadED2Ev
FNDA:4,_ZNSaI9aspthreadED2Ev
FN:174,_ZNSaISt23_Sp_counted_ptr_inplaceI10corethreadSaIS0_ELN9__gnu_cxx12_Lock_policyE2EEED2Ev
FNDA:2,_ZNSaISt23_Sp_counted_ptr_inplaceI10corethreadSaIS0_ELN9__gnu_cxx12_Lock_policyE2EEED2Ev
FN:174,_ZNSaI14waitable_eventED2Ev
FNDA:12,_ZNSaI14waitable_eventED2Ev
FN:174,_ZNSaISt23_Sp_counted_ptr_inplaceI6vpgnixSaIS0_ELN9__gnu_cxx12_Lock_policyE2EEED2Ev
FNDA:2,_ZNSaISt23_Sp_counted_ptr_inplaceI6vpgnixSaIS0_ELN9__gnu_cxx12_Lock_policyE2EEED2Ev
DA:156,1
DA:156,1
DA:156,1
DA:156,3
DA:159,3
DA:160,3
DA:159,3
DA:160,3
DA:159,3
DA:160,3
DA:159,9
DA:160,9
DA:169,2
DA:169,2
DA:169,2
DA:169,6
DA:174,2
DA:174,2
DA:174,2
DA:174,6
DA:174,4
DA:174,4
DA:174,4
DA:174,12
DA:182,6
DA:183,0
DA:185,6
DA:193,6
DA:195,0
DA:196,0
DA:199,6
end_of_record
SF:/home/yackey/projects/waitables/vpgnixApp/include/IRunnableApp.h
FN:7,_ZN12IRunnableAppD0Ev
FNDA:0,_ZN12IRunnableAppD0Ev
FN:7,_ZN12IRunnableAppD2Ev
FNDA:1,_ZN12IRunnableAppD2Ev
DA:7,0
DA:7,1
end_of_record
SF:/home/yackey/projects/waitables/vpgnixApp/include/vpgnixApp.h
FN:15,_ZN9vpgnixAppD0Ev
FNDA:1,_ZN9vpgnixAppD0Ev
FN:15,_ZN9vpgnixAppD2Ev
FNDA:1,_ZN9vpgnixAppD2Ev
DA:15,1
DA:15,1
end_of_record
SF:/home/yackey/projects/waitables/vpgnixApp/src/vpgnixApp.cpp
FN:14,_ZN9vpgnixAppC2ESt10shared_ptrI7ILoggerE
FNDA:1,_ZN9vpgnixAppC2ESt10shared_ptrI7ILoggerE
FN:44,_ZN9vpgnixApp5startEv
FNDA:0,_ZN9vpgnixApp5startEv
FN:49,_ZN9vpgnixApp4stopEv
FNDA:0,_ZN9vpgnixApp4stopEv
DA:14,1
DA:19,1
DA:21,1
DA:22,1
DA:24,1
DA:25,1
DA:27,1
DA:28,1
DA:30,1
DA:31,1
DA:33,1
DA:34,1
DA:35,1
DA:36,1
DA:38,1
DA:39,1
DA:40,1
DA:41,1
DA:42,1
DA:44,0
DA:45,0
DA:46,0
DA:47,0
DA:49,0
DA:50,0
DA:51,0
DA:52,0
end_of_record
SF:/usr/include/c++/11/bits/char_traits.h
FN:106,_ZN9__gnu_cxx11char_traitsIcE2eqERKcS3_
FNDA:0,_ZN9__gnu_cxx11char_traitsIcE2eqERKcS3_
FN:167,_ZN9__gnu_cxx11char_traitsIcE6lengthEPKc
FNDA:0,_ZN9__gnu_cxx11char_traitsIcE6lengthEPKc
FN:240,_ZN9__gnu_cxx11char_traitsIcE4copyEPcPKcm
FNDA:0,_ZN9__gnu_cxx11char_traitsIcE4copyEPcPKcm
FN:356,_ZNSt11char_traitsIcE6assignERcRKc
FNDA:0,_ZNSt11char_traitsIcE6assignERcRKc
FN:393,_ZNSt11char_traitsIcE6lengthEPKc
FNDA:0,_ZNSt11char_traitsIcE6lengthEPKc
FN:429,_ZNSt11char_traitsIcE4copyEPcPKcm
FNDA:0,_ZNSt11char_traitsIcE4copyEPcPKcm
DA:106,0
DA:107,0
DA:167,0
DA:170,0
DA:171,0
DA:172,0
DA:173,0
DA:240,0
DA:244,0
DA:245,0
DA:290,0
DA:356,0
DA:357,0
DA:393,0
DA:396,0
DA:397,0
DA:399,0
DA:429,0
DA:431,0
DA:432,0
DA:434,0
DA:435,0
DA:437,0
end_of_record
SF:/home/yackey/projects/waitables/include/waitable/waitable_event.h
FN:7,_ZN14waitable_eventC2Ev
FNDA:3,_ZN14waitable_eventC2Ev
DA:7,3
end_of_record
SF:/usr/include/c++/11/typeinfo
FN:120,_ZNKSt9type_infoeqERKS_
FNDA:0,_ZNKSt9type_infoeqERKS_
DA:120,0
DA:122,0
DA:123,0
DA:124,0
end_of_record
SF:/usr/include/c++/11/bits/basic_string.h
FN:164,_ZNSt7__cxx1112basic_stringIcSt11char_traitsIcESaIcEE12_Alloc_hiderC2EPcRKS3_
FNDA:0,_ZNSt7__cxx1112basic_stringIcSt11char_traitsIcESaIcEE12_Alloc_hiderC2EPcRKS3_
FN:186,_ZNSt7__cxx1112basic_stringIcSt11char_traitsIcESaIcEE7_M_dataEPc
FNDA:0,_ZNSt7__cxx1112basic_stringIcSt11char_traitsIcESaIcEE7_M_dataEPc
FN:190,_ZNSt7__cxx1112basic_stringIcSt11char_traitsIcESaIcEE9_M_lengthEm
FNDA:0,_ZNSt7__cxx1112basic_stringIcSt11char_traitsIcESaIcEE9_M_lengthEm
FN:194,_ZNKSt7__cxx1112basic_stringIcSt11char_traitsIcESaIcEE7_M_dataEv
FNDA:0,_ZNKSt7__cxx1112basic_stringIcSt11char_traitsIcESaIcEE7_M_dataEv
FN:198,_ZNSt7__cxx1112basic_stringIcSt11char_traitsIcESaIcEE13_M_local_dataEv
FNDA:0,_ZNSt7__cxx1112basic_stringIcSt11char_traitsIcESaIcEE13_M_local_dataEv
FN:208,_ZNKSt7__cxx1112basic_stringIcSt11char_traitsIcESaIcEE13_M_local_dataEv
FNDA:0,_ZNKSt7__cxx1112basic_stringIcSt11char_traitsIcESaIcEE13_M_local_dataEv
FN:218,_ZNSt7__cxx1112basic_stringIcSt11char_traitsIcESaIcEE11_M_capacityEm
FNDA:0,_ZNSt7__cxx1112basic_stringIcSt11char_traitsIcESaIcEE11_M_capacityEm
FN:222,_ZNSt7__cxx1112basic_stringIcSt11char_traitsIcESaIcEE13_M_set_lengthEm
FNDA:0,_ZNSt7__cxx1112basic_stringIcSt11char_traitsIcESaIcEE13_M_set_lengthEm
FN:229,_ZNKSt7__cxx1112basic_stringIcSt11char_traitsIcESaIcEE11_M_is_localEv
FNDA:0,_ZNKSt7__cxx1112basic_stringIcSt11char_traitsIcESaIcEE11_M_is_localEv
FN:237,_ZNSt7__cxx1112basic_stringIcSt11char_traitsIcESaIcEE10_M_disposeEv
FNDA:0,_ZNSt7__cxx1112basic_stringIcSt11char_traitsIcESaIcEE10_M_disposeEv
FN:244,_ZNSt7__cxx1112basic_stringIcSt11char_traitsIcESaIcEE10_M_destroyEm
FNDA:0,_ZNSt7__cxx1112basic_stringIcSt11char_traitsIcESaIcEE10_M_destroyEm
FN:294,_ZNSt7__cxx1112basic_stringIcSt11char_traitsIcESaIcEE16_M_get_allocatorEv
FNDA:0,_ZNSt7__cxx1112basic_stringIcSt11char_traitsIcESaIcEE16_M_get_allocatorEv
FN:298,_ZNKSt7__cxx1112basic_stringIcSt11char_traitsIcESaIcEE16_M_get_allocatorEv
FNDA:0,_ZNKSt7__cxx1112basic_stringIcSt11char_traitsIcESaIcEE16_M_get_allocatorEv
FN:354,_ZNSt7__cxx1112basic_stringIcSt11char_traitsIcESaIcEE7_S_copyEPcPKcm
FNDA:0,_ZNSt7__cxx1112basic_stringIcSt11char_traitsIcESaIcEE7_S_copyEPcPKcm
FN:404,_ZNSt7__cxx1112basic_stringIcSt11char_traitsIcESaIcEE13_S_copy_charsEPcPKcS7_
FNDA:0,_ZNSt7__cxx1112basic_stringIcSt11char_traitsIcESaIcEE13_S_copy_charsEPcPKcS7_
FN:533,_ZNSt7__cxx1112basic_stringIcSt11char_traitsIcESaIcEEC2IS3_EEPKcRKS3_
FNDA:0,_ZNSt7__cxx1112basic_stringIcSt11char_traitsIcESaIcEEC2IS3_EEPKcRKS3_
FN:671,_ZNSt7__cxx1112basic_stringIcSt11char_traitsIcESaIcEED2Ev
FNDA:0,_ZNSt7__cxx1112basic_stringIcSt11char_traitsIcESaIcEED2Ev
FN:931,_ZNKSt7__cxx1112basic_stringIcSt11char_traitsIcESaIcEE8max_sizeEv
FNDA:0,_ZNKSt7__cxx1112basic_stringIcSt11char_traitsIcESaIcEE8max_sizeEv
DA:164,0
DA:165,0
DA:186,0
DA:187,0
DA:190,0
DA:191,0
DA:194,0
DA:195,0
DA:198,0
DA:201,0
DA:208,0
DA:211,0
DA:218,0
DA:219,0
DA:222,0
DA:224,0
DA:225,0
DA:226,0
DA:229,0
DA:230,0
DA:237,0
DA:239,0
DA:240,0
DA:241,0
DA:244,0
DA:245,0
DA:294,0
DA:295,0
DA:298,0
DA:299,0
DA:354,0
DA:356,0
DA:357,0
DA:359,0
DA:360,0
DA:404,0
DA:406,0
DA:533,0
DA:534,0
DA:536,0
DA:539,0
DA:540,0
DA:671,0
DA:672,0
DA:931,0
DA:932,0
end_of_record
SF:/usr/include/c++/11/bits/ptr_traits.h
FN:149,_ZNSt14pointer_traitsIPKcE10pointer_toERS0_
FNDA:0,_ZNSt14pointer_traitsIPKcE10pointer_toERS0_
FN:149,_ZNSt14pointer_traitsIPcE10pointer_toERc
FNDA:0,_ZNSt14pointer_traitsIPcE10pointer_toERc
FN:159,_ZSt12__to_addressISt23_Sp_counted_ptr_inplaceI6vpgnixSaIS1_ELN9__gnu_cxx12_Lock_policyE2EEEPT_S7_
FNDA:1,_ZSt12__to_addressISt23_Sp_counted_ptr_inplaceI6vpgnixSaIS1_ELN9__gnu_cxx12_Lock_policyE2EEEPT_S7_
FN:159,_ZSt12__to_addressISt23_Sp_counted_ptr_inplaceI10corethreadSaIS1_ELN9__gnu_cxx12_Lock_policyE2EEEPT_S7_
FNDA:1,_ZSt12__to_addressISt23_Sp_counted_ptr_inplaceI10corethreadSaIS1_ELN9__gnu_cxx12_Lock_policyE2EEEPT_S7_
FN:159,_ZSt12__to_addressISt23_Sp_counted_ptr_inplaceI9aspthreadSaIS1_ELN9__gnu_cxx12_Lock_policyE2EEEPT_S7_
FNDA:1,_ZSt12__to_addressISt23_Sp_counted_ptr_inplaceI9aspthreadSaIS1_ELN9__gnu_cxx12_Lock_policyE2EEEPT_S7_
FN:159,_ZSt12__to_addressISt23_Sp_counted_ptr_inplaceI14waitable_eventSaIS1_ELN9__gnu_cxx12_Lock_policyE2EEEPT_S7_
FNDA:3,_ZSt12__to_addressISt23_Sp_counted_ptr_inplaceI14waitable_eventSaIS1_ELN9__gnu_cxx12_Lock_policyE2EEEPT_S7_
DA:149,0
DA:150,0
DA:149,0
DA:150,0
DA:159,1
DA:162,1
DA:159,1
DA:162,1
DA:159,1
DA:162,1
DA:159,3
DA:162,3
end_of_record
SF:/usr/include/c++/11/bits/shared_ptr_base.h
FN:126,_ZNSt16_Sp_counted_baseILN9__gnu_cxx12_Lock_policyE2EEC2Ev
FNDA:0,_ZNSt16_Sp_counted_baseILN9__gnu_cxx12_Lock_policyE2EEC2Ev
FN:130,_ZNSt16_Sp_counted_baseILN9__gnu_cxx12_Lock_policyE2EED2Ev
FNDA:0,_ZNSt16_Sp_counted_baseILN9__gnu_cxx12_Lock_policyE2EED2Ev
FN:130,_ZNSt16_Sp_counted_baseILN9__gnu_cxx12_Lock_policyE2EED0Ev
FNDA:0,_ZNSt16_Sp_counted_baseILN9__gnu_cxx12_Lock_policyE2EED0Ev
FN:140,_ZNSt16_Sp_counted_baseILN9__gnu_cxx12_Lock_policyE2EE10_M_destroyEv
FNDA:0,_ZNSt16_Sp_counted_baseILN9__gnu_cxx12_Lock_policyE2EE10_M_destroyEv
FN:147,_ZNSt16_Sp_counted_baseILN9__gnu_cxx12_Lock_policyE2EE15_M_add_ref_copyEv
FNDA:0,_ZNSt16_Sp_counted_baseILN9__gnu_cxx12_Lock_policyE2EE15_M_add_ref_copyEv
FN:161,_ZNSt16_Sp_counted_baseILN9__gnu_cxx12_Lock_policyE2EE10_M_releaseEv
FNDA:0,_ZNSt16_Sp_counted_baseILN9__gnu_cxx12_Lock_policyE2EE10_M_releaseEv
FN:385,_ZNSt14_Sp_ebo_helperILi0ESaI14waitable_eventELb1EEC2ERKS1_
FNDA:3,_ZNSt14_Sp_ebo_helperILi0ESaI14waitable_eventELb1EEC2ERKS1_
FN:385,_ZNSt14_Sp_ebo_helperILi0ESaI9aspthreadELb1EEC2ERKS1_
FNDA:1,_ZNSt14_Sp_ebo_helperILi0ESaI9aspthreadELb1EEC2ERKS1_
FN:385,_ZNSt14_Sp_ebo_helperILi0ESaI10corethreadELb1EEC2ERKS1_
FNDA:1,_ZNSt14_Sp_ebo_helperILi0ESaI10corethreadELb1EEC2ERKS1_
FN:385,_ZNSt14_Sp_ebo_helperILi0ESaI6vpgnixELb1EEC2ERKS1_
FNDA:1,_ZNSt14_Sp_ebo_helperILi0ESaI6vpgnixELb1EEC2ERKS1_
FN:389,_ZNSt14_Sp_ebo_helperILi0ESaI9aspthreadELb1EE6_S_getERS2_
FNDA:2,_ZNSt14_Sp_ebo_helperILi0ESaI9aspthreadELb1EE6_S_getERS2_
FN:389,_ZNSt14_Sp_ebo_helperILi0ESaI10corethreadELb1EE6_S_getERS2_
FNDA:2,_ZNSt14_Sp_ebo_helperILi0ESaI10corethreadELb1EE6_S_getERS2_
FN:389,_ZNSt14_Sp_ebo_helperILi0ESaI6vpgnixELb1EE6_S_getERS2_
FNDA:2,_ZNSt14_Sp_ebo_helperILi0ESaI6vpgnixELb1EE6_S_getERS2_
FN:389,_ZNSt14_Sp_ebo_helperILi0ESaI14waitable_eventELb1EE6_S_getERS2_
FNDA:6,_ZNSt14_Sp_ebo_helperILi0ESaI14waitable_eventELb1EE6_S_getERS2_
FN:479,_ZNSt19_Sp_make_shared_tag5_S_tiEv
FNDA:0,_ZNSt19_Sp_make_shared_tag5_S_tiEv
FN:502,_ZNSt23_Sp_counted_ptr_inplaceI14waitable_eventSaIS0_ELN9__gnu_cxx12_Lock_policyE2EE5_ImplC2ES1_
FNDA:3,_ZNSt23_Sp_counted_ptr_inplaceI14waitable_eventSaIS0_ELN9__gnu_cxx12_Lock_policyE2EE5_ImplC2ES1_
FN:502,_ZNSt23_Sp_counted_ptr_inplaceI9aspthreadSaIS0_ELN9__gnu_cxx12_Lock_policyE2EE5_ImplC2ES1_
FNDA:1,_ZNSt23_Sp_counted_ptr_inplaceI9aspthreadSaIS0_ELN9__gnu_cxx12_Lock_policyE2EE5_ImplC2ES1_
FN:502,_ZNSt23_Sp_counted_ptr_inplaceI10corethreadSaIS0_ELN9__gnu_cxx12_Lock_policyE2EE5_ImplC2ES1_
FNDA:1,_ZNSt23_Sp_counted_ptr_inplaceI10corethreadSaIS0_ELN9__gnu_cxx12_Lock_policyE2EE5_ImplC2ES1_
FN:502,_ZNSt23_Sp_counted_ptr_inplaceI6vpgnixSaIS0_ELN9__gnu_cxx12_Lock_policyE2EE5_ImplC2ES1_
FNDA:1,_ZNSt23_Sp_counted_ptr_inplaceI6vpgnixSaIS0_ELN9__gnu_cxx12_Lock_policyE2EE5_ImplC2ES1_
FN:504,_ZNSt23_Sp_counted_ptr_inplaceI14waitable_eventSaIS0_ELN9__gnu_cxx12_Lock_policyE2EE5_Impl8_M_allocEv
FNDA:6,_ZNSt23_Sp_counted_ptr_inplaceI14waitable_eventSaIS0_ELN9__gnu_cxx12_Lock_policyE2EE5_Impl8_M_allocEv
FN:504,_ZNSt23_Sp_counted_ptr_inplaceI9aspthreadSaIS0_ELN9__gnu_cxx12_Lock_policyE2EE5_Impl8_M_allocEv
FNDA:2,_ZNSt23_Sp_counted_ptr_inplaceI9aspthreadSaIS0_ELN9__gnu_cxx12_Lock_policyE2EE5_Impl8_M_allocEv
FN:504,_ZNSt23_Sp_counted_ptr_inplaceI10corethreadSaIS0_ELN9__gnu_cxx12_Lock_policyE2EE5_Impl8_M_allocEv
FNDA:2,_ZNSt23_Sp_counted_ptr_inplaceI10corethreadSaIS0_ELN9__gnu_cxx12_Lock_policyE2EE5_Impl8_M_allocEv
FN:504,_ZNSt23_Sp_counted_ptr_inplaceI6vpgnixSaIS0_ELN9__gnu_cxx12_Lock_policyE2EE5_Impl8_M_allocEv
FNDA:2,_ZNSt23_Sp_counted_ptr_inplaceI6vpgnixSaIS0_ELN9__gnu_cxx12_Lock_policyE2EE5_Impl8_M_allocEv
FN:514,_ZNSt23_Sp_counted_ptr_inplaceI14waitable_eventSaIS0_ELN9__gnu_cxx12_Lock_policyE2EEC2IJEEES1_DpOT_
FNDA:3,_ZNSt23_Sp_counted_ptr_inplaceI14waitable_eventSaIS0_ELN9__gnu_cxx12_Lock_policyE2EEC2IJEEES1_DpOT_
FN:514,_ZNSt23_Sp_counted_ptr_inplaceI9aspthreadSaIS0_ELN9__gnu_cxx12_Lock_policyE2EEC2IJRSt10shared_ptrI14waitable_eventERS6_I7ILoggerEEEES1_DpOT_
FNDA:1,_ZNSt23_Sp_counted_ptr_inplaceI9aspthreadSaIS0_ELN9__gnu_cxx12_Lock_policyE2EEC2IJRSt10shared_ptrI14waitable_eventERS6_I7ILoggerEEEES1_DpOT_
FN:514,_ZNSt23_Sp_counted_ptr_inplaceI10corethreadSaIS0_ELN9__gnu_cxx12_Lock_policyE2EEC2IJRSt10shared_ptrI14waitable_eventERS6_I9aspthreadES9_RS6_I7ILoggerEEEES1_DpOT_
FNDA:1,_ZNSt23_Sp_counted_ptr_inplaceI10corethreadSaIS0_ELN9__gnu_cxx12_Lock_policyE2EEC2IJRSt10shared_ptrI14waitable_eventERS6_I9aspthreadES9_RS6_I7ILoggerEEEES1_DpOT_
FN:514,_ZNSt23_Sp_counted_ptr_inplaceI6vpgnixSaIS0_ELN9__gnu_cxx12_Lock_policyE2EEC2IJRSt10shared_ptrI14waitable_eventERS6_I10corethreadES9_RS6_I7ILoggerEEEES1_DpOT_
FNDA:1,_ZNSt23_Sp_counted_ptr_inplaceI6vpgnixSaIS0_ELN9__gnu_cxx12_Lock_policyE2EEC2IJRSt10shared_ptrI14waitable_eventERS6_I10corethreadES9_RS6_I7ILoggerEEEES1_DpOT_
FN:523,_ZNSt23_Sp_counted_ptr_inplaceI9aspthreadSaIS0_ELN9__gnu_cxx12_Lock_policyE2EED0Ev
FNDA:0,_ZNSt23_Sp_counted_ptr_inplaceI9aspthreadSaIS0_ELN9__gnu_cxx12_Lock_policyE2EED0Ev
FN:523,_ZNSt23_Sp_counted_ptr_inplaceI14waitable_eventSaIS0_ELN9__gnu_cxx12_Lock_policyE2EED0Ev
FNDA:0,_ZNSt23_Sp_counted_ptr_inplaceI14waitable_eventSaIS0_ELN9__gnu_cxx12_Lock_policyE2EED0Ev
FN:523,_ZNSt23_Sp_counted_ptr_inplaceI14waitable_eventSaIS0_ELN9__gnu_cxx12_Lock_policyE2EED2Ev
FNDA:3,_ZNSt23_Sp_counted_ptr_inplaceI14waitable_eventSaIS0_ELN9__gnu_cxx12_Lock_policyE2EED2Ev
FN:523,_ZNSt23_Sp_counted_ptr_inplaceI9aspthreadSaIS0_ELN9__gnu_cxx12_Lock_policyE2EED2Ev
FNDA:1,_ZNSt23_Sp_counted_ptr_inplaceI9aspthreadSaIS0_ELN9__gnu_cxx12_Lock_policyE2EED2Ev
FN:523,_ZNSt23_Sp_counted_ptr_inplaceI6vpgnixSaIS0_ELN9__gnu_cxx12_Lock_policyE2EED2Ev
FNDA:1,_ZNSt23_Sp_counted_ptr_inplaceI6vpgnixSaIS0_ELN9__gnu_cxx12_Lock_policyE2EED2Ev
FN:523,_ZNSt23_Sp_counted_ptr_inplaceI6vpgnixSaIS0_ELN9__gnu_cxx12_Lock_policyE2EED0Ev
FNDA:0,_ZNSt23_Sp_counted_ptr_inplaceI6vpgnixSaIS0_ELN9__gnu_cxx12_Lock_policyE2EED0Ev
FN:523,_ZNSt23_Sp_counted_ptr_inplaceI10corethreadSaIS0_ELN9__gnu_cxx12_Lock_policyE2EED0Ev
FNDA:0,_ZNSt23_Sp_counted_ptr_inplaceI10corethreadSaIS0_ELN9__gnu_cxx12_Lock_policyE2EED0Ev
FN:523,_ZNSt23_Sp_counted_ptr_inplaceI10corethreadSaIS0_ELN9__gnu_cxx12_Lock_policyE2EED2Ev
FNDA:1,_ZNSt23_Sp_counted_ptr_inplaceI10corethreadSaIS0_ELN9__gnu_cxx12_Lock_policyE2EED2Ev
FN:526,_ZNSt23_Sp_counted_ptr_inplaceI9aspthreadSaIS0_ELN9__gnu_cxx12_Lock_policyE2EE10_M_disposeEv
FNDA:1,_ZNSt23_Sp_counted_ptr_inplaceI9aspthreadSaIS0_ELN9__gnu_cxx12_Lock_policyE2EE10_M_disposeEv
FN:526,_ZNSt23_Sp_counted_ptr_inplaceI6vpgnixSaIS0_ELN9__gnu_cxx12_Lock_policyE2EE10_M_disposeEv
FNDA:1,_ZNSt23_Sp_counted_ptr_inplaceI6vpgnixSaIS0_ELN9__gnu_cxx12_Lock_policyE2EE10_M_disposeEv
FN:526,_ZNSt23_Sp_counted_ptr_inplaceI14waitable_eventSaIS0_ELN9__gnu_cxx12_Lock_policyE2EE10_M_disposeEv
FNDA:3,_ZNSt23_Sp_counted_ptr_inplaceI14waitable_eventSaIS0_ELN9__gnu_cxx12_Lock_policyE2EE10_M_disposeEv
FN:526,_ZNSt23_Sp_counted_ptr_inplaceI10corethreadSaIS0_ELN9__gnu_cxx12_Lock_policyE2EE10_M_disposeEv
FNDA:1,_ZNSt23_Sp_counted_ptr_inplaceI10corethreadSaIS0_ELN9__gnu_cxx12_Lock_policyE2EE10_M_disposeEv
FN:533,_ZNSt23_Sp_counted_ptr_inplaceI9aspthreadSaIS0_ELN9__gnu_cxx12_Lock_policyE2EE10_M_destroyEv
FNDA:1,_ZNSt23_Sp_counted_ptr_inplaceI9aspthreadSaIS0_ELN9__gnu_cxx12_Lock_policyE2EE10_M_destroyEv
FN:533,_ZNSt23_Sp_counted_ptr_inplaceI10corethreadSaIS0_ELN9__gnu_cxx12_Lock_policyE2EE10_M_destroyEv
FNDA:1,_ZNSt23_Sp_counted_ptr_inplaceI10corethreadSaIS0_ELN9__gnu_cxx12_Lock_policyE2EE10_M_destroyEv
FN:533,_ZNSt23_Sp_counted_ptr_inplaceI6vpgnixSaIS0_ELN9__gnu_cxx12_Lock_policyE2EE10_M_destroyEv
FNDA:1,_ZNSt23_Sp_counted_ptr_inplaceI6vpgnixSaIS0_ELN9__gnu_cxx12_Lock_policyE2EE10_M_destroyEv
FN:533,_ZNSt23_Sp_counted_ptr_inplaceI14waitable_eventSaIS0_ELN9__gnu_cxx12_Lock_policyE2EE10_M_destroyEv
FNDA:3,_ZNSt23_Sp_counted_ptr_inplaceI14waitable_eventSaIS0_ELN9__gnu_cxx12_Lock_policyE2EE10_M_destroyEv
FN:546,_ZNSt23_Sp_counted_ptr_inplaceI9aspthreadSaIS0_ELN9__gnu_cxx12_Lock_policyE2EE14_M_get_deleterERKSt9type_info
FNDA:0,_ZNSt23_Sp_counted_ptr_inplaceI9aspthreadSaIS0_ELN9__gnu_cxx12_Lock_policyE2EE14_M_get_deleterERKSt9type_info
FN:546,_ZNSt23_Sp_counted_ptr_inplaceI10corethreadSaIS0_ELN9__gnu_cxx12_Lock_policyE2EE14_M_get_deleterERKSt9type_info
FNDA:0,_ZNSt23_Sp_counted_ptr_inplaceI10corethreadSaIS0_ELN9__gnu_cxx12_Lock_policyE2EE14_M_get_deleterERKSt9type_info
FN:546,_ZNSt23_Sp_counted_ptr_inplaceI14waitable_eventSaIS0_ELN9__gnu_cxx12_Lock_policyE2EE14_M_get_deleterERKSt9type_info
FNDA:0,_ZNSt23_Sp_counted_ptr_inplaceI14waitable_eventSaIS0_ELN9__gnu_cxx12_Lock_policyE2EE14_M_get_deleterERKSt9type_info
FN:546,_ZNSt23_Sp_counted_ptr_inplaceI6vpgnixSaIS0_ELN9__gnu_cxx12_Lock_policyE2EE14_M_get_deleterERKSt9type_info
FNDA:0,_ZNSt23_Sp_counted_ptr_inplaceI6vpgnixSaIS0_ELN9__gnu_cxx12_Lock_policyE2EE14_M_get_deleterERKSt9type_info
FN:565,_ZNSt23_Sp_counted_ptr_inplaceI10corethreadSaIS0_ELN9__gnu_cxx12_Lock_policyE2EE6_M_ptrEv
FNDA:3,_ZNSt23_Sp_counted_ptr_inplaceI10corethreadSaIS0_ELN9__gnu_cxx12_Lock_policyE2EE6_M_ptrEv
FN:565,_ZNSt23_Sp_counted_ptr_inplaceI14waitable_eventSaIS0_ELN9__gnu_cxx12_Lock_policyE2EE6_M_ptrEv
FNDA:9,_ZNSt23_Sp_counted_ptr_inplaceI14waitable_eventSaIS0_ELN9__gnu_cxx12_Lock_policyE2EE6_M_ptrEv
FN:565,_ZNSt23_Sp_counted_ptr_inplaceI9aspthreadSaIS0_ELN9__gnu_cxx12_Lock_policyE2EE6_M_ptrEv
FNDA:3,_ZNSt23_Sp_counted_ptr_inplaceI9aspthreadSaIS0_ELN9__gnu_cxx12_Lock_policyE2EE6_M_ptrEv
FN:565,_ZNSt23_Sp_counted_ptr_inplaceI6vpgnixSaIS0_ELN9__gnu_cxx12_Lock_policyE2EE6_M_ptrEv
FNDA:3,_ZNSt23_Sp_counted_ptr_inplaceI6vpgnixSaIS0_ELN9__gnu_cxx12_Lock_policyE2EE6_M_ptrEv
FN:587,_ZNSt14__shared_countILN9__gnu_cxx12_Lock_policyE2EEC2Ev
FNDA:28,_ZNSt14__shared_countILN9__gnu_cxx12_Lock_policyE2EEC2Ev
FN:643,_ZNSt14__shared_countILN9__gnu_cxx12_Lock_policyE2EEC2I6vpgnixSaIS4_EJRSt10shared_ptrI14waitable_eventERS6_I10corethreadES9_RS6_I7ILoggerEEEERPT_St20_Sp_alloc_shared_tagIT0_EDpOT1_
FNDA:1,_ZNSt14__shared_countILN9__gnu_cxx12_Lock_policyE2EEC2I6vpgnixSaIS4_EJRSt10shared_ptrI14waitable_eventERS6_I10corethreadES9_RS6_I7ILoggerEEEERPT_St20_Sp_alloc_shared_tagIT0_EDpOT1_
FN:643,_ZNSt14__shared_countILN9__gnu_cxx12_Lock_policyE2EEC2I10corethreadSaIS4_EJRSt10shared_ptrI14waitable_eventERS6_I9aspthreadES9_RS6_I7ILoggerEEEERPT_St20_Sp_alloc_shared_tagIT0_EDpOT1_
FNDA:1,_ZNSt14__shared_countILN9__gnu_cxx12_Lock_policyE2EEC2I10corethreadSaIS4_EJRSt10shared_ptrI14waitable_eventERS6_I9aspthreadES9_RS6_I7ILoggerEEEERPT_St20_Sp_alloc_shared_tagIT0_EDpOT1_
FN:643,_ZNSt14__shared_countILN9__gnu_cxx12_Lock_policyE2EEC2I9aspthreadSaIS4_EJRSt10shared_ptrI14waitable_eventERS6_I7ILoggerEEEERPT_St20_Sp_alloc_shared_tagIT0_EDpOT1_
FNDA:1,_ZNSt14__shared_countILN9__gnu_cxx12_Lock_policyE2EEC2I9aspthreadSaIS4_EJRSt10shared_ptrI14waitable_eventERS6_I7ILoggerEEEERPT_St20_Sp_alloc_shared_tagIT0_EDpOT1_
FN:643,_ZNSt14__shared_countILN9__gnu_cxx12_Lock_policyE2EEC2I14waitable_eventSaIS4_EJEEERPT_St20_Sp_alloc_shared_tagIT0_EDpOT1_
FNDA:3,_ZNSt14__shared_countILN9__gnu_cxx12_Lock_policyE2EEC2I14waitable_eventSaIS4_EJEEERPT_St20_Sp_alloc_shared_tagIT0_EDpOT1_
FN:702,_ZNSt14__shared_countILN9__gnu_cxx12_Lock_policyE2EED2Ev
FNDA:0,_ZNSt14__shared_countILN9__gnu_cxx12_Lock_policyE2EED2Ev
FN:708,_ZNSt14__shared_countILN9__gnu_cxx12_Lock_policyE2EEC2ERKS2_
FNDA:0,_ZNSt14__shared_countILN9__gnu_cxx12_Lock_policyE2EEC2ERKS2_
FN:716,_ZNSt14__shared_countILN9__gnu_cxx12_Lock_policyE2EEaSERKS2_
FNDA:11,_ZNSt14__shared_countILN9__gnu_cxx12_Lock_policyE2EEaSERKS2_
FN:731,_ZNSt14__shared_countILN9__gnu_cxx12_Lock_policyE2EE7_M_swapERS2_
FNDA:12,_ZNSt14__shared_countILN9__gnu_cxx12_Lock_policyE2EE7_M_swapERS2_
FN:984,_ZNKSt19__shared_ptr_accessI14waitable_eventLN9__gnu_cxx12_Lock_policyE2ELb0ELb0EEptEv
FNDA:3,_ZNKSt19__shared_ptr_accessI14waitable_eventLN9__gnu_cxx12_Lock_policyE2ELb0ELb0EEptEv
FN:984,_ZNKSt19__shared_ptr_accessI7ILoggerLN9__gnu_cxx12_Lock_policyE2ELb0ELb0EEptEv
FNDA:0,_ZNKSt19__shared_ptr_accessI7ILoggerLN9__gnu_cxx12_Lock_policyE2ELb0ELb0EEptEv
FN:984,_ZNKSt19__shared_ptr_accessI6vpgnixLN9__gnu_cxx12_Lock_policyE2ELb0ELb0EEptEv
FNDA:0,_ZNKSt19__shared_ptr_accessI6vpgnixLN9__gnu_cxx12_Lock_policyE2ELb0ELb0EEptEv
FN:992,_ZNKSt19__shared_ptr_accessI6vpgnixLN9__gnu_cxx12_Lock_policyE2ELb0ELb0EE6_M_getEv
FNDA:0,_ZNKSt19__shared_ptr_accessI6vpgnixLN9__gnu_cxx12_Lock_policyE2ELb0ELb0EE6_M_getEv
FN:992,_ZNKSt19__shared_ptr_accessI7ILoggerLN9__gnu_cxx12_Lock_policyE2ELb0ELb0EE6_M_getEv
FNDA:0,_ZNKSt19__shared_ptr_accessI7ILoggerLN9__gnu_cxx12_Lock_policyE2ELb0ELb0EE6_M_getEv
FN:992,_ZNKSt19__shared_ptr_accessI14waitable_eventLN9__gnu_cxx12_Lock_policyE2ELb0ELb0EE6_M_getEv
FNDA:3,_ZNKSt19__shared_ptr_accessI14waitable_eventLN9__gnu_cxx12_Lock_policyE2ELb0ELb0EE6_M_getEv
FN:1092,_ZNSt12__shared_ptrI6vpgnixLN9__gnu_cxx12_Lock_policyE2EEC2Ev
FNDA:1,_ZNSt12__shared_ptrI6vpgnixLN9__gnu_cxx12_Lock_policyE2EEC2Ev
FN:1092,_ZNSt12__shared_ptrI7ILoggerLN9__gnu_cxx12_Lock_policyE2EEC2Ev
FNDA:4,_ZNSt12__shared_ptrI7ILoggerLN9__gnu_cxx12_Lock_policyE2EEC2Ev
FN:1092,_ZNSt12__shared_ptrI9aspthreadLN9__gnu_cxx12_Lock_policyE2EEC2Ev
FNDA:2,_ZNSt12__shared_ptrI9aspthreadLN9__gnu_cxx12_Lock_policyE2EEC2Ev
FN:1092,_ZNSt12__shared_ptrI10corethreadLN9__gnu_cxx12_Lock_policyE2EEC2Ev
FNDA:2,_ZNSt12__shared_ptrI10corethreadLN9__gnu_cxx12_Lock_policyE2EEC2Ev
FN:1092,_ZNSt12__shared_ptrI14waitable_eventLN9__gnu_cxx12_Lock_policyE2EEC2Ev
FNDA:8,_ZNSt12__shared_ptrI14waitable_eventLN9__gnu_cxx12_Lock_policyE2EEC2Ev
FN:1152,_ZNSt12__shared_ptrI9aspthreadLN9__gnu_cxx12_Lock_policyE2EEC2ERKS3_
FNDA:1,_ZNSt12__shared_ptrI9aspthreadLN9__gnu_cxx12_Lock_policyE2EEC2ERKS3_
FN:1152,_ZNSt12__shared_ptrI10corethreadLN9__gnu_cxx12_Lock_policyE2EEC2ERKS3_
FNDA:1,_ZNSt12__shared_ptrI10corethreadLN9__gnu_cxx12_Lock_policyE2EEC2ERKS3_
FN:1152,_ZNSt12__shared_ptrI14waitable_eventLN9__gnu_cxx12_Lock_policyE2EEC2ERKS3_
FNDA:5,_ZNSt12__shared_ptrI14waitable_eventLN9__gnu_cxx12_Lock_policyE2EEC2ERKS3_
FN:1152,_ZNSt12__shared_ptrI7ILoggerLN9__gnu_cxx12_Lock_policyE2EEC2ERKS3_
FNDA:0,_ZNSt12__shared_ptrI7ILoggerLN9__gnu_cxx12_Lock_policyE2EEC2ERKS3_
FN:1153,_ZNSt12__shared_ptrI7ILoggerLN9__gnu_cxx12_Lock_policyE2EEaSERKS3_
FNDA:4,_ZNSt12__shared_ptrI7ILoggerLN9__gnu_cxx12_Lock_policyE2EEaSERKS3_
FN:1154,_ZNSt12__shared_ptrI7ILoggerLN9__gnu_cxx12_Lock_policyE2EED2Ev
FNDA:0,_ZNSt12__shared_ptrI7ILoggerLN9__gnu_cxx12_Lock_policyE2EED2Ev
FN:1154,_ZNSt12__shared_ptrI14waitable_eventLN9__gnu_cxx12_Lock_policyE2EED2Ev
FNDA:19,_ZNSt12__shared_ptrI14waitable_eventLN9__gnu_cxx12_Lock_policyE2EED2Ev
FN:1154,_ZNSt12__shared_ptrI6vpgnixLN9__gnu_cxx12_Lock_policyE2EED2Ev
FNDA:3,_ZNSt12__shared_ptrI6vpgnixLN9__gnu_cxx12_Lock_policyE2EED2Ev
FN:1154,_ZNSt12__shared_ptrI10corethreadLN9__gnu_cxx12_Lock_policyE2EED2Ev
FNDA:5,_ZNSt12__shared_ptrI10corethreadLN9__gnu_cxx12_Lock_policyE2EED2Ev
FN:1154,_ZNSt12__shared_ptrI9aspthreadLN9__gnu_cxx12_Lock_policyE2EED2Ev
FNDA:5,_ZNSt12__shared_ptrI9aspthreadLN9__gnu_cxx12_Lock_policyE2EED2Ev
FN:1161,_ZNSt12__shared_ptrI14waitable_eventLN9__gnu_cxx12_Lock_policyE2EEC2EOS3_
FNDA:3,_ZNSt12__shared_ptrI14waitable_eventLN9__gnu_cxx12_Lock_policyE2EEC2EOS3_
FN:1161,_ZNSt12__shared_ptrI6vpgnixLN9__gnu_cxx12_Lock_policyE2EEC2EOS3_
FNDA:1,_ZNSt12__shared_ptrI6vpgnixLN9__gnu_cxx12_Lock_policyE2EEC2EOS3_
FN:1161,_ZNSt12__shared_ptrI10corethreadLN9__gnu_cxx12_Lock_policyE2EEC2EOS3_
FNDA:1,_ZNSt12__shared_ptrI10corethreadLN9__gnu_cxx12_Lock_policyE2EEC2EOS3_
FN:1161,_ZNSt12__shared_ptrI9aspthreadLN9__gnu_cxx12_Lock_policyE2EEC2EOS3_
FNDA:1,_ZNSt12__shared_ptrI9aspthreadLN9__gnu_cxx12_Lock_policyE2EEC2EOS3_
FN:1248,_ZNSt12__shared_ptrI14waitable_eventLN9__gnu_cxx12_Lock_policyE2EEaSEOS3_
FNDA:3,_ZNSt12__shared_ptrI14waitable_eventLN9__gnu_cxx12_Lock_policyE2EEaSEOS3_
FN:1248,_ZNSt12__shared_ptrI9aspthreadLN9__gnu_cxx12_Lock_policyE2EEaSEOS3_
FNDA:1,_ZNSt12__shared_ptrI9aspthreadLN9__gnu_cxx12_Lock_policyE2EEaSEOS3_
FN:1248,_ZNSt12__shared_ptrI10corethreadLN9__gnu_cxx12_Lock_policyE2EEaSEOS3_
FNDA:1,_ZNSt12__shared_ptrI10corethreadLN9__gnu_cxx12_Lock_policyE2EEaSEOS3_
FN:1248,_ZNSt12__shared_ptrI6vpgnixLN9__gnu_cxx12_Lock_policyE2EEaSEOS3_
FNDA:1,_ZNSt12__shared_ptrI6vpgnixLN9__gnu_cxx12_Lock_policyE2EEaSEOS3_
FN:1295,_ZNKSt12__shared_ptrI7ILoggerLN9__gnu_cxx12_Lock_policyE2EE3getEv
FNDA:0,_ZNKSt12__shared_ptrI7ILoggerLN9__gnu_cxx12_Lock_policyE2EE3getEv
FN:1295,_ZNKSt12__shared_ptrI6vpgnixLN9__gnu_cxx12_Lock_policyE2EE3getEv
FNDA:0,_ZNKSt12__shared_ptrI6vpgnixLN9__gnu_cxx12_Lock_policyE2EE3getEv
FN:1295,_ZNKSt12__shared_ptrI14waitable_eventLN9__gnu_cxx12_Lock_policyE2EE3getEv
FNDA:3,_ZNKSt12__shared_ptrI14waitable_eventLN9__gnu_cxx12_Lock_policyE2EE3getEv
FN:1314,_ZNSt12__shared_ptrI9aspthreadLN9__gnu_cxx12_Lock_policyE2EE4swapERS3_
FNDA:1,_ZNSt12__shared_ptrI9aspthreadLN9__gnu_cxx12_Lock_policyE2EE4swapERS3_
FN:1314,_ZNSt12__shared_ptrI10corethreadLN9__gnu_cxx12_Lock_policyE2EE4swapERS3_
FNDA:1,_ZNSt12__shared_ptrI10corethreadLN9__gnu_cxx12_Lock_policyE2EE4swapERS3_
FN:1314,_ZNSt12__shared_ptrI6vpgnixLN9__gnu_cxx12_Lock_policyE2EE4swapERS3_
FNDA:1,_ZNSt12__shared_ptrI6vpgnixLN9__gnu_cxx12_Lock_policyE2EE4swapERS3_
FN:1314,_ZNSt12__shared_ptrI14waitable_eventLN9__gnu_cxx12_Lock_policyE2EE4swapERS3_
FNDA:3,_ZNSt12__shared_ptrI14waitable_eventLN9__gnu_cxx12_Lock_policyE2EE4swapERS3_
FN:1341,_ZNSt12__shared_ptrI10corethreadLN9__gnu_cxx12_Lock_policyE2EEC2ISaIS0_EJRSt10shared_ptrI14waitable_eventERS6_I9aspthreadES9_RS6_I7ILoggerEEEESt20_Sp_alloc_shared_tagIT_EDpOT0_
FNDA:1,_ZNSt12__shared_ptrI10corethreadLN9__gnu_cxx12_Lock_policyE2EEC2ISaIS0_EJRSt10shared_ptrI14waitable_eventERS6_I9aspthreadES9_RS6_I7ILoggerEEEESt20_Sp_alloc_shared_tagIT_EDpOT0_
FN:1341,_ZNSt12__shared_ptrI14waitable_eventLN9__gnu_cxx12_Lock_policyE2EEC2ISaIS0_EJEEESt20_Sp_alloc_shared_tagIT_EDpOT0_
FNDA:3,_ZNSt12__shared_ptrI14waitable_eventLN9__gnu_cxx12_Lock_policyE2EEC2ISaIS0_EJEEESt20_Sp_alloc_shared_tagIT_EDpOT0_
FN:1341,_ZNSt12__shared_ptrI9aspthreadLN9__gnu_cxx12_Lock_policyE2EEC2ISaIS0_EJRSt10shared_ptrI14waitable_eventERS6_I7ILoggerEEEESt20_Sp_alloc_shared_tagIT_EDpOT0_
FNDA:1,_ZNSt12__shared_ptrI9aspthreadLN9__gnu_cxx12_Lock_policyE2EEC2ISaIS0_EJRSt10shared_ptrI14waitable_eventERS6_I7ILoggerEEEESt20_Sp_alloc_shared_tagIT_EDpOT0_
FN:1341,_ZNSt12__shared_ptrI6vpgnixLN9__gnu_cxx12_Lock_policyE2EEC2ISaIS0_EJRSt10shared_ptrI14waitable_eventERS6_I10corethreadES9_RS6_I7ILoggerEEEESt20_Sp_alloc_shared_tagIT_EDpOT0_
FNDA:1,_ZNSt12__shared_ptrI6vpgnixLN9__gnu_cxx12_Lock_policyE2EEC2ISaIS0_EJRSt10shared_ptrI14waitable_eventERS6_I10corethreadES9_RS6_I7ILoggerEEEESt20_Sp_alloc_shared_tagIT_EDpOT0_
FN:1386,_ZNSt12__shared_ptrI10corethreadLN9__gnu_cxx12_Lock_policyE2EE31_M_enable_shared_from_this_withIS0_S0_EENSt9enable_ifIXntsrNS3_15__has_esft_baseIT0_vEE5valueEvE4typeEPT_
FNDA:1,_ZNSt12__shared_ptrI10corethreadLN9__gnu_cxx12_Lock_policyE2EE31_M_enable_shared_from_this_withIS0_S0_EENSt9enable_ifIXntsrNS3_15__has_esft_baseIT0_vEE5valueEvE4typeEPT_
FN:1386,_ZNSt12__shared_ptrI9aspthreadLN9__gnu_cxx12_Lock_policyE2EE31_M_enable_shared_from_this_withIS0_S0_EENSt9enable_ifIXntsrNS3_15__has_esft_baseIT0_vEE5valueEvE4typeEPT_
FNDA:1,_ZNSt12__shared_ptrI9aspthreadLN9__gnu_cxx12_Lock_policyE2EE31_M_enable_shared_from_this_withIS0_S0_EENSt9enable_ifIXntsrNS3_15__has_esft_baseIT0_vEE5valueEvE4typeEPT_
FN:1386,_ZNSt12__shared_ptrI14waitable_eventLN9__gnu_cxx12_Lock_policyE2EE31_M_enable_shared_from_this_withIS0_S0_EENSt9enable_ifIXntsrNS3_15__has_esft_baseIT0_vEE5valueEvE4typeEPT_
FNDA:3,_ZNSt12__shared_ptrI14waitable_eventLN9__gnu_cxx12_Lock_policyE2EE31_M_enable_shared_from_this_withIS0_S0_EENSt9enable_ifIXntsrNS3_15__has_esft_baseIT0_vEE5valueEvE4typeEPT_
FN:1386,_ZNSt12__shared_ptrI6vpgnixLN9__gnu_cxx12_Lock_policyE2EE31_M_enable_shared_from_this_withIS0_S0_EENSt9enable_ifIXntsrNS3_15__has_esft_baseIT0_vEE5valueEvE4typeEPT_
FNDA:1,_ZNSt12__shared_ptrI6vpgnixLN9__gnu_cxx12_Lock_policyE2EE31_M_enable_shared_from_this_withIS0_S0_EENSt9enable_ifIXntsrNS3_15__has_esft_baseIT0_vEE5valueEvE4typeEPT_
DA:126,0
DA:127,0
DA:130,0
DA:131,0
DA:130,0
DA:131,0
DA:140,0
DA:141,0
DA:147,0
DA:148,0
DA:161,0
DA:165,0
DA:168,0
DA:180,0
DA:181,0
DA:184,0
DA:187,0
DA:385,1
DA:385,1
DA:385,1
DA:385,3
DA:389,6
DA:389,2
DA:389,2
DA:389,2
DA:479,0
DA:482,0
DA:502,1
DA:502,1
DA:502,1
DA:502,3
DA:504,6
DA:504,2
DA:504,2
DA:504,2
DA:514,1
DA:515,1
DA:519,1
DA:521,1
DA:514,1
DA:515,1
DA:519,1
DA:521,1
DA:514,1
DA:515,1
DA:519,1
DA:521,1
DA:514,3
DA:515,3
DA:519,3
DA:521,3
DA:523,0
DA:523,3
DA:523,0
DA:523,1
DA:523,0
DA:523,1
DA:523,0
DA:523,1
DA:526,3
DA:528,3
DA:529,3
DA:526,1
DA:528,1
DA:529,1
DA:526,1
DA:528,1
DA:529,1
DA:526,1
DA:528,1
DA:529,1
DA:533,3
DA:535,3
DA:536,3
DA:537,3
DA:538,3
DA:533,1
DA:535,1
DA:536,1
DA:537,1
DA:538,1
DA:533,1
DA:535,1
DA:536,1
DA:537,1
DA:538,1
DA:533,1
DA:535,1
DA:536,1
DA:537,1
DA:538,1
DA:546,0
DA:548,0
DA:553,0
DA:554,0
DA:556,0
DA:561,0
DA:562,0
DA:546,0
DA:548,0
DA:553,0
DA:554,0
DA:556,0
DA:561,0
DA:562,0
DA:546,0
DA:548,0
DA:553,0
DA:554,0
DA:556,0
DA:561,0
DA:562,0
DA:546,0
DA:548,0
DA:553,0
DA:554,0
DA:556,0
DA:561,0
DA:562,0
DA:565,3
DA:565,3
DA:565,3
DA:565,9
DA:587,28
DA:588,28
DA:643,1
DA:647,1
DA:648,1
DA:649,1
DA:650,2
DA:651,1
DA:652,1
DA:653,1
DA:654,1
DA:655,1
DA:643,1
DA:647,1
DA:648,1
DA:649,1
DA:650,2
DA:651,1
DA:652,1
DA:653,1
DA:654,1
DA:655,1
DA:643,1
DA:647,1
DA:648,1
DA:649,1
DA:650,2
DA:651,1
DA:652,1
DA:653,1
DA:654,1
DA:655,1
DA:643,3
DA:647,3
DA:648,3
DA:649,3
DA:650,3
DA:652,3
DA:653,3
DA:654,3
DA:655,3
DA:702,0
DA:704,0
DA:705,0
DA:706,0
DA:708,0
DA:709,0
DA:711,0
DA:712,0
DA:713,0
DA:716,11
DA:718,11
DA:719,11
DA:721,11
DA:722,11
DA:723,11
DA:724,0
DA:725,11
DA:727,11
DA:731,12
DA:733,12
DA:734,12
DA:735,12
DA:736,12
DA:984,0
DA:987,0
DA:984,0
DA:987,0
DA:984,3
DA:987,3
DA:992,0
DA:993,0
DA:992,0
DA:993,0
DA:992,3
DA:993,3
DA:1092,4
DA:1093,4
DA:1094,4
DA:1092,2
DA:1093,2
DA:1094,2
DA:1092,2
DA:1093,2
DA:1094,2
DA:1092,1
DA:1093,1
DA:1094,1
DA:1092,8
DA:1093,8
DA:1094,8
DA:1152,1
DA:1152,1
DA:1152,0
DA:1152,5
DA:1153,4
DA:1154,0
DA:1154,5
DA:1154,5
DA:1154,3
DA:1154,19
DA:1161,1
DA:1162,1
DA:1164,1
DA:1165,1
DA:1166,1
DA:1161,1
DA:1162,1
DA:1164,1
DA:1165,1
DA:1166,1
DA:1161,1
DA:1162,1
DA:1164,1
DA:1165,1
DA:1166,1
DA:1161,3
DA:1162,3
DA:1164,3
DA:1165,3
DA:1166,3
DA:1248,1
DA:1250,1
DA:1251,1
DA:1248,1
DA:1250,1
DA:1251,1
DA:1248,1
DA:1250,1
DA:1251,1
DA:1248,3
DA:1250,3
DA:1251,3
DA:1295,0
DA:1296,0
DA:1295,0
DA:1296,0
DA:1295,3
DA:1296,3
DA:1314,1
DA:1316,1
DA:1317,1
DA:1318,1
DA:1314,1
DA:1316,1
DA:1317,1
DA:1318,1
DA:1314,1
DA:1316,1
DA:1317,1
DA:1318,1
DA:1314,3
DA:1316,3
DA:1317,3
DA:1318,3
DA:1341,1
DA:1342,1
DA:1343,1
DA:1341,1
DA:1342,1
DA:1343,1
DA:1341,1
DA:1342,1
DA:1343,1
DA:1341,3
DA:1342,3
DA:1343,3
DA:1386,1
DA:1387,1
DA:1386,1
DA:1387,1
DA:1386,1
DA:1387,1
DA:1386,3
DA:1387,3
end_of_record
SF:/usr/include/c++/11/iostream
end_of_record
SF:/usr/include/c++/11/bits/move.h
FN:49,_ZSt11__addressofISaISt23_Sp_counted_ptr_inplaceI10corethreadSaIS1_ELN9__gnu_cxx12_Lock_policyE2EEEEPT_RS7_
FNDA:2,_ZSt11__addressofISaISt23_Sp_counted_ptr_inplaceI10corethreadSaIS1_ELN9__gnu_cxx12_Lock_policyE2EEEEPT_RS7_
FN:49,_ZSt11__addressofISaISt23_Sp_counted_ptr_inplaceI9aspthreadSaIS1_ELN9__gnu_cxx12_Lock_policyE2EEEEPT_RS7_
FNDA:2,_ZSt11__addressofISaISt23_Sp_counted_ptr_inplaceI9aspthreadSaIS1_ELN9__gnu_cxx12_Lock_policyE2EEEEPT_RS7_
FN:49,_ZSt11__addressofISaISt23_Sp_counted_ptr_inplaceI14waitable_eventSaIS1_ELN9__gnu_cxx12_Lock_policyE2EEEEPT_RS7_
FNDA:6,_ZSt11__addressofISaISt23_Sp_counted_ptr_inplaceI14waitable_eventSaIS1_ELN9__gnu_cxx12_Lock_policyE2EEEEPT_RS7_
FN:49,_ZSt11__addressofIKcEPT_RS1_
FNDA:0,_ZSt11__addressofIKcEPT_RS1_
FN:49,_ZSt11__addressofISaISt23_Sp_counted_ptr_inplaceI6vpgnixSaIS1_ELN9__gnu_cxx12_Lock_policyE2EEEEPT_RS7_
FNDA:2,_ZSt11__addressofISaISt23_Sp_counted_ptr_inplaceI6vpgnixSaIS1_ELN9__gnu_cxx12_Lock_policyE2EEEEPT_RS7_
FN:49,_ZSt11__addressofIcEPT_RS0_
FNDA:0,_ZSt11__addressofIcEPT_RS0_
FN:77,_ZSt7forwardIRSt10shared_ptrI14waitable_eventEEOT_RNSt16remove_referenceIS4_E4typeE
FNDA:40,_ZSt7forwardIRSt10shared_ptrI14waitable_eventEEOT_RNSt16remove_referenceIS4_E4typeE
FN:77,_ZSt7forwardIRSt10shared_ptrI7ILoggerEEOT_RNSt16remove_referenceIS4_E4typeE
FNDA:24,_ZSt7forwardIRSt10shared_ptrI7ILoggerEEOT_RNSt16remove_referenceIS4_E4typeE
FN:77,_ZSt7forwardIRSt10shared_ptrI9aspthreadEEOT_RNSt16remove_referenceIS4_E4typeE
FNDA:8,_ZSt7forwardIRSt10shared_ptrI9aspthreadEEOT_RNSt16remove_referenceIS4_E4typeE
FN:77,_ZSt7forwardIRSt10shared_ptrI10corethreadEEOT_RNSt16remove_referenceIS4_E4typeE
FNDA:8,_ZSt7forwardIRSt10shared_ptrI10corethreadEEOT_RNSt16remove_referenceIS4_E4typeE
FN:104,_ZSt4moveIRSt12__shared_ptrI10corethreadLN9__gnu_cxx12_Lock_policyE2EEEONSt16remove_referenceIT_E4typeEOS7_
FNDA:1,_ZSt4moveIRSt12__shared_ptrI10corethreadLN9__gnu_cxx12_Lock_policyE2EEEONSt16remove_referenceIT_E4typeEOS7_
FN:104,_ZSt4moveIRSt10shared_ptrI14waitable_eventEEONSt16remove_referenceIT_E4typeEOS5_
FNDA:3,_ZSt4moveIRSt10shared_ptrI14waitable_eventEEONSt16remove_referenceIT_E4typeEOS5_
FN:104,_ZSt4moveIRSt12__shared_ptrI9aspthreadLN9__gnu_cxx12_Lock_policyE2EEEONSt16remove_referenceIT_E4typeEOS7_
FNDA:1,_ZSt4moveIRSt12__shared_ptrI9aspthreadLN9__gnu_cxx12_Lock_policyE2EEEONSt16remove_referenceIT_E4typeEOS7_
FN:104,_ZSt4moveIRSt12__shared_ptrI14waitable_eventLN9__gnu_cxx12_Lock_policyE2EEEONSt16remove_referenceIT_E4typeEOS7_
FNDA:3,_ZSt4moveIRSt12__shared_ptrI14waitable_eventLN9__gnu_cxx12_Lock_policyE2EEEONSt16remove_referenceIT_E4typeEOS7_
FN:104,_ZSt4moveIRSt10shared_ptrI6vpgnixEEONSt16remove_referenceIT_E4typeEOS5_
FNDA:1,_ZSt4moveIRSt10shared_ptrI6vpgnixEEONSt16remove_referenceIT_E4typeEOS5_
FN:104,_ZSt4moveIRSt10shared_ptrI10corethreadEEONSt16remove_referenceIT_E4typeEOS5_
FNDA:1,_ZSt4moveIRSt10shared_ptrI10corethreadEEONSt16remove_referenceIT_E4typeEOS5_
FN:104,_ZSt4moveIRSt10shared_ptrI9aspthreadEEONSt16remove_referenceIT_E4typeEOS5_
FNDA:1,_ZSt4moveIRSt10shared_ptrI9aspthreadEEONSt16remove_referenceIT_E4typeEOS5_
FN:104,_ZSt4moveIRSt12__shared_ptrI6vpgnixLN9__gnu_cxx12_Lock_policyE2EEEONSt16remove_referenceIT_E4typeEOS7_
FNDA:1,_ZSt4moveIRSt12__shared_ptrI6vpgnixLN9__gnu_cxx12_Lock_policyE2EEEONSt16remove_referenceIT_E4typeEOS7_
FN:104,_ZSt4moveIRP14waitable_eventEONSt16remove_referenceIT_E4typeEOS4_
FNDA:9,_ZSt4moveIRP14waitable_eventEONSt16remove_referenceIT_E4typeEOS4_
FN:104,_ZSt4moveIRP9aspthreadEONSt16remove_referenceIT_E4typeEOS4_
FNDA:3,_ZSt4moveIRP9aspthreadEONSt16remove_referenceIT_E4typeEOS4_
FN:104,_ZSt4moveIRP10corethreadEONSt16remove_referenceIT_E4typeEOS4_
FNDA:3,_ZSt4moveIRP10corethreadEONSt16remove_referenceIT_E4typeEOS4_
FN:104,_ZSt4moveIRP6vpgnixEONSt16remove_referenceIT_E4typeEOS4_
FNDA:3,_ZSt4moveIRP6vpgnixEONSt16remove_referenceIT_E4typeEOS4_
FN:145,_ZSt9addressofIcEPT_RS0_
FNDA:0,_ZSt9addressofIcEPT_RS0_
FN:145,_ZSt9addressofIKcEPT_RS1_
FNDA:0,_ZSt9addressofIKcEPT_RS1_
FN:196,_ZSt4swapIP14waitable_eventENSt9enable_ifIXsrSt6__and_IJSt6__not_ISt15__is_tuple_likeIT_EESt21is_move_constructibleIS6_ESt18is_move_assignableIS6_EEE5valueEvE4typeERS6_SG_
FNDA:3,_ZSt4swapIP14waitable_eventENSt9enable_ifIXsrSt6__and_IJSt6__not_ISt15__is_tuple_likeIT_EESt21is_move_constructibleIS6_ESt18is_move_assignableIS6_EEE5valueEvE4typeERS6_SG_
FN:196,_ZSt4swapIP9aspthreadENSt9enable_ifIXsrSt6__and_IJSt6__not_ISt15__is_tuple_likeIT_EESt21is_move_constructibleIS6_ESt18is_move_assignableIS6_EEE5valueEvE4typeERS6_SG_
FNDA:1,_ZSt4swapIP9aspthreadENSt9enable_ifIXsrSt6__and_IJSt6__not_ISt15__is_tuple_likeIT_EESt21is_move_constructibleIS6_ESt18is_move_assignableIS6_EEE5valueEvE4typeERS6_SG_
FN:196,_ZSt4swapIP10corethreadENSt9enable_ifIXsrSt6__and_IJSt6__not_ISt15__is_tuple_likeIT_EESt21is_move_constructibleIS6_ESt18is_move_assignableIS6_EEE5valueEvE4typeERS6_SG_
FNDA:1,_ZSt4swapIP10corethreadENSt9enable_ifIXsrSt6__and_IJSt6__not_ISt15__is_tuple_likeIT_EESt21is_move_constructibleIS6_ESt18is_move_assignableIS6_EEE5valueEvE4typeERS6_SG_
FN:196,_ZSt4swapIP6vpgnixENSt9enable_ifIXsrSt6__and_IJSt6__not_ISt15__is_tuple_likeIT_EESt21is_move_constructibleIS6_ESt18is_move_assignableIS6_EEE5valueEvE4typeERS6_SG_
FNDA:1,_ZSt4swapIP6vpgnixENSt9enable_ifIXsrSt6__and_IJSt6__not_ISt15__is_tuple_likeIT_EESt21is_move_constructibleIS6_ESt18is_move_assignableIS6_EEE5valueEvE4typeERS6_SG_
DA:49,2
DA:50,2
DA:49,2
DA:50,2
DA:49,2
DA:50,2
DA:49,6
DA:50,6
DA:49,0
DA:50,0
DA:49,0
DA:50,0
DA:77,8
DA:78,8
DA:77,8
DA:78,8
DA:77,24
DA:78,24
DA:77,40
DA:78,40
DA:104,3
DA:105,3
DA:104,3
DA:105,3
DA:104,3
DA:105,3
DA:104,9
DA:105,9
DA:104,1
DA:105,1
DA:104,1
DA:105,1
DA:104,1
DA:105,1
DA:104,3
DA:105,3
DA:104,1
DA:105,1
DA:104,1
DA:105,1
DA:104,1
DA:105,1
DA:104,3
DA:105,3
DA:145,0
DA:146,0
DA:145,0
DA:146,0
DA:196,1
DA:204,1
DA:205,1
DA:206,1
DA:207,1
DA:196,1
DA:204,1
DA:205,1
DA:206,1
DA:207,1
DA:196,1
DA:204,1
DA:205,1
DA:206,1
DA:207,1
DA:196,3
DA:204,3
DA:205,3
DA:206,3
DA:207,3
end_of_record
SF:/home/yackey/projects/waitables/include/waitable/IWaitable.h
end_of_record
SF:/usr/include/c++/11/bits/stl_construct.h
FN:80,_ZSt10destroy_atI14waitable_eventEvPT_
FNDA:3,_ZSt10destroy_atI14waitable_eventEvPT_
FN:80,_ZSt10destroy_atI9aspthreadEvPT_
FNDA:1,_ZSt10destroy_atI9aspthreadEvPT_
FN:80,_ZSt10destroy_atI10corethreadEvPT_
FNDA:1,_ZSt10destroy_atI10corethreadEvPT_
FN:80,_ZSt10destroy_atI6vpgnixEvPT_
FNDA:1,_ZSt10destroy_atI6vpgnixEvPT_
FN:94,_ZSt12construct_atI6vpgnixJRSt10shared_ptrI14waitable_eventERS1_I10corethreadES4_RS1_I7ILoggerEEEDTgsnwcvPvLi0E_T_pispcl7declvalIT0_EEEEPSC_DpOSD_
FNDA:1,_ZSt12construct_atI6vpgnixJRSt10shared_ptrI14waitable_eventERS1_I10corethreadES4_RS1_I7ILoggerEEEDTgsnwcvPvLi0E_T_pispcl7declvalIT0_EEEEPSC_DpOSD_
FN:94,_ZSt12construct_atI10corethreadJRSt10shared_ptrI14waitable_eventERS1_I9aspthreadES4_RS1_I7ILoggerEEEDTgsnwcvPvLi0E_T_pispcl7declvalIT0_EEEEPSC_DpOSD_
FNDA:1,_ZSt12construct_atI10corethreadJRSt10shared_ptrI14waitable_eventERS1_I9aspthreadES4_RS1_I7ILoggerEEEDTgsnwcvPvLi0E_T_pispcl7declvalIT0_EEEEPSC_DpOSD_
FN:94,_ZSt12construct_atI9aspthreadJRSt10shared_ptrI14waitable_eventERS1_I7ILoggerEEEDTgsnwcvPvLi0E_T_pispcl7declvalIT0_EEEEPS9_DpOSA_
FNDA:1,_ZSt12construct_atI9aspthreadJRSt10shared_ptrI14waitable_eventERS1_I7ILoggerEEEDTgsnwcvPvLi0E_T_pispcl7declvalIT0_EEEEPS9_DpOSA_
FN:94,_ZSt12construct_atI14waitable_eventJEEDTgsnwcvPvLi0E_T_pispcl7declvalIT0_EEEEPS2_DpOS3_
FNDA:3,_ZSt12construct_atI14waitable_eventJEEDTgsnwcvPvLi0E_T_pispcl7declvalIT0_EEEEPS2_DpOS3_
DA:80,3
DA:88,3
DA:89,3
DA:80,1
DA:88,1
DA:89,1
DA:80,1
DA:88,1
DA:89,1
DA:80,1
DA:88,1
DA:89,1
DA:94,1
DA:97,1
DA:94,1
DA:97,1
DA:94,1
DA:97,1
DA:94,3
DA:97,6
end_of_record
SF:/usr/include/c++/11/bits/stl_iterator_base_types.h
FN:238,_ZSt19__iterator_categoryIPKcENSt15iterator_traitsIT_E17iterator_categoryERKS3_
FNDA:0,_ZSt19__iterator_categoryIPKcENSt15iterator_traitsIT_E17iterator_categoryERKS3_
DA:238,0
DA:239,0
end_of_record
SF:/usr/include/c++/11/bits/stl_iterator_base_funcs.h
FN:98,_ZSt10__distanceIPKcENSt15iterator_traitsIT_E15difference_typeES3_S3_St26random_access_iterator_tag
FNDA:0,_ZSt10__distanceIPKcENSt15iterator_traitsIT_E15difference_typeES3_S3_St26random_access_iterator_tag
FN:138,_ZSt8distanceIPKcENSt15iterator_traitsIT_E15difference_typeES3_S3_
FNDA:0,_ZSt8distanceIPKcENSt15iterator_traitsIT_E15difference_typeES3_S3_
DA:98,0
DA:104,0
DA:138,0
DA:141,0
DA:142,0
end_of_record
SF:/usr/include/c++/11/ext/aligned_buffer.h
FN:102,_ZN9__gnu_cxx16__aligned_bufferI6vpgnixE7_M_addrEv
FNDA:3,_ZN9__gnu_cxx16__aligned_bufferI6vpgnixE7_M_addrEv
FN:102,_ZN9__gnu_cxx16__aligned_bufferI10corethreadE7_M_addrEv
FNDA:3,_ZN9__gnu_cxx16__aligned_bufferI10corethreadE7_M_addrEv
FN:102,_ZN9__gnu_cxx16__aligned_bufferI9aspthreadE7_M_addrEv
FNDA:3,_ZN9__gnu_cxx16__aligned_bufferI9aspthreadE7_M_addrEv
FN:102,_ZN9__gnu_cxx16__aligned_bufferI14waitable_eventE7_M_addrEv
FNDA:9,_ZN9__gnu_cxx16__aligned_bufferI14waitable_eventE7_M_addrEv
FN:114,_ZN9__gnu_cxx16__aligned_bufferI6vpgnixE6_M_ptrEv
FNDA:3,_ZN9__gnu_cxx16__aligned_bufferI6vpgnixE6_M_ptrEv
FN:114,_ZN9__gnu_cxx16__aligned_bufferI10corethreadE6_M_ptrEv
FNDA:3,_ZN9__gnu_cxx16__aligned_bufferI10corethreadE6_M_ptrEv
FN:114,_ZN9__gnu_cxx16__aligned_bufferI9aspthreadE6_M_ptrEv
FNDA:3,_ZN9__gnu_cxx16__aligned_bufferI9aspthreadE6_M_ptrEv
FN:114,_ZN9__gnu_cxx16__aligned_bufferI14waitable_eventE6_M_ptrEv
FNDA:9,_ZN9__gnu_cxx16__aligned_bufferI14waitable_eventE6_M_ptrEv
DA:102,3
DA:104,3
DA:102,3
DA:104,3
DA:102,3
DA:104,3
DA:102,9
DA:104,9
DA:114,3
DA:115,3
DA:114,3
DA:115,3
DA:114,3
DA:115,3
DA:114,9
DA:115,9
end_of_record
SF:/usr/include/c++/11/bits/stl_algobase.h
FN:313,_ZSt12__niter_baseIPcET_S1_
FNDA:0,_ZSt12__niter_baseIPcET_S1_
FN:313,_ZSt12__niter_baseIPKcET_S2_
FNDA:0,_ZSt12__niter_baseIPKcET_S2_
FN:335,_ZSt12__niter_wrapIPcET_RKS1_S1_
FNDA:0,_ZSt12__niter_wrapIPcET_RKS1_S1_
FN:380,_ZNSt11__copy_moveILb0ELb0ESt26random_access_iterator_tagE8__copy_mIPKcPcEET0_T_S7_S6_
FNDA:0,_ZNSt11__copy_moveILb0ELb0ESt26random_access_iterator_tagE8__copy_mIPKcPcEET0_T_S7_S6_
FN:420,_ZNSt11__copy_moveILb0ELb1ESt26random_access_iterator_tagE8__copy_mIcEEPT_PKS3_S6_S4_
FNDA:0,_ZNSt11__copy_moveILb0ELb1ESt26random_access_iterator_tagE8__copy_mIcEEPT_PKS3_S6_S4_
FN:486,_ZSt14__copy_move_a2ILb0EPKcPcET1_T0_S4_S3_
FNDA:0,_ZSt14__copy_move_a2ILb0EPKcPcET1_T0_S4_S3_
FN:521,_ZSt14__copy_move_a1ILb0EPKcPcET1_T0_S4_S3_
FNDA:0,_ZSt14__copy_move_a1ILb0EPKcPcET1_T0_S4_S3_
FN:527,_ZSt13__copy_move_aILb0EPKcPcET1_T0_S4_S3_
FNDA:0,_ZSt13__copy_move_aILb0EPKcPcET1_T0_S4_S3_
FN:611,_ZSt4copyIPKcPcET0_T_S4_S3_
FNDA:0,_ZSt4copyIPKcPcET0_T_S4_S3_
DA:313,0
DA:315,0
DA:313,0
DA:315,0
DA:335,0
DA:336,0
DA:380,0
DA:383,0
DA:385,0
DA:386,0
DA:387,0
DA:389,0
DA:420,0
DA:429,0
DA:430,0
DA:431,0
DA:432,0
DA:486,0
DA:490,0
DA:492,0
DA:495,0
DA:521,0
DA:522,0
DA:527,0
DA:529,0
DA:532,0
DA:611,0
DA:620,0
end_of_record
SF:/usr/include/c++/11/bits/shared_ptr.h
FN:148,_ZNSt10shared_ptrI14waitable_eventEC2Ev
FNDA:8,_ZNSt10shared_ptrI14waitable_eventEC2Ev
FN:148,_ZNSt10shared_ptrI6vpgnixEC2Ev
FNDA:1,_ZNSt10shared_ptrI6vpgnixEC2Ev
FN:148,_ZNSt10shared_ptrI10corethreadEC2Ev
FNDA:2,_ZNSt10shared_ptrI10corethreadEC2Ev
FN:148,_ZNSt10shared_ptrI9aspthreadEC2Ev
FNDA:2,_ZNSt10shared_ptrI9aspthreadEC2Ev
FN:148,_ZNSt10shared_ptrI7ILoggerEC2Ev
FNDA:4,_ZNSt10shared_ptrI7ILoggerEC2Ev
FN:150,_ZNSt10shared_ptrI9aspthreadEC2ERKS1_
FNDA:1,_ZNSt10shared_ptrI9aspthreadEC2ERKS1_
FN:150,_ZNSt10shared_ptrI7ILoggerEC2ERKS1_
FNDA:0,_ZNSt10shared_ptrI7ILoggerEC2ERKS1_
FN:150,_ZNSt10shared_ptrI14waitable_eventEC2ERKS1_
FNDA:5,_ZNSt10shared_ptrI14waitable_eventEC2ERKS1_
FN:150,_ZNSt10shared_ptrI10corethreadEC2ERKS1_
FNDA:1,_ZNSt10shared_ptrI10corethreadEC2ERKS1_
FN:359,_ZNSt10shared_ptrI7ILoggerEaSERKS1_
FNDA:4,_ZNSt10shared_ptrI7ILoggerEaSERKS1_
FN:383,_ZNSt10shared_ptrI6vpgnixEaSEOS1_
FNDA:1,_ZNSt10shared_ptrI6vpgnixEaSEOS1_
FN:383,_ZNSt10shared_ptrI10corethreadEaSEOS1_
FNDA:1,_ZNSt10shared_ptrI10corethreadEaSEOS1_
FN:383,_ZNSt10shared_ptrI9aspthreadEaSEOS1_
FNDA:1,_ZNSt10shared_ptrI9aspthreadEaSEOS1_
FN:383,_ZNSt10shared_ptrI14waitable_eventEaSEOS1_
FNDA:3,_ZNSt10shared_ptrI14waitable_eventEaSEOS1_
FN:408,_ZNSt10shared_ptrI14waitable_eventEC2ISaIS0_EJEEESt20_Sp_alloc_shared_tagIT_EDpOT0_
FNDA:3,_ZNSt10shared_ptrI14waitable_eventEC2ISaIS0_EJEEESt20_Sp_alloc_shared_tagIT_EDpOT0_
FN:408,_ZNSt10shared_ptrI9aspthreadEC2ISaIS0_EJRS_I14waitable_eventERS_I7ILoggerEEEESt20_Sp_alloc_shared_tagIT_EDpOT0_
FNDA:1,_ZNSt10shared_ptrI9aspthreadEC2ISaIS0_EJRS_I14waitable_eventERS_I7ILoggerEEEESt20_Sp_alloc_shared_tagIT_EDpOT0_
FN:408,_ZNSt10shared_ptrI10corethreadEC2ISaIS0_EJRS_I14waitable_eventERS_I9aspthreadES6_RS_I7ILoggerEEEESt20_Sp_alloc_shared_tagIT_EDpOT0_
FNDA:1,_ZNSt10shared_ptrI10corethreadEC2ISaIS0_EJRS_I14waitable_eventERS_I9aspthreadES6_RS_I7ILoggerEEEESt20_Sp_alloc_shared_tagIT_EDpOT0_
FN:408,_ZNSt10shared_ptrI6vpgnixEC2ISaIS0_EJRS_I14waitable_eventERS_I10corethreadES6_RS_I7ILoggerEEEESt20_Sp_alloc_shared_tagIT_EDpOT0_
FNDA:1,_ZNSt10shared_ptrI6vpgnixEC2ISaIS0_EJRS_I14waitable_eventERS_I10corethreadES6_RS_I7ILoggerEEEESt20_Sp_alloc_shared_tagIT_EDpOT0_
FN:858,_ZSt15allocate_sharedI9aspthreadSaIS0_EJRSt10shared_ptrI14waitable_eventERS2_I7ILoggerEEES2_IT_ERKT0_DpOT1_
FNDA:1,_ZSt15allocate_sharedI9aspthreadSaIS0_EJRSt10shared_ptrI14waitable_eventERS2_I7ILoggerEEES2_IT_ERKT0_DpOT1_
FN:858,_ZSt15allocate_sharedI14waitable_eventSaIS0_EJEESt10shared_ptrIT_ERKT0_DpOT1_
FNDA:3,_ZSt15allocate_sharedI14waitable_eventSaIS0_EJEESt10shared_ptrIT_ERKT0_DpOT1_
FN:858,_ZSt15allocate_sharedI10corethreadSaIS0_EJRSt10shared_ptrI14waitable_eventERS2_I9aspthreadES5_RS2_I7ILoggerEEES2_IT_ERKT0_DpOT1_
FNDA:1,_ZSt15allocate_sharedI10corethreadSaIS0_EJRSt10shared_ptrI14waitable_eventERS2_I9aspthreadES5_RS2_I7ILoggerEEES2_IT_ERKT0_DpOT1_
FN:858,_ZSt15allocate_sharedI6vpgnixSaIS0_EJRSt10shared_ptrI14waitable_eventERS2_I10corethreadES5_RS2_I7ILoggerEEES2_IT_ERKT0_DpOT1_
FNDA:1,_ZSt15allocate_sharedI6vpgnixSaIS0_EJRSt10shared_ptrI14waitable_eventERS2_I10corethreadES5_RS2_I7ILoggerEEES2_IT_ERKT0_DpOT1_
FN:875,_ZSt11make_sharedI6vpgnixJRSt10shared_ptrI14waitable_eventERS1_I10corethreadES4_RS1_I7ILoggerEEES1_IT_EDpOT0_
FNDA:1,_ZSt11make_sharedI6vpgnixJRSt10shared_ptrI14waitable_eventERS1_I10corethreadES4_RS1_I7ILoggerEEES1_IT_EDpOT0_
FN:875,_ZSt11make_sharedI10corethreadJRSt10shared_ptrI14waitable_eventERS1_I9aspthreadES4_RS1_I7ILoggerEEES1_IT_EDpOT0_
FNDA:1,_ZSt11make_sharedI10corethreadJRSt10shared_ptrI14waitable_eventERS1_I9aspthreadES4_RS1_I7ILoggerEEES1_IT_EDpOT0_
FN:875,_ZSt11make_sharedI9aspthreadJRSt10shared_ptrI14waitable_eventERS1_I7ILoggerEEES1_IT_EDpOT0_
FNDA:1,_ZSt11make_sharedI9aspthreadJRSt10shared_ptrI14waitable_eventERS1_I7ILoggerEEES1_IT_EDpOT0_
FN:875,_ZSt11make_sharedI14waitable_eventJEESt10shared_ptrIT_EDpOT0_
FNDA:3,_ZSt11make_sharedI14waitable_eventJEESt10shared_ptrIT_EDpOT0_
DA:148,4
DA:148,2
DA:148,2
DA:148,1
DA:148,8
DA:150,1
DA:150,1
DA:150,0
DA:150,5
DA:359,4
DA:383,1
DA:385,1
DA:386,1
DA:383,1
DA:385,1
DA:386,1
DA:383,1
DA:385,1
DA:386,1
DA:383,3
DA:385,3
DA:386,3
DA:408,1
DA:409,1
DA:410,1
DA:408,1
DA:409,1
DA:410,1
DA:408,1
DA:409,1
DA:410,1
DA:408,3
DA:409,3
DA:410,3
DA:858,1
DA:863,1
DA:858,1
DA:863,1
DA:858,1
DA:863,1
DA:858,3
DA:863,3
DA:875,1
DA:878,2
DA:879,3
DA:875,1
DA:878,2
DA:879,3
DA:875,1
DA:878,2
DA:879,3
DA:875,3
DA:878,6
DA:879,6
end_of_record
SF:/usr/include/c++/11/ext/type_traits.h
FN:152,_ZN9__gnu_cxx17__is_null_pointerIKcEEbPT_
FNDA:0,_ZN9__gnu_cxx17__is_null_pointerIKcEEbPT_
DA:152,0
DA:153,0
end_of_record
SF:/usr/include/c++/11/bits/alloc_traits.h
FN:463,_ZNSt16allocator_traitsISaIcEE8allocateERS0_m
FNDA:0,_ZNSt16allocator_traitsISaIcEE8allocateERS0_m
FN:463,_ZNSt16allocator_traitsISaISt23_Sp_counted_ptr_inplaceI14waitable_eventSaIS1_ELN9__gnu_cxx12_Lock_policyE2EEEE8allocateERS6_m
FNDA:3,_ZNSt16allocator_traitsISaISt23_Sp_counted_ptr_inplaceI14waitable_eventSaIS1_ELN9__gnu_cxx12_Lock_policyE2EEEE8allocateERS6_m
FN:463,_ZNSt16allocator_traitsISaISt23_Sp_counted_ptr_inplaceI9aspthreadSaIS1_ELN9__gnu_cxx12_Lock_policyE2EEEE8allocateERS6_m
FNDA:1,_ZNSt16allocator_traitsISaISt23_Sp_counted_ptr_inplaceI9aspthreadSaIS1_ELN9__gnu_cxx12_Lock_policyE2EEEE8allocateERS6_m
FN:463,_ZNSt16allocator_traitsISaISt23_Sp_counted_ptr_inplaceI6vpgnixSaIS1_ELN9__gnu_cxx12_Lock_policyE2EEEE8allocateERS6_m
FNDA:1,_ZNSt16allocator_traitsISaISt23_Sp_counted_ptr_inplaceI6vpgnixSaIS1_ELN9__gnu_cxx12_Lock_policyE2EEEE8allocateERS6_m
FN:463,_ZNSt16allocator_traitsISaISt23_Sp_counted_ptr_inplaceI10corethreadSaIS1_ELN9__gnu_cxx12_Lock_policyE2EEEE8allocateERS6_m
FNDA:1,_ZNSt16allocator_traitsISaISt23_Sp_counted_ptr_inplaceI10corethreadSaIS1_ELN9__gnu_cxx12_Lock_policyE2EEEE8allocateERS6_m
FN:495,_ZNSt16allocator_traitsISaIcEE10deallocateERS0_Pcm
FNDA:0,_ZNSt16allocator_traitsISaIcEE10deallocateERS0_Pcm
FN:495,_ZNSt16allocator_traitsISaISt23_Sp_counted_ptr_inplaceI14waitable_eventSaIS1_ELN9__gnu_cxx12_Lock_policyE2EEEE10deallocateERS6_PS5_m
FNDA:3,_ZNSt16allocator_traitsISaISt23_Sp_counted_ptr_inplaceI14waitable_eventSaIS1_ELN9__gnu_cxx12_Lock_policyE2EEEE10deallocateERS6_PS5_m
FN:495,_ZNSt16allocator_traitsISaISt23_Sp_counted_ptr_inplaceI9aspthreadSaIS1_ELN9__gnu_cxx12_Lock_policyE2EEEE10deallocateERS6_PS5_m
FNDA:1,_ZNSt16allocator_traitsISaISt23_Sp_counted_ptr_inplaceI9aspthreadSaIS1_ELN9__gnu_cxx12_Lock_policyE2EEEE10deallocateERS6_PS5_m
FN:495,_ZNSt16allocator_traitsISaISt23_Sp_counted_ptr_inplaceI10corethreadSaIS1_ELN9__gnu_cxx12_Lock_policyE2EEEE10deallocateERS6_PS5_m
FNDA:1,_ZNSt16allocator_traitsISaISt23_Sp_counted_ptr_inplaceI10corethreadSaIS1_ELN9__gnu_cxx12_Lock_policyE2EEEE10deallocateERS6_PS5_m
FN:495,_ZNSt16allocator_traitsISaISt23_Sp_counted_ptr_inplaceI6vpgnixSaIS1_ELN9__gnu_cxx12_Lock_policyE2EEEE10deallocateERS6_PS5_m
FNDA:1,_ZNSt16allocator_traitsISaISt23_Sp_counted_ptr_inplaceI6vpgnixSaIS1_ELN9__gnu_cxx12_Lock_policyE2EEEE10deallocateERS6_PS5_m
FN:511,_ZNSt16allocator_traitsISaI10corethreadEE9constructIS0_JRSt10shared_ptrI14waitable_eventERS4_I9aspthreadES7_RS4_I7ILoggerEEEEvRS1_PT_DpOT0_
FNDA:1,_ZNSt16allocator_traitsISaI10corethreadEE9constructIS0_JRSt10shared_ptrI14waitable_eventERS4_I9aspthreadES7_RS4_I7ILoggerEEEEvRS1_PT_DpOT0_
FN:511,_ZNSt16allocator_traitsISaI9aspthreadEE9constructIS0_JRSt10shared_ptrI14waitable_eventERS4_I7ILoggerEEEEvRS1_PT_DpOT0_
FNDA:1,_ZNSt16allocator_traitsISaI9aspthreadEE9constructIS0_JRSt10shared_ptrI14waitable_eventERS4_I7ILoggerEEEEvRS1_PT_DpOT0_
FN:511,_ZNSt16allocator_traitsISaI6vpgnixEE9constructIS0_JRSt10shared_ptrI14waitable_eventERS4_I10corethreadES7_RS4_I7ILoggerEEEEvRS1_PT_DpOT0_
FNDA:1,_ZNSt16allocator_traitsISaI6vpgnixEE9constructIS0_JRSt10shared_ptrI14waitable_eventERS4_I10corethreadES7_RS4_I7ILoggerEEEEvRS1_PT_DpOT0_
FN:511,_ZNSt16allocator_traitsISaI14waitable_eventEE9constructIS0_JEEEvRS1_PT_DpOT0_
FNDA:3,_ZNSt16allocator_traitsISaI14waitable_eventEE9constructIS0_JEEEvRS1_PT_DpOT0_
FN:531,_ZNSt16allocator_traitsISaI6vpgnixEE7destroyIS0_EEvRS1_PT_
FNDA:1,_ZNSt16allocator_traitsISaI6vpgnixEE7destroyIS0_EEvRS1_PT_
FN:531,_ZNSt16allocator_traitsISaI10corethreadEE7destroyIS0_EEvRS1_PT_
FNDA:1,_ZNSt16allocator_traitsISaI10corethreadEE7destroyIS0_EEvRS1_PT_
FN:531,_ZNSt16allocator_traitsISaI9aspthreadEE7destroyIS0_EEvRS1_PT_
FNDA:1,_ZNSt16allocator_traitsISaI9aspthreadEE7destroyIS0_EEvRS1_PT_
FN:531,_ZNSt16allocator_traitsISaI14waitable_eventEE7destroyIS0_EEvRS1_PT_
FNDA:3,_ZNSt16allocator_traitsISaI14waitable_eventEE7destroyIS0_EEvRS1_PT_
FN:547,_ZNSt16allocator_traitsISaIcEE8max_sizeERKS0_
FNDA:0,_ZNSt16allocator_traitsISaIcEE8max_sizeERKS0_
DA:463,1
DA:464,1
DA:463,1
DA:464,1
DA:463,1
DA:464,1
DA:463,3
DA:464,3
DA:463,0
DA:464,0
DA:495,1
DA:496,1
DA:495,1
DA:496,1
DA:495,1
DA:496,1
DA:495,3
DA:496,3
DA:495,0
DA:496,0
DA:511,1
DA:518,1
DA:520,1
DA:511,1
DA:518,1
DA:520,1
DA:511,1
DA:518,1
DA:520,1
DA:511,3
DA:518,3
DA:520,3
DA:531,3
DA:537,3
DA:539,3
DA:531,1
DA:537,1
DA:539,1
DA:531,1
DA:537,1
DA:539,1
DA:531,1
DA:537,1
DA:539,1
DA:547,0
DA:552,0
end_of_record
SF:/usr/include/c++/11/bits/basic_string.tcc
FN:132,_ZNSt7__cxx1112basic_stringIcSt11char_traitsIcESaIcEE9_M_createERmm
FNDA:0,_ZNSt7__cxx1112basic_stringIcSt11char_traitsIcESaIcEE9_M_createERmm
FN:206,_ZNSt7__cxx1112basic_stringIcSt11char_traitsIcESaIcEE12_M_constructIPKcEEvT_S8_St20forward_iterator_tag
FNDA:0,_ZNSt7__cxx1112basic_stringIcSt11char_traitsIcESaIcEE12_M_constructIPKcEEvT_S8_St20forward_iterator_tag
DA:132,0
DA:137,0
DA:138,0
DA:143,0
DA:145,0
DA:147,0
DA:148,0
DA:153,0
DA:206,0
DA:211,0
DA:212,0
DA:215,0
DA:217,0
DA:219,0
DA:220,0
DA:225,0
DA:232,0
DA:233,0
end_of_record
SF:/usr/include/c++/11/ext/atomicity.h
DA:52,0
DA:66,0
DA:71,0
DA:84,0
DA:85,0
DA:86,0
DA:92,0
DA:98,0
DA:99,0
DA:101,0
DA:108,0
DA:112,0
end_of_record
SF:/usr/include/c++/11/ext/new_allocator.h
FN:79,_ZN9__gnu_cxx13new_allocatorIcEC2Ev
FNDA:0,_ZN9__gnu_cxx13new_allocatorIcEC2Ev
FN:79,_ZN9__gnu_cxx13new_allocatorI14waitable_eventEC2Ev
FNDA:3,_ZN9__gnu_cxx13new_allocatorI14waitable_eventEC2Ev
FN:79,_ZN9__gnu_cxx13new_allocatorI9aspthreadEC2Ev
FNDA:1,_ZN9__gnu_cxx13new_allocatorI9aspthreadEC2Ev
FN:79,_ZN9__gnu_cxx13new_allocatorI10corethreadEC2Ev
FNDA:1,_ZN9__gnu_cxx13new_allocatorI10corethreadEC2Ev
FN:79,_ZN9__gnu_cxx13new_allocatorI6vpgnixEC2Ev
FNDA:1,_ZN9__gnu_cxx13new_allocatorI6vpgnixEC2Ev
FN:79,_ZN9__gnu_cxx13new_allocatorISt23_Sp_counted_ptr_inplaceI14waitable_eventSaIS2_ELNS_12_Lock_policyE2EEEC2Ev
FNDA:6,_ZN9__gnu_cxx13new_allocatorISt23_Sp_counted_ptr_inplaceI14waitable_eventSaIS2_ELNS_12_Lock_policyE2EEEC2Ev
FN:79,_ZN9__gnu_cxx13new_allocatorISt23_Sp_counted_ptr_inplaceI9aspthreadSaIS2_ELNS_12_Lock_policyE2EEEC2Ev
FNDA:2,_ZN9__gnu_cxx13new_allocatorISt23_Sp_counted_ptr_inplaceI9aspthreadSaIS2_ELNS_12_Lock_policyE2EEEC2Ev
FN:79,_ZN9__gnu_cxx13new_allocatorISt23_Sp_counted_ptr_inplaceI10corethreadSaIS2_ELNS_12_Lock_policyE2EEEC2Ev
FNDA:2,_ZN9__gnu_cxx13new_allocatorISt23_Sp_counted_ptr_inplaceI10corethreadSaIS2_ELNS_12_Lock_policyE2EEEC2Ev
FN:79,_ZN9__gnu_cxx13new_allocatorISt23_Sp_counted_ptr_inplaceI6vpgnixSaIS2_ELNS_12_Lock_policyE2EEEC2Ev
FNDA:2,_ZN9__gnu_cxx13new_allocatorISt23_Sp_counted_ptr_inplaceI6vpgnixSaIS2_ELNS_12_Lock_policyE2EEEC2Ev
FN:82,_ZN9__gnu_cxx13new_allocatorI9aspthreadEC2ERKS2_
FNDA:3,_ZN9__gnu_cxx13new_allocatorI9aspthreadEC2ERKS2_
FN:82,_ZN9__gnu_cxx13new_allocatorI14waitable_eventEC2ERKS2_
FNDA:9,_ZN9__gnu_cxx13new_allocatorI14waitable_eventEC2ERKS2_
FN:82,_ZN9__gnu_cxx13new_allocatorI10corethreadEC2ERKS2_
FNDA:3,_ZN9__gnu_cxx13new_allocatorI10corethreadEC2ERKS2_
FN:82,_ZN9__gnu_cxx13new_allocatorI6vpgnixEC2ERKS2_
FNDA:3,_ZN9__gnu_cxx13new_allocatorI6vpgnixEC2ERKS2_
FN:103,_ZN9__gnu_cxx13new_allocatorISt23_Sp_counted_ptr_inplaceI14waitable_eventSaIS2_ELNS_12_Lock_policyE2EEE8allocateEmPKv
FNDA:3,_ZN9__gnu_cxx13new_allocatorISt23_Sp_counted_ptr_inplaceI14waitable_eventSaIS2_ELNS_12_Lock_policyE2EEE8allocateEmPKv
FN:103,_ZN9__gnu_cxx13new_allocatorISt23_Sp_counted_ptr_inplaceI9aspthreadSaIS2_ELNS_12_Lock_policyE2EEE8allocateEmPKv
FNDA:1,_ZN9__gnu_cxx13new_allocatorISt23_Sp_counted_ptr_inplaceI9aspthreadSaIS2_ELNS_12_Lock_policyE2EEE8allocateEmPKv
FN:103,_ZN9__gnu_cxx13new_allocatorIcE8allocateEmPKv
FNDA:0,_ZN9__gnu_cxx13new_allocatorIcE8allocateEmPKv
FN:103,_ZN9__gnu_cxx13new_allocatorISt23_Sp_counted_ptr_inplaceI10corethreadSaIS2_ELNS_12_Lock_policyE2EEE8allocateEmPKv
FNDA:1,_ZN9__gnu_cxx13new_allocatorISt23_Sp_counted_ptr_inplaceI10corethreadSaIS2_ELNS_12_Lock_policyE2EEE8allocateEmPKv
FN:103,_ZN9__gnu_cxx13new_allocatorISt23_Sp_counted_ptr_inplaceI6vpgnixSaIS2_ELNS_12_Lock_policyE2EEE8allocateEmPKv
FNDA:1,_ZN9__gnu_cxx13new_allocatorISt23_Sp_counted_ptr_inplaceI6vpgnixSaIS2_ELNS_12_Lock_policyE2EEE8allocateEmPKv
FN:132,_ZN9__gnu_cxx13new_allocatorISt23_Sp_counted_ptr_inplaceI6vpgnixSaIS2_ELNS_12_Lock_policyE2EEE10deallocateEPS5_m
FNDA:1,_ZN9__gnu_cxx13new_allocatorISt23_Sp_counted_ptr_inplaceI6vpgnixSaIS2_ELNS_12_Lock_policyE2EEE10deallocateEPS5_m
FN:132,_ZN9__gnu_cxx13new_allocatorISt23_Sp_counted_ptr_inplaceI14waitable_eventSaIS2_ELNS_12_Lock_policyE2EEE10deallocateEPS5_m
FNDA:3,_ZN9__gnu_cxx13new_allocatorISt23_Sp_counted_ptr_inplaceI14waitable_eventSaIS2_ELNS_12_Lock_policyE2EEE10deallocateEPS5_m
FN:132,_ZN9__gnu_cxx13new_allocatorISt23_Sp_counted_ptr_inplaceI9aspthreadSaIS2_ELNS_12_Lock_policyE2EEE10deallocateEPS5_m
FNDA:1,_ZN9__gnu_cxx13new_allocatorISt23_Sp_counted_ptr_inplaceI9aspthreadSaIS2_ELNS_12_Lock_policyE2EEE10deallocateEPS5_m
FN:132,_ZN9__gnu_cxx13new_allocatorIcE10deallocateEPcm
FNDA:0,_ZN9__gnu_cxx13new_allocatorIcE10deallocateEPcm
FN:132,_ZN9__gnu_cxx13new_allocatorISt23_Sp_counted_ptr_inplaceI10corethreadSaIS2_ELNS_12_Lock_policyE2EEE10deallocateEPS5_m
FNDA:1,_ZN9__gnu_cxx13new_allocatorISt23_Sp_counted_ptr_inplaceI10corethreadSaIS2_ELNS_12_Lock_policyE2EEE10deallocateEPS5_m
FN:197,_ZNK9__gnu_cxx13new_allocatorISt23_Sp_counted_ptr_inplaceI14waitable_eventSaIS2_ELNS_12_Lock_policyE2EEE11_M_max_sizeEv
FNDA:3,_ZNK9__gnu_cxx13new_allocatorISt23_Sp_counted_ptr_inplaceI14waitable_eventSaIS2_ELNS_12_Lock_policyE2EEE11_M_max_sizeEv
FN:197,_ZNK9__gnu_cxx13new_allocatorISt23_Sp_counted_ptr_inplaceI9aspthreadSaIS2_ELNS_12_Lock_policyE2EEE11_M_max_sizeEv
FNDA:1,_ZNK9__gnu_cxx13new_allocatorISt23_Sp_counted_ptr_inplaceI9aspthreadSaIS2_ELNS_12_Lock_policyE2EEE11_M_max_sizeEv
FN:197,_ZNK9__gnu_cxx13new_allocatorIcE11_M_max_sizeEv
FNDA:0,_ZNK9__gnu_cxx13new_allocatorIcE11_M_max_sizeEv
FN:197,_ZNK9__gnu_cxx13new_allocatorISt23_Sp_counted_ptr_inplaceI10corethreadSaIS2_ELNS_12_Lock_policyE2EEE11_M_max_sizeEv
FNDA:1,_ZNK9__gnu_cxx13new_allocatorISt23_Sp_counted_ptr_inplaceI10corethreadSaIS2_ELNS_12_Lock_policyE2EEE11_M_max_sizeEv
FN:197,_ZNK9__gnu_cxx13new_allocatorISt23_Sp_counted_ptr_inplaceI6vpgnixSaIS2_ELNS_12_Lock_policyE2EEE11_M_max_sizeEv
FNDA:1,_ZNK9__gnu_cxx13new_allocatorISt23_Sp_counted_ptr_inplaceI6vpgnixSaIS2_ELNS_12_Lock_policyE2EEE11_M_max_sizeEv
DA:79,2
DA:79,2
DA:79,2
DA:79,6
DA:79,1
DA:79,1
DA:79,1
DA:79,3
DA:79,0
DA:82,3
DA:82,3
DA:82,3
DA:82,9
DA:103,1
DA:111,1
DA:115,0
DA:116,0
DA:117,0
DA:127,1
DA:103,1
DA:111,1
DA:115,0
DA:116,0
DA:117,0
DA:127,1
DA:103,1
DA:111,1
DA:115,0
DA:116,0
DA:117,0
DA:127,1
DA:103,3
DA:111,3
DA:115,0
DA:116,0
DA:117,0
DA:127,3
DA:103,0
DA:111,0
DA:117,0
DA:127,0
DA:132,1
DA:145,1
DA:132,1
DA:145,1
DA:132,1
DA:145,1
DA:132,3
DA:145,3
DA:132,0
DA:145,0
DA:197,1
DA:200,1
DA:197,1
DA:200,1
DA:197,1
DA:200,1
DA:197,3
DA:200,3
DA:197,0
DA:200,0
end_of_record
SF:/usr/include/c++/11/new
FN:174,_ZnwmPv
FNDA:0,_ZnwmPv
FN:180,_ZdlPvS_
FNDA:0,_ZdlPvS_
DA:174,0
DA:175,0
DA:180,0
end_of_record
SF:/usr/include/c++/11/bits/allocated_ptr.h
FN:53,_ZNSt15__allocated_ptrISaISt23_Sp_counted_ptr_inplaceI10corethreadSaIS1_ELN9__gnu_cxx12_Lock_policyE2EEEEC2ERS6_PS5_
FNDA:2,_ZNSt15__allocated_ptrISaISt23_Sp_counted_ptr_inplaceI10corethreadSaIS1_ELN9__gnu_cxx12_Lock_policyE2EEEEC2ERS6_PS5_
FN:53,_ZNSt15__allocated_ptrISaISt23_Sp_counted_ptr_inplaceI9aspthreadSaIS1_ELN9__gnu_cxx12_Lock_policyE2EEEEC2ERS6_PS5_
FNDA:2,_ZNSt15__allocated_ptrISaISt23_Sp_counted_ptr_inplaceI9aspthreadSaIS1_ELN9__gnu_cxx12_Lock_policyE2EEEEC2ERS6_PS5_
FN:53,_ZNSt15__allocated_ptrISaISt23_Sp_counted_ptr_inplaceI14waitable_eventSaIS1_ELN9__gnu_cxx12_Lock_policyE2EEEEC2ERS6_PS5_
FNDA:6,_ZNSt15__allocated_ptrISaISt23_Sp_counted_ptr_inplaceI14waitable_eventSaIS1_ELN9__gnu_cxx12_Lock_policyE2EEEEC2ERS6_PS5_
FN:53,_ZNSt15__allocated_ptrISaISt23_Sp_counted_ptr_inplaceI6vpgnixSaIS1_ELN9__gnu_cxx12_Lock_policyE2EEEEC2ERS6_PS5_
FNDA:2,_ZNSt15__allocated_ptrISaISt23_Sp_counted_ptr_inplaceI6vpgnixSaIS1_ELN9__gnu_cxx12_Lock_policyE2EEEEC2ERS6_PS5_
FN:71,_ZNSt15__allocated_ptrISaISt23_Sp_counted_ptr_inplaceI10corethreadSaIS1_ELN9__gnu_cxx12_Lock_policyE2EEEED2Ev
FNDA:2,_ZNSt15__allocated_ptrISaISt23_Sp_counted_ptr_inplaceI10corethreadSaIS1_ELN9__gnu_cxx12_Lock_policyE2EEEED2Ev
FN:71,_ZNSt15__allocated_ptrISaISt23_Sp_counted_ptr_inplaceI14waitable_eventSaIS1_ELN9__gnu_cxx12_Lock_policyE2EEEED2Ev
FNDA:6,_ZNSt15__allocated_ptrISaISt23_Sp_counted_ptr_inplaceI14waitable_eventSaIS1_ELN9__gnu_cxx12_Lock_policyE2EEEED2Ev
FN:71,_ZNSt15__allocated_ptrISaISt23_Sp_counted_ptr_inplaceI9aspthreadSaIS1_ELN9__gnu_cxx12_Lock_policyE2EEEED2Ev
FNDA:2,_ZNSt15__allocated_ptrISaISt23_Sp_counted_ptr_inplaceI9aspthreadSaIS1_ELN9__gnu_cxx12_Lock_policyE2EEEED2Ev
FN:71,_ZNSt15__allocated_ptrISaISt23_Sp_counted_ptr_inplaceI6vpgnixSaIS1_ELN9__gnu_cxx12_Lock_policyE2EEEED2Ev
FNDA:2,_ZNSt15__allocated_ptrISaISt23_Sp_counted_ptr_inplaceI6vpgnixSaIS1_ELN9__gnu_cxx12_Lock_policyE2EEEED2Ev
FN:79,_ZNSt15__allocated_ptrISaISt23_Sp_counted_ptr_inplaceI10corethreadSaIS1_ELN9__gnu_cxx12_Lock_policyE2EEEEaSEDn
FNDA:1,_ZNSt15__allocated_ptrISaISt23_Sp_counted_ptr_inplaceI10corethreadSaIS1_ELN9__gnu_cxx12_Lock_policyE2EEEEaSEDn
FN:79,_ZNSt15__allocated_ptrISaISt23_Sp_counted_ptr_inplaceI9aspthreadSaIS1_ELN9__gnu_cxx12_Lock_policyE2EEEEaSEDn
FNDA:1,_ZNSt15__allocated_ptrISaISt23_Sp_counted_ptr_inplaceI9aspthreadSaIS1_ELN9__gnu_cxx12_Lock_policyE2EEEEaSEDn
FN:79,_ZNSt15__allocated_ptrISaISt23_Sp_counted_ptr_inplaceI14waitable_eventSaIS1_ELN9__gnu_cxx12_Lock_policyE2EEEEaSEDn
FNDA:3,_ZNSt15__allocated_ptrISaISt23_Sp_counted_ptr_inplaceI14waitable_eventSaIS1_ELN9__gnu_cxx12_Lock_policyE2EEEEaSEDn
FN:79,_ZNSt15__allocated_ptrISaISt23_Sp_counted_ptr_inplaceI6vpgnixSaIS1_ELN9__gnu_cxx12_Lock_policyE2EEEEaSEDn
FNDA:1,_ZNSt15__allocated_ptrISaISt23_Sp_counted_ptr_inplaceI6vpgnixSaIS1_ELN9__gnu_cxx12_Lock_policyE2EEEEaSEDn
FN:86,_ZNSt15__allocated_ptrISaISt23_Sp_counted_ptr_inplaceI10corethreadSaIS1_ELN9__gnu_cxx12_Lock_policyE2EEEE3getEv
FNDA:1,_ZNSt15__allocated_ptrISaISt23_Sp_counted_ptr_inplaceI10corethreadSaIS1_ELN9__gnu_cxx12_Lock_policyE2EEEE3getEv
FN:86,_ZNSt15__allocated_ptrISaISt23_Sp_counted_ptr_inplaceI9aspthreadSaIS1_ELN9__gnu_cxx12_Lock_policyE2EEEE3getEv
FNDA:1,_ZNSt15__allocated_ptrISaISt23_Sp_counted_ptr_inplaceI9aspthreadSaIS1_ELN9__gnu_cxx12_Lock_policyE2EEEE3getEv
FN:86,_ZNSt15__allocated_ptrISaISt23_Sp_counted_ptr_inplaceI6vpgnixSaIS1_ELN9__gnu_cxx12_Lock_policyE2EEEE3getEv
FNDA:1,_ZNSt15__allocated_ptrISaISt23_Sp_counted_ptr_inplaceI6vpgnixSaIS1_ELN9__gnu_cxx12_Lock_policyE2EEEE3getEv
FN:86,_ZNSt15__allocated_ptrISaISt23_Sp_counted_ptr_inplaceI14waitable_eventSaIS1_ELN9__gnu_cxx12_Lock_policyE2EEEE3getEv
FNDA:3,_ZNSt15__allocated_ptrISaISt23_Sp_counted_ptr_inplaceI14waitable_eventSaIS1_ELN9__gnu_cxx12_Lock_policyE2EEEE3getEv
FN:96,_ZSt18__allocate_guardedISaISt23_Sp_counted_ptr_inplaceI6vpgnixSaIS1_ELN9__gnu_cxx12_Lock_policyE2EEEESt15__allocated_ptrIT_ERS8_
FNDA:1,_ZSt18__allocate_guardedISaISt23_Sp_counted_ptr_inplaceI6vpgnixSaIS1_ELN9__gnu_cxx12_Lock_policyE2EEEESt15__allocated_ptrIT_ERS8_
FN:96,_ZSt18__allocate_guardedISaISt23_Sp_counted_ptr_inplaceI10corethreadSaIS1_ELN9__gnu_cxx12_Lock_policyE2EEEESt15__allocated_ptrIT_ERS8_
FNDA:1,_ZSt18__allocate_guardedISaISt23_Sp_counted_ptr_inplaceI10corethreadSaIS1_ELN9__gnu_cxx12_Lock_policyE2EEEESt15__allocated_ptrIT_ERS8_
FN:96,_ZSt18__allocate_guardedISaISt23_Sp_counted_ptr_inplaceI9aspthreadSaIS1_ELN9__gnu_cxx12_Lock_policyE2EEEESt15__allocated_ptrIT_ERS8_
FNDA:1,_ZSt18__allocate_guardedISaISt23_Sp_counted_ptr_inplaceI9aspthreadSaIS1_ELN9__gnu_cxx12_Lock_policyE2EEEESt15__allocated_ptrIT_ERS8_
FN:96,_ZSt18__allocate_guardedISaISt23_Sp_counted_ptr_inplaceI14waitable_eventSaIS1_ELN9__gnu_cxx12_Lock_policyE2EEEESt15__allocated_ptrIT_ERS8_
FNDA:3,_ZSt18__allocate_guardedISaISt23_Sp_counted_ptr_inplaceI14waitable_eventSaIS1_ELN9__gnu_cxx12_Lock_policyE2EEEESt15__allocated_ptrIT_ERS8_
DA:53,2
DA:54,2
DA:55,2
DA:53,2
DA:54,2
DA:55,2
DA:53,2
DA:54,2
DA:55,2
DA:53,6
DA:54,6
DA:55,6
DA:71,2
DA:73,2
DA:74,1
DA:75,2
DA:71,2
DA:73,2
DA:74,1
DA:75,2
DA:71,2
DA:73,2
DA:74,1
DA:75,2
DA:71,6
DA:73,6
DA:74,3
DA:75,6
DA:79,1
DA:81,1
DA:82,1
DA:79,1
DA:81,1
DA:82,1
DA:79,1
DA:81,1
DA:82,1
DA:79,3
DA:81,3
DA:82,3
DA:86,1
DA:86,1
DA:86,1
DA:86,3
DA:96,1
DA:98,1
DA:96,1
DA:98,1
DA:96,1
DA:98,1
DA:96,3
DA:98,3
end_of_record
TN:
SF:/usr/include/c++/11/bits/invoke.h
FN:60,_ZSt13__invoke_implIvRSt5_BindIFM9aspthreadFviRNSt7__cxx1112basic_stringIcSt11char_traitsIcESaIcEEEEPS1_St12_PlaceholderILi1EESC_ILi2EEEEJiS8_EET_St14__invoke_otherOT0_DpOT1_
FNDA:0,_ZSt13__invoke_implIvRSt5_BindIFM9aspthreadFviRNSt7__cxx1112basic_stringIcSt11char_traitsIcESaIcEEEEPS1_St12_PlaceholderILi1EESC_ILi2EEEEJiS8_EET_St14__invoke_otherOT0_DpOT1_
FN:71,_ZSt13__invoke_implIvRM9aspthreadFviRNSt7__cxx1112basic_stringIcSt11char_traitsIcESaIcEEEERPS0_JiS7_EET_St21__invoke_memfun_derefOT0_OT1_DpOT2_
FNDA:0,_ZSt13__invoke_implIvRM9aspthreadFviRNSt7__cxx1112basic_stringIcSt11char_traitsIcESaIcEEEERPS0_JiS7_EET_St21__invoke_memfun_derefOT0_OT1_DpOT2_
FN:90,_ZSt8__invokeIRM9aspthreadFviRNSt7__cxx1112basic_stringIcSt11char_traitsIcESaIcEEEEJRPS0_iS7_EENSt15__invoke_resultIT_JDpT0_EE4typeEOSE_DpOSF_
FNDA:0,_ZSt8__invokeIRM9aspthreadFviRNSt7__cxx1112basic_stringIcSt11char_traitsIcESaIcEEEEJRPS0_iS7_EENSt15__invoke_resultIT_JDpT0_EE4typeEOSE_DpOSF_
FN:104,_ZSt10__invoke_rIvRSt5_BindIFM9aspthreadFviRNSt7__cxx1112basic_stringIcSt11char_traitsIcESaIcEEEEPS1_St12_PlaceholderILi1EESC_ILi2EEEEJiS8_EENSt9enable_ifIX16is_invocable_r_vIT_T0_DpT1_EESJ_E4typeEOSK_DpOSL_
FNDA:0,_ZSt10__invoke_rIvRSt5_BindIFM9aspthreadFviRNSt7__cxx1112basic_stringIcSt11char_traitsIcESaIcEEEEPS1_St12_PlaceholderILi1EESC_ILi2EEEEJiS8_EENSt9enable_ifIX16is_invocable_r_vIT_T0_DpT1_EESJ_E4typeEOSK_DpOSL_
DA:60,0
DA:61,0
DA:71,0
DA:74,0
DA:90,0
DA:96,0
DA:97,0
DA:104,0
DA:111,0
DA:117,0
end_of_record
SF:/usr/include/c++/11/bits/char_traits.h
FN:106,_ZN9__gnu_cxx11char_traitsIcE2eqERKcS3_
FNDA:0,_ZN9__gnu_cxx11char_traitsIcE2eqERKcS3_
FN:167,_ZN9__gnu_cxx11char_traitsIcE6lengthEPKc
FNDA:0,_ZN9__gnu_cxx11char_traitsIcE6lengthEPKc
FN:240,_ZN9__gnu_cxx11char_traitsIcE4copyEPcPKcm
FNDA:0,_ZN9__gnu_cxx11char_traitsIcE4copyEPcPKcm
FN:356,_ZNSt11char_traitsIcE6assignERcRKc
FNDA:0,_ZNSt11char_traitsIcE6assignERcRKc
FN:393,_ZNSt11char_traitsIcE6lengthEPKc
FNDA:0,_ZNSt11char_traitsIcE6lengthEPKc
FN:429,_ZNSt11char_traitsIcE4copyEPcPKcm
FNDA:0,_ZNSt11char_traitsIcE4copyEPcPKcm
DA:106,0
DA:107,0
DA:167,0
DA:170,0
DA:171,0
DA:172,0
DA:173,0
DA:240,0
DA:244,0
DA:245,0
DA:290,0
DA:356,0
DA:357,0
DA:393,0
DA:396,0
DA:397,0
DA:399,0
DA:429,0
DA:431,0
DA:432,0
DA:434,0
DA:435,0
DA:437,0
end_of_record
SF:/usr/include/c++/11/bits/stl_function.h
FN:399,_ZNKSt4lessIiEclERKiS2_
FNDA:0,_ZNKSt4lessIiEclERKiS2_
FN:1174,_ZNKSt10_Select1stISt4pairIKiiEEclERKS2_
FNDA:0,_ZNKSt10_Select1stISt4pairIKiiEEclERKS2_
DA:399,0
DA:400,0
DA:1174,0
DA:1175,0
end_of_record
SF:/usr/include/c++/11/typeinfo
FN:120,_ZNKSt9type_infoeqERKS_
FNDA:0,_ZNKSt9type_infoeqERKS_
DA:120,0
DA:122,0
DA:123,0
DA:124,0
end_of_record
SF:/usr/include/c++/11/bits/basic_string.h
FN:164,_ZNSt7__cxx1112basic_stringIcSt11char_traitsIcESaIcEE12_Alloc_hiderC2EPcRKS3_
FNDA:0,_ZNSt7__cxx1112basic_stringIcSt11char_traitsIcESaIcEE12_Alloc_hiderC2EPcRKS3_
FN:167,_ZNSt7__cxx1112basic_stringIcSt11char_traitsIcESaIcEE12_Alloc_hiderC2EPcOS3_
FNDA:0,_ZNSt7__cxx1112basic_stringIcSt11char_traitsIcESaIcEE12_Alloc_hiderC2EPcOS3_
FN:186,_ZNSt7__cxx1112basic_stringIcSt11char_traitsIcESaIcEE7_M_dataEPc
FNDA:0,_ZNSt7__cxx1112basic_stringIcSt11char_traitsIcESaIcEE7_M_dataEPc
FN:190,_ZNSt7__cxx1112basic_stringIcSt11char_traitsIcESaIcEE9_M_lengthEm
FNDA:0,_ZNSt7__cxx1112basic_stringIcSt11char_traitsIcESaIcEE9_M_lengthEm
FN:194,_ZNKSt7__cxx1112basic_stringIcSt11char_traitsIcESaIcEE7_M_dataEv
FNDA:0,_ZNKSt7__cxx1112basic_stringIcSt11char_traitsIcESaIcEE7_M_dataEv
FN:198,_ZNSt7__cxx1112basic_stringIcSt11char_traitsIcESaIcEE13_M_local_dataEv
FNDA:0,_ZNSt7__cxx1112basic_stringIcSt11char_traitsIcESaIcEE13_M_local_dataEv
FN:208,_ZNKSt7__cxx1112basic_stringIcSt11char_traitsIcESaIcEE13_M_local_dataEv
FNDA:0,_ZNKSt7__cxx1112basic_stringIcSt11char_traitsIcESaIcEE13_M_local_dataEv
FN:218,_ZNSt7__cxx1112basic_stringIcSt11char_traitsIcESaIcEE11_M_capacityEm
FNDA:0,_ZNSt7__cxx1112basic_stringIcSt11char_traitsIcESaIcEE11_M_capacityEm
FN:222,_ZNSt7__cxx1112basic_stringIcSt11char_traitsIcESaIcEE13_M_set_lengthEm
FNDA:0,_ZNSt7__cxx1112basic_stringIcSt11char_traitsIcESaIcEE13_M_set_lengthEm
FN:229,_ZNKSt7__cxx1112basic_stringIcSt11char_traitsIcESaIcEE11_M_is_localEv
FNDA:0,_ZNKSt7__cxx1112basic_stringIcSt11char_traitsIcESaIcEE11_M_is_localEv
FN:237,_ZNSt7__cxx1112basic_stringIcSt11char_traitsIcESaIcEE10_M_disposeEv
FNDA:0,_ZNSt7__cxx1112basic_stringIcSt11char_traitsIcESaIcEE10_M_disposeEv
FN:244,_ZNSt7__cxx1112basic_stringIcSt11char_traitsIcESaIcEE10_M_destroyEm
FNDA:0,_ZNSt7__cxx1112basic_stringIcSt11char_traitsIcESaIcEE10_M_destroyEm
FN:251,_ZNSt7__cxx1112basic_stringIcSt11char_traitsIcESaIcEE16_M_construct_auxIPcEEvT_S7_St12__false_type
FNDA:0,_ZNSt7__cxx1112basic_stringIcSt11char_traitsIcESaIcEE16_M_construct_auxIPcEEvT_S7_St12__false_type
FN:271,_ZNSt7__cxx1112basic_stringIcSt11char_traitsIcESaIcEE12_M_constructIPcEEvT_S7_
FNDA:0,_ZNSt7__cxx1112basic_stringIcSt11char_traitsIcESaIcEE12_M_constructIPcEEvT_S7_
FN:294,_ZNSt7__cxx1112basic_stringIcSt11char_traitsIcESaIcEE16_M_get_allocatorEv
FNDA:0,_ZNSt7__cxx1112basic_stringIcSt11char_traitsIcESaIcEE16_M_get_allocatorEv
FN:298,_ZNKSt7__cxx1112basic_stringIcSt11char_traitsIcESaIcEE16_M_get_allocatorEv
FNDA:0,_ZNKSt7__cxx1112basic_stringIcSt11char_traitsIcESaIcEE16_M_get_allocatorEv
FN:354,_ZNSt7__cxx1112basic_stringIcSt11char_traitsIcESaIcEE7_S_copyEPcPKcm
FNDA:0,_ZNSt7__cxx1112basic_stringIcSt11char_traitsIcESaIcEE7_S_copyEPcPKcm
FN:400,_ZNSt7__cxx1112basic_stringIcSt11char_traitsIcESaIcEE13_S_copy_charsEPcS5_S5_
FNDA:0,_ZNSt7__cxx1112basic_stringIcSt11char_traitsIcESaIcEE13_S_copy_charsEPcS5_S5_
FN:404,_ZNSt7__cxx1112basic_stringIcSt11char_traitsIcESaIcEE13_S_copy_charsEPcPKcS7_
FNDA:0,_ZNSt7__cxx1112basic_stringIcSt11char_traitsIcESaIcEE13_S_copy_charsEPcPKcS7_
FN:456,_ZNSt7__cxx1112basic_stringIcSt11char_traitsIcESaIcEEC2ERKS4_
FNDA:0,_ZNSt7__cxx1112basic_stringIcSt11char_traitsIcESaIcEEC2ERKS4_
FN:533,_ZNSt7__cxx1112basic_stringIcSt11char_traitsIcESaIcEEC2IS3_EEPKcRKS3_
FNDA:0,_ZNSt7__cxx1112basic_stringIcSt11char_traitsIcESaIcEEC2IS3_EEPKcRKS3_
FN:565,_ZNSt7__cxx1112basic_stringIcSt11char_traitsIcESaIcEEC2EOS4_
FNDA:31,_ZNSt7__cxx1112basic_stringIcSt11char_traitsIcESaIcEEC2EOS4_
FN:671,_ZNSt7__cxx1112basic_stringIcSt11char_traitsIcESaIcEED2Ev
FNDA:0,_ZNSt7__cxx1112basic_stringIcSt11char_traitsIcESaIcEED2Ev
FN:926,_ZNKSt7__cxx1112basic_stringIcSt11char_traitsIcESaIcEE6lengthEv
FNDA:0,_ZNKSt7__cxx1112basic_stringIcSt11char_traitsIcESaIcEE6lengthEv
FN:931,_ZNKSt7__cxx1112basic_stringIcSt11char_traitsIcESaIcEE8max_sizeEv
FNDA:0,_ZNKSt7__cxx1112basic_stringIcSt11char_traitsIcESaIcEE8max_sizeEv
FN:2320,_ZNKSt7__cxx1112basic_stringIcSt11char_traitsIcESaIcEE5c_strEv
FNDA:0,_ZNKSt7__cxx1112basic_stringIcSt11char_traitsIcESaIcEE5c_strEv
DA:164,0
DA:165,0
DA:167,0
DA:168,0
DA:186,0
DA:187,0
DA:190,0
DA:191,0
DA:194,0
DA:195,0
DA:198,0
DA:201,0
DA:208,0
DA:211,0
DA:218,0
DA:219,0
DA:222,0
DA:224,0
DA:225,0
DA:226,0
DA:229,0
DA:230,0
DA:237,0
DA:239,0
DA:240,0
DA:241,0
DA:244,0
DA:245,0
DA:251,0
DA:255,0
DA:256,0
DA:271,0
DA:274,0
DA:275,0
DA:294,0
DA:295,0
DA:298,0
DA:299,0
DA:354,0
DA:356,0
DA:357,0
DA:359,0
DA:360,0
DA:400,0
DA:401,0
DA:404,0
DA:406,0
DA:456,0
DA:457,0
DA:458,0
DA:459,0
DA:533,0
DA:534,0
DA:536,0
DA:539,0
DA:540,0
DA:565,31
DA:566,31
DA:568,31
DA:570,29
DA:575,2
DA:576,2
DA:582,31
DA:583,31
DA:584,31
DA:585,31
DA:671,0
DA:672,0
DA:926,0
DA:927,0
DA:931,0
DA:932,0
DA:2320,0
DA:2321,0
end_of_record
SF:/usr/include/c++/11/bits/cpp_type_traits.h
FN:560,_ZSt12__miter_baseIPKcET_S2_
FNDA:0,_ZSt12__miter_baseIPKcET_S2_
DA:560,0
DA:561,0
end_of_record
SF:/usr/include/c++/11/type_traits
FN:3418,_ZSt21is_constant_evaluatedv
FNDA:0,_ZSt21is_constant_evaluatedv
DA:3418,0
DA:3419,0
end_of_record
SF:/usr/include/c++/11/bits/allocator.h
FN:156,_ZNSaINSt7__cxx1112basic_stringIcSt11char_traitsIcESaIcEEEEC2Ev
FNDA:14,_ZNSaINSt7__cxx1112basic_stringIcSt11char_traitsIcESaIcEEEEC2Ev
FN:156,_ZNSaI21waitableMessageSourceEC2Ev
FNDA:0,_ZNSaI21waitableMessageSourceEC2Ev
FN:156,_ZNSaI14waitable_timerEC2Ev
FNDA:0,_ZNSaI14waitable_timerEC2Ev
FN:156,_ZNSaISt13_Rb_tree_nodeISt4pairIKiiEEEC2Ev
FNDA:0,_ZNSaISt13_Rb_tree_nodeISt4pairIKiiEEEC2Ev
FN:156,_ZNSaI4wfmoEC2Ev
FNDA:0,_ZNSaI4wfmoEC2Ev
FN:156,_ZNSaI14postable_timerEC2Ev
FNDA:0,_ZNSaI14postable_timerEC2Ev
FN:159,_ZNSaI14postable_timerEC2ERKS0_
FNDA:0,_ZNSaI14postable_timerEC2ERKS0_
FN:159,_ZNSaI4wfmoEC2ERKS0_
FNDA:0,_ZNSaI4wfmoEC2ERKS0_
FN:159,_ZNSaI14waitable_timerEC2ERKS0_
FNDA:0,_ZNSaI14waitable_timerEC2ERKS0_
FN:159,_ZNSaI21waitableMessageSourceEC2ERKS0_
FNDA:0,_ZNSaI21waitableMessageSourceEC2ERKS0_
FN:159,_ZNSaISt13_Rb_tree_nodeISt4pairIKiiEEEC2ERKS4_
FNDA:0,_ZNSaISt13_Rb_tree_nodeISt4pairIKiiEEEC2ERKS4_
FN:169,_ZNSaISt23_Sp_counted_ptr_inplaceI21waitableMessageSourceSaIS0_ELN9__gnu_cxx12_Lock_policyE2EEEC2IS0_EERKSaIT_E
FNDA:0,_ZNSaISt23_Sp_counted_ptr_inplaceI21waitableMessageSourceSaIS0_ELN9__gnu_cxx12_Lock_policyE2EEEC2IS0_EERKSaIT_E
FN:169,_ZNSaISt23_Sp_counted_ptr_inplaceI14waitable_timerSaIS0_ELN9__gnu_cxx12_Lock_policyE2EEEC2IS0_EERKSaIT_E
FNDA:0,_ZNSaISt23_Sp_counted_ptr_inplaceI14waitable_timerSaIS0_ELN9__gnu_cxx12_Lock_policyE2EEEC2IS0_EERKSaIT_E
FN:169,_ZNSaISt23_Sp_counted_ptr_inplaceI4wfmoSaIS0_ELN9__gnu_cxx12_Lock_policyE2EEEC2IS0_EERKSaIT_E
FNDA:0,_ZNSaISt23_Sp_counted_ptr_inplaceI4wfmoSaIS0_ELN9__gnu_cxx12_Lock_policyE2EEEC2IS0_EERKSaIT_E
FN:169,_ZNSaISt23_Sp_counted_ptr_inplaceI14postable_timerSaIS0_ELN9__gnu_cxx12_Lock_policyE2EEEC2IS0_EERKSaIT_E
FNDA:0,_ZNSaISt23_Sp_counted_ptr_inplaceI14postable_timerSaIS0_ELN9__gnu_cxx12_Lock_policyE2EEEC2IS0_EERKSaIT_E
FN:174,_ZNSaI14postable_timerED2Ev
FNDA:0,_ZNSaI14postable_timerED2Ev
FN:174,_ZNSaI4wfmoED2Ev
FNDA:0,_ZNSaI4wfmoED2Ev
FN:174,_ZNSaISt23_Sp_counted_ptr_inplaceI21waitableMessageSourceSaIS0_ELN9__gnu_cxx12_Lock_policyE2EEED2Ev
FNDA:0,_ZNSaISt23_Sp_counted_ptr_inplaceI21waitableMessageSourceSaIS0_ELN9__gnu_cxx12_Lock_policyE2EEED2Ev
FN:174,_ZNSaI14waitable_timerED2Ev
FNDA:0,_ZNSaI14waitable_timerED2Ev
FN:174,_ZNSaISt23_Sp_counted_ptr_inplaceI14waitable_timerSaIS0_ELN9__gnu_cxx12_Lock_policyE2EEED2Ev
FNDA:0,_ZNSaISt23_Sp_counted_ptr_inplaceI14waitable_timerSaIS0_ELN9__gnu_cxx12_Lock_policyE2EEED2Ev
FN:174,_ZNSaI21waitableMessageSourceED2Ev
FNDA:0,_ZNSaI21waitableMessageSourceED2Ev
FN:174,_ZNSaISt23_Sp_counted_ptr_inplaceI4wfmoSaIS0_ELN9__gnu_cxx12_Lock_policyE2EEED2Ev
FNDA:0,_ZNSaISt23_Sp_counted_ptr_inplaceI4wfmoSaIS0_ELN9__gnu_cxx12_Lock_policyE2EEED2Ev
FN:174,_ZNSaISt23_Sp_counted_ptr_inplaceI14postable_timerSaIS0_ELN9__gnu_cxx12_Lock_policyE2EEED2Ev
FNDA:0,_ZNSaISt23_Sp_counted_ptr_inplaceI14postable_timerSaIS0_ELN9__gnu_cxx12_Lock_policyE2EEED2Ev
FN:174,_ZNSaISt13_Rb_tree_nodeISt4pairIKiiEEED2Ev
FNDA:0,_ZNSaISt13_Rb_tree_nodeISt4pairIKiiEEED2Ev
FN:174,_ZNSaINSt7__cxx1112basic_stringIcSt11char_traitsIcESaIcEEEED2Ev
FNDA:20,_ZNSaINSt7__cxx1112basic_stringIcSt11char_traitsIcESaIcEEEED2Ev
DA:156,0
DA:156,0
DA:156,0
DA:156,0
DA:156,0
DA:156,14
DA:159,0
DA:160,0
DA:159,0
DA:160,0
DA:159,0
DA:160,0
DA:159,0
DA:160,0
DA:159,0
DA:160,0
DA:169,0
DA:169,0
DA:169,0
DA:169,0
DA:174,0
DA:174,0
DA:174,0
DA:174,0
DA:174,0
DA:174,0
DA:174,0
DA:174,0
DA:174,0
DA:174,20
DA:182,11
DA:183,0
DA:185,11
DA:193,11
DA:195,0
DA:196,0
DA:199,11
end_of_record
SF:/home/yackey/projects/waitables/vpgnixApp/src/aspthread.cpp
FN:20,_ZN9aspthreadC2ESt10shared_ptrI14waitable_eventES0_I7ILoggerE
FNDA:1,_ZN9aspthreadC2ESt10shared_ptrI14waitable_eventES0_I7ILoggerE
FN:27,_ZN9aspthread5startEv
FNDA:0,_ZN9aspthread5startEv
FN:40,_ZN9aspthread3runEiRNSt7__cxx1112basic_stringIcSt11char_traitsIcESaIcEEE
FNDA:0,_ZN9aspthread3runEiRNSt7__cxx1112basic_stringIcSt11char_traitsIcESaIcEEE
FN:104,_ZN9aspthread19handleWaitableTimerEv
FNDA:0,_ZN9aspthread19handleWaitableTimerEv
FN:119,_ZN9aspthread4stopEv
FNDA:0,_ZN9aspthread4stopEv
FN:154,_ZN9aspthread16postSomeMessagesEv
FNDA:0,_ZN9aspthread16postSomeMessagesEv
DA:20,1
DA:21,1
DA:22,1
DA:23,1
DA:24,1
DA:25,1
DA:27,0
DA:28,0
DA:29,0
DA:30,0
DA:31,0
DA:32,0
DA:33,0
DA:34,0
DA:35,0
DA:36,0
DA:37,0
DA:38,0
DA:40,0
DA:41,0
DA:44,0
DA:45,0
DA:46,0
DA:48,0
DA:49,0
DA:54,0
DA:55,0
DA:57,0
DA:59,0
DA:60,0
DA:61,0
DA:64,0
DA:65,0
DA:66,0
DA:68,0
DA:69,0
DA:71,0
DA:72,0
DA:73,0
DA:75,0
DA:76,0
DA:78,0
DA:79,0
DA:80,0
DA:81,0
DA:84,0
DA:85,0
DA:86,0
DA:87,0
DA:88,0
DA:89,0
DA:90,0
DA:92,0
DA:94,0
DA:97,0
DA:99,0
DA:100,0
DA:101,0
DA:102,0
DA:104,0
DA:105,0
DA:106,0
DA:107,0
DA:108,0
DA:109,0
DA:111,0
DA:114,0
DA:115,0
DA:117,0
DA:119,0
DA:120,0
DA:121,0
DA:122,0
DA:123,0
DA:125,0
DA:126,0
DA:128,0
DA:131,0
DA:133,0
DA:134,0
DA:135,0
DA:136,0
DA:138,0
DA:139,0
DA:140,0
DA:141,0
DA:142,0
DA:144,0
DA:146,0
DA:149,0
DA:150,0
DA:151,0
DA:152,0
DA:154,0
DA:155,0
DA:156,0
DA:157,0
DA:158,0
DA:159,0
DA:160,0
DA:162,0
end_of_record
SF:/home/yackey/projects/waitables/vpgnixApp/include/aspthread.h
FN:19,_ZN9aspthreadD0Ev
FNDA:0,_ZN9aspthreadD0Ev
FN:19,_ZN9aspthreadD2Ev
FNDA:1,_ZN9aspthreadD2Ev
DA:19,0
DA:19,1
end_of_record
SF:/usr/include/c++/11/functional
FN:363,_ZNVKSt3_MuISt12_PlaceholderILi2EELb0ELb1EEclISt5tupleIJOiRNSt7__cxx1112basic_stringIcSt11char_traitsIcESaIcEEEEEEEONSt9enable_ifIXltLm1EsrSt10tuple_sizeIT_E5valueESt13tuple_elementILm1ESG_EE4type4typeERVKS1_RSG_
FNDA:0,_ZNVKSt3_MuISt12_PlaceholderILi2EELb0ELb1EEclISt5tupleIJOiRNSt7__cxx1112basic_stringIcSt11char_traitsIcESaIcEEEEEEEONSt9enable_ifIXltLm1EsrSt10tuple_sizeIT_E5valueESt13tuple_elementILm1ESG_EE4type4typeERVKS1_RSG_
FN:363,_ZNVKSt3_MuISt12_PlaceholderILi1EELb0ELb1EEclISt5tupleIJOiRNSt7__cxx1112basic_stringIcSt11char_traitsIcESaIcEEEEEEEONSt9enable_ifIXltLm0EsrSt10tuple_sizeIT_E5valueESt13tuple_elementILm0ESG_EE4type4typeERVKS1_RSG_
FNDA:0,_ZNVKSt3_MuISt12_PlaceholderILi1EELb0ELb1EEclISt5tupleIJOiRNSt7__cxx1112basic_stringIcSt11char_traitsIcESaIcEEEEEEEONSt9enable_ifIXltLm0EsrSt10tuple_sizeIT_E5valueESt13tuple_elementILm0ESG_EE4type4typeERVKS1_RSG_
FN:382,_ZNVKSt3_MuIP9aspthreadLb0ELb0EEclIRS1_St5tupleIJOiRNSt7__cxx1112basic_stringIcSt11char_traitsIcESaIcEEEEEEEOT_SG_RT0_
FNDA:0,_ZNVKSt3_MuIP9aspthreadLb0ELb0EEclIRS1_St5tupleIJOiRNSt7__cxx1112basic_stringIcSt11char_traitsIcESaIcEEEEEEEOT_SG_RT0_
FN:418,_ZNSt5_BindIFM9aspthreadFviRNSt7__cxx1112basic_stringIcSt11char_traitsIcESaIcEEEEPS0_St12_PlaceholderILi1EESB_ILi2EEEE6__callIvJOiS7_EJLm0ELm1ELm2EEEET_OSt5tupleIJDpT0_EESt12_Index_tupleIJXspT1_EEE
FNDA:0,_ZNSt5_BindIFM9aspthreadFviRNSt7__cxx1112basic_stringIcSt11char_traitsIcESaIcEEEEPS0_St12_PlaceholderILi1EESB_ILi2EEEE6__callIvJOiS7_EJLm0ELm1ELm2EEEET_OSt5tupleIJDpT0_EESt12_Index_tupleIJXspT1_EEE
FN:489,_ZNSt5_BindIFM9aspthreadFviRNSt7__cxx1112basic_stringIcSt11char_traitsIcESaIcEEEEPS0_St12_PlaceholderILi1EESB_ILi2EEEEC2IJSA_RKSC_RKSD_EEEOS9_DpOT_
FNDA:0,_ZNSt5_BindIFM9aspthreadFviRNSt7__cxx1112basic_stringIcSt11char_traitsIcESaIcEEEEPS0_St12_PlaceholderILi1EESB_ILi2EEEEC2IJSA_RKSC_RKSD_EEEOS9_DpOT_
FN:494,_ZNSt5_BindIFM9aspthreadFviRNSt7__cxx1112basic_stringIcSt11char_traitsIcESaIcEEEEPS0_St12_PlaceholderILi1EESB_ILi2EEEEC2EOSF_
FNDA:0,_ZNSt5_BindIFM9aspthreadFviRNSt7__cxx1112basic_stringIcSt11char_traitsIcESaIcEEEEPS0_St12_PlaceholderILi1EESB_ILi2EEEEC2EOSF_
FN:501,_ZNSt5_BindIFM9aspthreadFviRNSt7__cxx1112basic_stringIcSt11char_traitsIcESaIcEEEEPS0_St12_PlaceholderILi1EESB_ILi2EEEEclIJiS7_EvEET0_DpOT_
FNDA:0,_ZNSt5_BindIFM9aspthreadFviRNSt7__cxx1112basic_stringIcSt11char_traitsIcESaIcEEEEPS0_St12_PlaceholderILi1EESB_ILi2EEEEclIJiS7_EvEET0_DpOT_
FN:789,_ZSt4bindIM9aspthreadFviRNSt7__cxx1112basic_stringIcSt11char_traitsIcESaIcEEEEJPS0_RKSt12_PlaceholderILi1EERKSB_ILi2EEEENSt12_Bind_helperIXsrSt5__or_IJSt11is_integralINSt5decayIT_E4typeEESt7is_enumISO_EEE5valueESM_JDpT0_EE4typeEOSM_DpOST_
FNDA:0,_ZSt4bindIM9aspthreadFviRNSt7__cxx1112basic_stringIcSt11char_traitsIcESaIcEEEEJPS0_RKSt12_PlaceholderILi1EERKSB_ILi2EEEENSt12_Bind_helperIXsrSt5__or_IJSt11is_integralINSt5decayIT_E4typeEESt7is_enumISO_EEE5valueESM_JDpT0_EE4typeEOSM_DpOST_
DA:363,0
DA:366,0
DA:363,0
DA:366,0
DA:382,0
DA:383,0
DA:418,0
DA:420,0
DA:421,0
DA:422,0
DA:489,0
DA:490,0
DA:491,0
DA:494,0
DA:501,0
DA:503,0
DA:505,0
DA:789,0
DA:793,0
end_of_record
SF:/usr/include/c++/11/ext/type_traits.h
FN:152,_ZN9__gnu_cxx17__is_null_pointerIcEEbPT_
FNDA:0,_ZN9__gnu_cxx17__is_null_pointerIcEEbPT_
FN:152,_ZN9__gnu_cxx17__is_null_pointerIKcEEbPT_
FNDA:0,_ZN9__gnu_cxx17__is_null_pointerIKcEEbPT_
DA:152,0
DA:153,0
DA:152,0
DA:153,0
end_of_record
SF:/usr/include/c++/11/bits/alloc_traits.h
FN:463,_ZNSt16allocator_traitsISaISt23_Sp_counted_ptr_inplaceI4wfmoSaIS1_ELN9__gnu_cxx12_Lock_policyE2EEEE8allocateERS6_m
FNDA:0,_ZNSt16allocator_traitsISaISt23_Sp_counted_ptr_inplaceI4wfmoSaIS1_ELN9__gnu_cxx12_Lock_policyE2EEEE8allocateERS6_m
FN:463,_ZNSt16allocator_traitsISaINSt7__cxx1112basic_stringIcSt11char_traitsIcESaIcEEEEE8allocateERS6_m
FNDA:11,_ZNSt16allocator_traitsISaINSt7__cxx1112basic_stringIcSt11char_traitsIcESaIcEEEEE8allocateERS6_m
FN:463,_ZNSt16allocator_traitsISaISt13_Rb_tree_nodeISt4pairIKiiEEEE8allocateERS5_m
FNDA:0,_ZNSt16allocator_traitsISaISt13_Rb_tree_nodeISt4pairIKiiEEEE8allocateERS5_m
FN:463,_ZNSt16allocator_traitsISaISt23_Sp_counted_ptr_inplaceI21waitableMessageSourceSaIS1_ELN9__gnu_cxx12_Lock_policyE2EEEE8allocateERS6_m
FNDA:0,_ZNSt16allocator_traitsISaISt23_Sp_counted_ptr_inplaceI21waitableMessageSourceSaIS1_ELN9__gnu_cxx12_Lock_policyE2EEEE8allocateERS6_m
FN:463,_ZNSt16allocator_traitsISaISt23_Sp_counted_ptr_inplaceI14waitable_timerSaIS1_ELN9__gnu_cxx12_Lock_policyE2EEEE8allocateERS6_m
FNDA:0,_ZNSt16allocator_traitsISaISt23_Sp_counted_ptr_inplaceI14waitable_timerSaIS1_ELN9__gnu_cxx12_Lock_policyE2EEEE8allocateERS6_m
FN:463,_ZNSt16allocator_traitsISaISt23_Sp_counted_ptr_inplaceI14postable_timerSaIS1_ELN9__gnu_cxx12_Lock_policyE2EEEE8allocateERS6_m
FNDA:0,_ZNSt16allocator_traitsISaISt23_Sp_counted_ptr_inplaceI14postable_timerSaIS1_ELN9__gnu_cxx12_Lock_policyE2EEEE8allocateERS6_m
FN:463,_ZNSt16allocator_traitsISaIcEE8allocateERS0_m
FNDA:0,_ZNSt16allocator_traitsISaIcEE8allocateERS0_m
FN:495,_ZNSt16allocator_traitsISaISt23_Sp_counted_ptr_inplaceI14postable_timerSaIS1_ELN9__gnu_cxx12_Lock_policyE2EEEE10deallocateERS6_PS5_m
FNDA:0,_ZNSt16allocator_traitsISaISt23_Sp_counted_ptr_inplaceI14postable_timerSaIS1_ELN9__gnu_cxx12_Lock_policyE2EEEE10deallocateERS6_PS5_m
FN:495,_ZNSt16allocator_traitsISaIcEE10deallocateERS0_Pcm
FNDA:0,_ZNSt16allocator_traitsISaIcEE10deallocateERS0_Pcm
FN:495,_ZNSt16allocator_traitsISaISt13_Rb_tree_nodeISt4pairIKiiEEEE10deallocateERS5_PS4_m
FNDA:0,_ZNSt16allocator_traitsISaISt13_Rb_tree_nodeISt4pairIKiiEEEE10deallocateERS5_PS4_m
FN:495,_ZNSt16allocator_traitsISaINSt7__cxx1112basic_stringIcSt11char_traitsIcESaIcEEEEE10deallocateERS6_PS5_m
FNDA:11,_ZNSt16allocator_traitsISaINSt7__cxx1112basic_stringIcSt11char_traitsIcESaIcEEEEE10deallocateERS6_PS5_m
FN:495,_ZNSt16allocator_traitsISaISt23_Sp_counted_ptr_inplaceI21waitableMessageSourceSaIS1_ELN9__gnu_cxx12_Lock_policyE2EEEE10deallocateERS6_PS5_m
FNDA:0,_ZNSt16allocator_traitsISaISt23_Sp_counted_ptr_inplaceI21waitableMessageSourceSaIS1_ELN9__gnu_cxx12_Lock_policyE2EEEE10deallocateERS6_PS5_m
FN:495,_ZNSt16allocator_traitsISaISt23_Sp_counted_ptr_inplaceI14waitable_timerSaIS1_ELN9__gnu_cxx12_Lock_policyE2EEEE10deallocateERS6_PS5_m
FNDA:0,_ZNSt16allocator_traitsISaISt23_Sp_counted_ptr_inplaceI14waitable_timerSaIS1_ELN9__gnu_cxx12_Lock_policyE2EEEE10deallocateERS6_PS5_m
FN:495,_ZNSt16allocator_traitsISaISt23_Sp_counted_ptr_inplaceI4wfmoSaIS1_ELN9__gnu_cxx12_Lock_policyE2EEEE10deallocateERS6_PS5_m
FNDA:0,_ZNSt16allocator_traitsISaISt23_Sp_counted_ptr_inplaceI4wfmoSaIS1_ELN9__gnu_cxx12_Lock_policyE2EEEE10deallocateERS6_PS5_m
FN:511,_ZNSt16allocator_traitsISaI14waitable_timerEE9constructIS0_JRKi9timerTypeRSt10shared_ptrI7ILoggerEEEEvRS1_PT_DpOT0_
FNDA:0,_ZNSt16allocator_traitsISaI14waitable_timerEE9constructIS0_JRKi9timerTypeRSt10shared_ptrI7ILoggerEEEEvRS1_PT_DpOT0_
FN:511,_ZNSt16allocator_traitsISaISt13_Rb_tree_nodeISt4pairIKiiEEEE9constructIS3_JRKS3_EEEvRS5_PT_DpOT0_
FNDA:0,_ZNSt16allocator_traitsISaISt13_Rb_tree_nodeISt4pairIKiiEEEE9constructIS3_JRKS3_EEEvRS5_PT_DpOT0_
FN:511,_ZNSt16allocator_traitsISaI21waitableMessageSourceEE9constructIS0_JRNSt7__cxx1112basic_stringIcSt11char_traitsIcESaIcEEERSt10shared_ptrI7ILoggerEEEEvRS1_PT_DpOT0_
FNDA:0,_ZNSt16allocator_traitsISaI21waitableMessageSourceEE9constructIS0_JRNSt7__cxx1112basic_stringIcSt11char_traitsIcESaIcEEERSt10shared_ptrI7ILoggerEEEEvRS1_PT_DpOT0_
FN:511,_ZNSt16allocator_traitsISaINSt7__cxx1112basic_stringIcSt11char_traitsIcESaIcEEEEE9constructIS5_JS5_EEEvRS6_PT_DpOT0_
FNDA:14,_ZNSt16allocator_traitsISaINSt7__cxx1112basic_stringIcSt11char_traitsIcESaIcEEEEE9constructIS5_JS5_EEEvRS6_PT_DpOT0_
FN:511,_ZNSt16allocator_traitsISaISt13_Rb_tree_nodeISt4pairIKiiEEEE9constructIS3_JS1_IiiEEEEvRS5_PT_DpOT0_
FNDA:0,_ZNSt16allocator_traitsISaISt13_Rb_tree_nodeISt4pairIKiiEEEE9constructIS3_JS1_IiiEEEEvRS5_PT_DpOT0_
FN:511,_ZNSt16allocator_traitsISaI4wfmoEE9constructIS0_JRSt3mapIiiSt4lessIiESaISt4pairIKiiEEEEEEvRS1_PT_DpOT0_
FNDA:0,_ZNSt16allocator_traitsISaI4wfmoEE9constructIS0_JRSt3mapIiiSt4lessIiESaISt4pairIKiiEEEEEEvRS1_PT_DpOT0_
FN:511,_ZNSt16allocator_traitsISaI14postable_timerEE9constructIS0_JRKi9timerTypeNSt7__cxx1112basic_stringIcSt11char_traitsIcESaIcEEERSt10shared_ptrI22IWaitableMessageSourceERSD_I7ILoggerEEEEvRS1_PT_DpOT0_
FNDA:0,_ZNSt16allocator_traitsISaI14postable_timerEE9constructIS0_JRKi9timerTypeNSt7__cxx1112basic_stringIcSt11char_traitsIcESaIcEEERSt10shared_ptrI22IWaitableMessageSourceERSD_I7ILoggerEEEEvRS1_PT_DpOT0_
FN:531,_ZNSt16allocator_traitsISaI14waitable_timerEE7destroyIS0_EEvRS1_PT_
FNDA:0,_ZNSt16allocator_traitsISaI14waitable_timerEE7destroyIS0_EEvRS1_PT_
FN:531,_ZNSt16allocator_traitsISaINSt7__cxx1112basic_stringIcSt11char_traitsIcESaIcEEEEE7destroyIS5_EEvRS6_PT_
FNDA:2,_ZNSt16allocator_traitsISaINSt7__cxx1112basic_stringIcSt11char_traitsIcESaIcEEEEE7destroyIS5_EEvRS6_PT_
FN:531,_ZNSt16allocator_traitsISaISt13_Rb_tree_nodeISt4pairIKiiEEEE7destroyIS3_EEvRS5_PT_
FNDA:0,_ZNSt16allocator_traitsISaISt13_Rb_tree_nodeISt4pairIKiiEEEE7destroyIS3_EEvRS5_PT_
FN:531,_ZNSt16allocator_traitsISaI14postable_timerEE7destroyIS0_EEvRS1_PT_
FNDA:0,_ZNSt16allocator_traitsISaI14postable_timerEE7destroyIS0_EEvRS1_PT_
FN:531,_ZNSt16allocator_traitsISaI4wfmoEE7destroyIS0_EEvRS1_PT_
FNDA:0,_ZNSt16allocator_traitsISaI4wfmoEE7destroyIS0_EEvRS1_PT_
FN:531,_ZNSt16allocator_traitsISaI21waitableMessageSourceEE7destroyIS0_EEvRS1_PT_
FNDA:0,_ZNSt16allocator_traitsISaI21waitableMessageSourceEE7destroyIS0_EEvRS1_PT_
FN:547,_ZNSt16allocator_traitsISaIcEE8max_sizeERKS0_
FNDA:0,_ZNSt16allocator_traitsISaIcEE8max_sizeERKS0_
FN:547,_ZNSt16allocator_traitsISaINSt7__cxx1112basic_stringIcSt11char_traitsIcESaIcEEEEE8max_sizeERKS6_
FNDA:17,_ZNSt16allocator_traitsISaINSt7__cxx1112basic_stringIcSt11char_traitsIcESaIcEEEEE8max_sizeERKS6_
FN:562,_ZNSt16allocator_traitsISaISt13_Rb_tree_nodeISt4pairIKiiEEEE37select_on_container_copy_constructionERKS5_
FNDA:0,_ZNSt16allocator_traitsISaISt13_Rb_tree_nodeISt4pairIKiiEEEE37select_on_container_copy_constructionERKS5_
FN:562,_ZNSt16allocator_traitsISaIcEE37select_on_container_copy_constructionERKS0_
FNDA:0,_ZNSt16allocator_traitsISaIcEE37select_on_container_copy_constructionERKS0_
FN:845,_ZSt8_DestroyIPNSt7__cxx1112basic_stringIcSt11char_traitsIcESaIcEEES5_EvT_S7_RSaIT0_E
FNDA:17,_ZSt8_DestroyIPNSt7__cxx1112basic_stringIcSt11char_traitsIcESaIcEEES5_EvT_S7_RSaIT0_E
DA:463,0
DA:464,0
DA:463,0
DA:464,0
DA:463,0
DA:464,0
DA:463,0
DA:464,0
DA:463,0
DA:464,0
DA:463,11
DA:464,11
DA:463,0
DA:464,0
DA:495,0
DA:496,0
DA:495,0
DA:496,0
DA:495,0
DA:496,0
DA:495,0
DA:496,0
DA:495,0
DA:496,0
DA:495,11
DA:496,11
DA:495,0
DA:496,0
DA:511,0
DA:518,0
DA:520,0
DA:511,0
DA:518,0
DA:520,0
DA:511,0
DA:518,0
DA:520,0
DA:511,0
DA:518,0
DA:520,0
DA:511,0
DA:518,0
DA:520,0
DA:511,0
DA:518,0
DA:520,0
DA:511,14
DA:518,14
DA:520,14
DA:531,0
DA:537,0
DA:539,0
DA:531,0
DA:537,0
DA:539,0
DA:531,0
DA:537,0
DA:539,0
DA:531,0
DA:537,0
DA:539,0
DA:531,0
DA:537,0
DA:539,0
DA:531,2
DA:537,2
DA:539,2
DA:547,17
DA:552,17
DA:547,0
DA:552,0
DA:562,0
DA:563,0
DA:562,0
DA:563,0
DA:845,17
DA:848,17
DA:849,17
end_of_record
SF:/usr/include/c++/11/bits/basic_string.tcc
FN:132,_ZNSt7__cxx1112basic_stringIcSt11char_traitsIcESaIcEE9_M_createERmm
FNDA:0,_ZNSt7__cxx1112basic_stringIcSt11char_traitsIcESaIcEE9_M_createERmm
FN:206,_ZNSt7__cxx1112basic_stringIcSt11char_traitsIcESaIcEE12_M_constructIPcEEvT_S7_St20forward_iterator_tag
FNDA:0,_ZNSt7__cxx1112basic_stringIcSt11char_traitsIcESaIcEE12_M_constructIPcEEvT_S7_St20forward_iterator_tag
FN:206,_ZNSt7__cxx1112basic_stringIcSt11char_traitsIcESaIcEE12_M_constructIPKcEEvT_S8_St20forward_iterator_tag
FNDA:0,_ZNSt7__cxx1112basic_stringIcSt11char_traitsIcESaIcEE12_M_constructIPKcEEvT_S8_St20forward_iterator_tag
DA:132,0
DA:137,0
DA:138,0
DA:143,0
DA:145,0
DA:147,0
DA:148,0
DA:153,0
DA:206,0
DA:211,0
DA:212,0
DA:215,0
DA:217,0
DA:219,0
DA:220,0
DA:225,0
DA:232,0
DA:233,0
DA:206,0
DA:211,0
DA:212,0
DA:215,0
DA:217,0
DA:219,0
DA:220,0
DA:225,0
DA:232,0
DA:233,0
end_of_record
SF:/usr/include/c++/11/bits/stl_pair.h
FN:322,_ZNSt4pairIPSt18_Rb_tree_node_baseS1_EC2IRS1_Lb1EEEOT_RKS1_
FNDA:0,_ZNSt4pairIPSt18_Rb_tree_node_baseS1_EC2IRS1_Lb1EEEOT_RKS1_
FN:322,_ZNSt4pairIiiEC2IiLb1EEEOT_RKi
FNDA:0,_ZNSt4pairIiiEC2IiLb1EEEOT_RKi
FN:352,_ZNSt4pairIPSt18_Rb_tree_node_baseS1_EC2IRPSt13_Rb_tree_nodeIS_IKiiEERS1_Lb1EEEOT_OT0_
FNDA:0,_ZNSt4pairIPSt18_Rb_tree_node_baseS1_EC2IRPSt13_Rb_tree_nodeIS_IKiiEERS1_Lb1EEEOT_OT0_
FN:352,_ZNSt4pairISt17_Rb_tree_iteratorIS_IKiiEEbEC2IS3_bLb1EEEOT_OT0_
FNDA:0,_ZNSt4pairISt17_Rb_tree_iteratorIS_IKiiEEbEC2IS3_bLb1EEEOT_OT0_
FN:352,_ZNSt4pairIiiEC2IiiLb1EEEOT_OT0_
FNDA:0,_ZNSt4pairIiiEC2IiiLb1EEEOT_OT0_
FN:371,_ZNSt4pairIKiiEC2IiiLb1EEEOS_IT_T0_E
FNDA:0,_ZNSt4pairIKiiEC2IiiLb1EEEOS_IT_T0_E
DA:322,0
DA:323,0
DA:322,0
DA:323,0
DA:352,0
DA:353,0
DA:352,0
DA:353,0
DA:352,0
DA:353,0
DA:371,0
DA:372,0
DA:373,0
end_of_record
SF:/usr/include/c++/11/bits/shared_ptr.h
FN:148,_ZNSt10shared_ptrI14postable_timerEC2Ev
FNDA:1,_ZNSt10shared_ptrI14postable_timerEC2Ev
FN:148,_ZNSt10shared_ptrI14waitable_timerEC2Ev
FNDA:1,_ZNSt10shared_ptrI14waitable_timerEC2Ev
FN:148,_ZNSt10shared_ptrI7ILoggerEC2Ev
FNDA:0,_ZNSt10shared_ptrI7ILoggerEC2Ev
FN:148,_ZNSt10shared_ptrI14waitable_eventEC2Ev
FNDA:0,_ZNSt10shared_ptrI14waitable_eventEC2Ev
FN:148,_ZNSt10shared_ptrI22IWaitableMessageSourceEC2Ev
FNDA:1,_ZNSt10shared_ptrI22IWaitableMessageSourceEC2Ev
FN:150,_ZNSt10shared_ptrI7ILoggerEC2ERKS1_
FNDA:0,_ZNSt10shared_ptrI7ILoggerEC2ERKS1_
FN:150,_ZNSt10shared_ptrI22IWaitableMessageSourceEC2ERKS1_
FNDA:0,_ZNSt10shared_ptrI22IWaitableMessageSourceEC2ERKS1_
FN:359,_ZNSt10shared_ptrI14waitable_eventEaSERKS1_
FNDA:0,_ZNSt10shared_ptrI14waitable_eventEaSERKS1_
FN:359,_ZNSt10shared_ptrI7ILoggerEaSERKS1_
FNDA:0,_ZNSt10shared_ptrI7ILoggerEaSERKS1_
FN:383,_ZNSt10shared_ptrI14postable_timerEaSEOS1_
FNDA:0,_ZNSt10shared_ptrI14postable_timerEaSEOS1_
FN:383,_ZNSt10shared_ptrI14waitable_timerEaSEOS1_
FNDA:0,_ZNSt10shared_ptrI14waitable_timerEaSEOS1_
FN:391,_ZNSt10shared_ptrI22IWaitableMessageSourceEaSI21waitableMessageSourceEENSt9enable_ifIXsrSt13is_assignableIRSt12__shared_ptrIS0_LN9__gnu_cxx12_Lock_policyE2EES_IT_EE5valueERS1_E4typeEOSC_
FNDA:0,_ZNSt10shared_ptrI22IWaitableMessageSourceEaSI21waitableMessageSourceEENSt9enable_ifIXsrSt13is_assignableIRSt12__shared_ptrIS0_LN9__gnu_cxx12_Lock_policyE2EES_IT_EE5valueERS1_E4typeEOSC_
FN:408,_ZNSt10shared_ptrI21waitableMessageSourceEC2ISaIS0_EJRNSt7__cxx1112basic_stringIcSt11char_traitsIcESaIcEEERS_I7ILoggerEEEESt20_Sp_alloc_shared_tagIT_EDpOT0_
FNDA:0,_ZNSt10shared_ptrI21waitableMessageSourceEC2ISaIS0_EJRNSt7__cxx1112basic_stringIcSt11char_traitsIcESaIcEEERS_I7ILoggerEEEESt20_Sp_alloc_shared_tagIT_EDpOT0_
FN:408,_ZNSt10shared_ptrI14waitable_timerEC2ISaIS0_EJRKi9timerTypeRS_I7ILoggerEEEESt20_Sp_alloc_shared_tagIT_EDpOT0_
FNDA:0,_ZNSt10shared_ptrI14waitable_timerEC2ISaIS0_EJRKi9timerTypeRS_I7ILoggerEEEESt20_Sp_alloc_shared_tagIT_EDpOT0_
FN:408,_ZNSt10shared_ptrI4wfmoEC2ISaIS0_EJRSt3mapIiiSt4lessIiESaISt4pairIKiiEEEEEESt20_Sp_alloc_shared_tagIT_EDpOT0_
FNDA:0,_ZNSt10shared_ptrI4wfmoEC2ISaIS0_EJRSt3mapIiiSt4lessIiESaISt4pairIKiiEEEEEESt20_Sp_alloc_shared_tagIT_EDpOT0_
FN:408,_ZNSt10shared_ptrI14postable_timerEC2ISaIS0_EJRKi9timerTypeNSt7__cxx1112basic_stringIcSt11char_traitsIcESaIcEEERS_I22IWaitableMessageSourceERS_I7ILoggerEEEESt20_Sp_alloc_shared_tagIT_EDpOT0_
FNDA:0,_ZNSt10shared_ptrI14postable_timerEC2ISaIS0_EJRKi9timerTypeNSt7__cxx1112basic_stringIcSt11char_traitsIcESaIcEEERS_I22IWaitableMessageSourceERS_I7ILoggerEEEESt20_Sp_alloc_shared_tagIT_EDpOT0_
FN:858,_ZSt15allocate_sharedI21waitableMessageSourceSaIS0_EJRNSt7__cxx1112basic_stringIcSt11char_traitsIcESaIcEEERSt10shared_ptrI7ILoggerEEES9_IT_ERKT0_DpOT1_
FNDA:0,_ZSt15allocate_sharedI21waitableMessageSourceSaIS0_EJRNSt7__cxx1112basic_stringIcSt11char_traitsIcESaIcEEERSt10shared_ptrI7ILoggerEEES9_IT_ERKT0_DpOT1_
FN:858,_ZSt15allocate_sharedI14waitable_timerSaIS0_EJRKi9timerTypeRSt10shared_ptrI7ILoggerEEES5_IT_ERKT0_DpOT1_
FNDA:0,_ZSt15allocate_sharedI14waitable_timerSaIS0_EJRKi9timerTypeRSt10shared_ptrI7ILoggerEEES5_IT_ERKT0_DpOT1_
FN:858,_ZSt15allocate_sharedI4wfmoSaIS0_EJRSt3mapIiiSt4lessIiESaISt4pairIKiiEEEEESt10shared_ptrIT_ERKT0_DpOT1_
FNDA:0,_ZSt15allocate_sharedI4wfmoSaIS0_EJRSt3mapIiiSt4lessIiESaISt4pairIKiiEEEEESt10shared_ptrIT_ERKT0_DpOT1_
FN:858,_ZSt15allocate_sharedI14postable_timerSaIS0_EJRKi9timerTypeNSt7__cxx1112basic_stringIcSt11char_traitsIcESaIcEEERSt10shared_ptrI22IWaitableMessageSourceERSB_I7ILoggerEEESB_IT_ERKT0_DpOT1_
FNDA:0,_ZSt15allocate_sharedI14postable_timerSaIS0_EJRKi9timerTypeNSt7__cxx1112basic_stringIcSt11char_traitsIcESaIcEEERSt10shared_ptrI22IWaitableMessageSourceERSB_I7ILoggerEEESB_IT_ERKT0_DpOT1_
FN:875,_ZSt11make_sharedI14postable_timerJRKi9timerTypeNSt7__cxx1112basic_stringIcSt11char_traitsIcESaIcEEERSt10shared_ptrI22IWaitableMessageSourceERSA_I7ILoggerEEESA_IT_EDpOT0_
FNDA:0,_ZSt11make_sharedI14postable_timerJRKi9timerTypeNSt7__cxx1112basic_stringIcSt11char_traitsIcESaIcEEERSt10shared_ptrI22IWaitableMessageSourceERSA_I7ILoggerEEESA_IT_EDpOT0_
FN:875,_ZSt11make_sharedI4wfmoJRSt3mapIiiSt4lessIiESaISt4pairIKiiEEEEESt10shared_ptrIT_EDpOT0_
FNDA:0,_ZSt11make_sharedI4wfmoJRSt3mapIiiSt4lessIiESaISt4pairIKiiEEEEESt10shared_ptrIT_EDpOT0_
FN:875,_ZSt11make_sharedI14waitable_timerJRKi9timerTypeRSt10shared_ptrI7ILoggerEEES4_IT_EDpOT0_
FNDA:0,_ZSt11make_sharedI14waitable_timerJRKi9timerTypeRSt10shared_ptrI7ILoggerEEES4_IT_EDpOT0_
FN:875,_ZSt11make_sharedI21waitableMessageSourceJRNSt7__cxx1112basic_stringIcSt11char_traitsIcESaIcEEERSt10shared_ptrI7ILoggerEEES8_IT_EDpOT0_
FNDA:0,_ZSt11make_sharedI21waitableMessageSourceJRNSt7__cxx1112basic_stringIcSt11char_traitsIcESaIcEEERSt10shared_ptrI7ILoggerEEES8_IT_EDpOT0_
DA:148,1
DA:148,0
DA:148,0
DA:148,1
DA:148,1
DA:150,0
DA:150,0
DA:359,0
DA:359,0
DA:383,0
DA:385,0
DA:386,0
DA:383,0
DA:385,0
DA:386,0
DA:391,0
DA:393,0
DA:394,0
DA:408,0
DA:409,0
DA:410,0
DA:408,0
DA:409,0
DA:410,0
DA:408,0
DA:409,0
DA:410,0
DA:408,0
DA:409,0
DA:410,0
DA:858,0
DA:863,0
DA:858,0
DA:863,0
DA:858,0
DA:863,0
DA:858,0
DA:863,0
DA:875,0
DA:878,0
DA:879,0
DA:875,0
DA:878,0
DA:879,0
DA:875,0
DA:878,0
DA:879,0
DA:875,0
DA:878,0
DA:879,0
end_of_record
SF:/usr/include/c++/11/bits/stl_algobase.h
FN:230,_ZSt3minImERKT_S2_S2_
FNDA:28,_ZSt3minImERKT_S2_S2_
FN:254,_ZSt3maxImERKT_S2_S2_
FNDA:13,_ZSt3maxImERKT_S2_S2_
FN:313,_ZSt12__niter_baseIPNSt7__cxx1112basic_stringIcSt11char_traitsIcESaIcEEEET_S7_
FNDA:51,_ZSt12__niter_baseIPNSt7__cxx1112basic_stringIcSt11char_traitsIcESaIcEEEET_S7_
FN:313,_ZSt12__niter_baseIPcET_S1_
FNDA:0,_ZSt12__niter_baseIPcET_S1_
FN:313,_ZSt12__niter_baseIPKcET_S2_
FNDA:0,_ZSt12__niter_baseIPKcET_S2_
FN:335,_ZSt12__niter_wrapIPcET_RKS1_S1_
FNDA:0,_ZSt12__niter_wrapIPcET_RKS1_S1_
FN:380,_ZNSt11__copy_moveILb0ELb0ESt26random_access_iterator_tagE8__copy_mIPKcPcEET0_T_S7_S6_
FNDA:0,_ZNSt11__copy_moveILb0ELb0ESt26random_access_iterator_tagE8__copy_mIPKcPcEET0_T_S7_S6_
FN:420,_ZNSt11__copy_moveILb0ELb1ESt26random_access_iterator_tagE8__copy_mIcEEPT_PKS3_S6_S4_
FNDA:0,_ZNSt11__copy_moveILb0ELb1ESt26random_access_iterator_tagE8__copy_mIcEEPT_PKS3_S6_S4_
FN:486,_ZSt14__copy_move_a2ILb0EPKcPcET1_T0_S4_S3_
FNDA:0,_ZSt14__copy_move_a2ILb0EPKcPcET1_T0_S4_S3_
FN:521,_ZSt14__copy_move_a1ILb0EPKcPcET1_T0_S4_S3_
FNDA:0,_ZSt14__copy_move_a1ILb0EPKcPcET1_T0_S4_S3_
FN:527,_ZSt13__copy_move_aILb0EPKcPcET1_T0_S4_S3_
FNDA:0,_ZSt13__copy_move_aILb0EPKcPcET1_T0_S4_S3_
FN:611,_ZSt4copyIPKcPcET0_T_S4_S3_
FNDA:0,_ZSt4copyIPKcPcET0_T_S4_S3_
DA:230,28
DA:235,28
DA:236,0
DA:237,28
DA:254,13
DA:259,13
DA:260,10
DA:261,3
DA:313,51
DA:315,51
DA:313,0
DA:315,0
DA:313,0
DA:315,0
DA:335,0
DA:336,0
DA:380,0
DA:383,0
DA:385,0
DA:386,0
DA:387,0
DA:389,0
DA:420,0
DA:429,0
DA:430,0
DA:431,0
DA:432,0
DA:486,0
DA:490,0
DA:492,0
DA:495,0
DA:521,0
DA:522,0
DA:527,0
DA:529,0
DA:532,0
DA:611,0
DA:620,0
end_of_record
SF:/usr/include/c++/11/bits/vector.tcc
FN:109,_ZNSt6vectorINSt7__cxx1112basic_stringIcSt11char_traitsIcESaIcEEESaIS5_EE12emplace_backIJS5_EEERS5_DpOT_
FNDA:7,_ZNSt6vectorINSt7__cxx1112basic_stringIcSt11char_traitsIcESaIcEEESaIS5_EE12emplace_backIJS5_EEERS5_DpOT_
FN:426,_ZNSt6vectorINSt7__cxx1112basic_stringIcSt11char_traitsIcESaIcEEESaIS5_EE17_M_realloc_insertIJS5_EEEvN9__gnu_cxx17__normal_iteratorIPS5_S7_EEDpOT_
FNDA:7,_ZNSt6vectorINSt7__cxx1112basic_stringIcSt11char_traitsIcESaIcEEESaIS5_EE17_M_realloc_insertIJS5_EEEvN9__gnu_cxx17__normal_iteratorIPS5_S7_EEDpOT_
DA:109,7
DA:112,7
DA:115,0
DA:117,0
DA:121,7
DA:123,7
DA:426,7
DA:436,7
DA:437,7
DA:438,7
DA:439,7
DA:440,7
DA:441,7
DA:449,7
DA:450,7
DA:456,7
DA:461,7
DA:462,7
DA:464,7
DA:466,7
DA:467,7
DA:500,7
DA:501,7
DA:502,7
DA:503,7
DA:504,7
DA:505,7
end_of_record
SF:/usr/include/c++/11/bits/stl_tree.h
FN:112,_ZNSt18_Rb_tree_node_base10_S_minimumEPS_
FNDA:0,_ZNSt18_Rb_tree_node_base10_S_minimumEPS_
FN:126,_ZNSt18_Rb_tree_node_base10_S_maximumEPS_
FNDA:0,_ZNSt18_Rb_tree_node_base10_S_maximumEPS_
FN:146,_ZNSt20_Rb_tree_key_compareISt4lessIiEEC2Ev
FNDA:0,_ZNSt20_Rb_tree_key_compareISt4lessIiEEC2Ev
FN:152,_ZNSt20_Rb_tree_key_compareISt4lessIiEEC2ERKS1_
FNDA:0,_ZNSt20_Rb_tree_key_compareISt4lessIiEEC2ERKS1_
FN:173,_ZNSt15_Rb_tree_headerC2Ev
FNDA:0,_ZNSt15_Rb_tree_headerC2Ev
FN:206,_ZNSt15_Rb_tree_header8_M_resetEv
FNDA:0,_ZNSt15_Rb_tree_header8_M_resetEv
FN:234,_ZNSt13_Rb_tree_nodeISt4pairIKiiEE9_M_valptrEv
FNDA:0,_ZNSt13_Rb_tree_nodeISt4pairIKiiEE9_M_valptrEv
FN:238,_ZNKSt13_Rb_tree_nodeISt4pairIKiiEE9_M_valptrEv
FNDA:0,_ZNKSt13_Rb_tree_nodeISt4pairIKiiEE9_M_valptrEv
FN:273,_ZNSt17_Rb_tree_iteratorISt4pairIKiiEEC2EPSt18_Rb_tree_node_base
FNDA:0,_ZNSt17_Rb_tree_iteratorISt4pairIKiiEEC2EPSt18_Rb_tree_node_base
FN:300,_ZNSt17_Rb_tree_iteratorISt4pairIKiiEEmmEv
FNDA:0,_ZNSt17_Rb_tree_iteratorISt4pairIKiiEEmmEv
FN:315,_ZSteqRKSt17_Rb_tree_iteratorISt4pairIKiiEES5_
FNDA:0,_ZSteqRKSt17_Rb_tree_iteratorISt4pairIKiiEES5_
FN:523,_ZNSt8_Rb_treeIiSt4pairIKiiESt10_Select1stIS2_ESt4lessIiESaIS2_EE11_Alloc_nodeC2ERS8_
FNDA:0,_ZNSt8_Rb_treeIiSt4pairIKiiESt10_Select1stIS2_ESt4lessIiESaIS2_EE11_Alloc_nodeC2ERS8_
FN:528,_ZNKSt8_Rb_treeIiSt4pairIKiiESt10_Select1stIS2_ESt4lessIiESaIS2_EE11_Alloc_nodeclIRKS2_EEPSt13_Rb_tree_nodeIS2_EOT_
FNDA:0,_ZNKSt8_Rb_treeIiSt4pairIKiiESt10_Select1stIS2_ESt4lessIiESaIS2_EE11_Alloc_nodeclIRKS2_EEPSt13_Rb_tree_nodeIS2_EOT_
FN:547,_ZNSt8_Rb_treeIiSt4pairIKiiESt10_Select1stIS2_ESt4lessIiESaIS2_EE21_M_get_Node_allocatorEv
FNDA:0,_ZNSt8_Rb_treeIiSt4pairIKiiESt10_Select1stIS2_ESt4lessIiESaIS2_EE21_M_get_Node_allocatorEv
FN:560,_ZNSt8_Rb_treeIiSt4pairIKiiESt10_Select1stIS2_ESt4lessIiESaIS2_EE11_M_get_nodeEv
FNDA:0,_ZNSt8_Rb_treeIiSt4pairIKiiESt10_Select1stIS2_ESt4lessIiESaIS2_EE11_M_get_nodeEv
FN:564,_ZNSt8_Rb_treeIiSt4pairIKiiESt10_Select1stIS2_ESt4lessIiESaIS2_EE11_M_put_nodeEPSt13_Rb_tree_nodeIS2_E
FNDA:0,_ZNSt8_Rb_treeIiSt4pairIKiiESt10_Select1stIS2_ESt4lessIiESaIS2_EE11_M_put_nodeEPSt13_Rb_tree_nodeIS2_E
FN:590,_ZNSt8_Rb_treeIiSt4pairIKiiESt10_Select1stIS2_ESt4lessIiESaIS2_EE17_M_construct_nodeIJRKS2_EEEvPSt13_Rb_tree_nodeIS2_EDpOT_
FNDA:0,_ZNSt8_Rb_treeIiSt4pairIKiiESt10_Select1stIS2_ESt4lessIiESaIS2_EE17_M_construct_nodeIJRKS2_EEEvPSt13_Rb_tree_nodeIS2_EDpOT_
FN:590,_ZNSt8_Rb_treeIiSt4pairIKiiESt10_Select1stIS2_ESt4lessIiESaIS2_EE17_M_construct_nodeIJS0_IiiEEEEvPSt13_Rb_tree_nodeIS2_EDpOT_
FNDA:0,_ZNSt8_Rb_treeIiSt4pairIKiiESt10_Select1stIS2_ESt4lessIiESaIS2_EE17_M_construct_nodeIJS0_IiiEEEEvPSt13_Rb_tree_nodeIS2_EDpOT_
FN:609,_ZNSt8_Rb_treeIiSt4pairIKiiESt10_Select1stIS2_ESt4lessIiESaIS2_EE14_M_create_nodeIJRKS2_EEEPSt13_Rb_tree_nodeIS2_EDpOT_
FNDA:0,_ZNSt8_Rb_treeIiSt4pairIKiiESt10_Select1stIS2_ESt4lessIiESaIS2_EE14_M_create_nodeIJRKS2_EEEPSt13_Rb_tree_nodeIS2_EDpOT_
FN:609,_ZNSt8_Rb_treeIiSt4pairIKiiESt10_Select1stIS2_ESt4lessIiESaIS2_EE14_M_create_nodeIJS0_IiiEEEEPSt13_Rb_tree_nodeIS2_EDpOT_
FNDA:0,_ZNSt8_Rb_treeIiSt4pairIKiiESt10_Select1stIS2_ESt4lessIiESaIS2_EE14_M_create_nodeIJS0_IiiEEEEPSt13_Rb_tree_nodeIS2_EDpOT_
FN:618,_ZNSt8_Rb_treeIiSt4pairIKiiESt10_Select1stIS2_ESt4lessIiESaIS2_EE15_M_destroy_nodeEPSt13_Rb_tree_nodeIS2_E
FNDA:0,_ZNSt8_Rb_treeIiSt4pairIKiiESt10_Select1stIS2_ESt4lessIiESaIS2_EE15_M_destroy_nodeEPSt13_Rb_tree_nodeIS2_E
FN:629,_ZNSt8_Rb_treeIiSt4pairIKiiESt10_Select1stIS2_ESt4lessIiESaIS2_EE12_M_drop_nodeEPSt13_Rb_tree_nodeIS2_E
FNDA:0,_ZNSt8_Rb_treeIiSt4pairIKiiESt10_Select1stIS2_ESt4lessIiESaIS2_EE12_M_drop_nodeEPSt13_Rb_tree_nodeIS2_E
FN:637,_ZNSt8_Rb_treeIiSt4pairIKiiESt10_Select1stIS2_ESt4lessIiESaIS2_EE13_M_clone_nodeILb0ENS8_11_Alloc_nodeEEEPSt13_Rb_tree_nodeIS2_ESD_RT0_
FNDA:0,_ZNSt8_Rb_treeIiSt4pairIKiiESt10_Select1stIS2_ESt4lessIiESaIS2_EE13_M_clone_nodeILb0ENS8_11_Alloc_nodeEEEPSt13_Rb_tree_nodeIS2_ESD_RT0_
FN:667,_ZNSt8_Rb_treeIiSt4pairIKiiESt10_Select1stIS2_ESt4lessIiESaIS2_EE13_Rb_tree_implIS6_Lb1EEC2Ev
FNDA:0,_ZNSt8_Rb_treeIiSt4pairIKiiESt10_Select1stIS2_ESt4lessIiESaIS2_EE13_Rb_tree_implIS6_Lb1EEC2Ev
FN:674,_ZNSt8_Rb_treeIiSt4pairIKiiESt10_Select1stIS2_ESt4lessIiESaIS2_EE13_Rb_tree_implIS6_Lb1EEC2ERKSA_
FNDA:0,_ZNSt8_Rb_treeIiSt4pairIKiiESt10_Select1stIS2_ESt4lessIiESaIS2_EE13_Rb_tree_implIS6_Lb1EEC2ERKSA_
FN:710,_ZNSt8_Rb_treeIiSt4pairIKiiESt10_Select1stIS2_ESt4lessIiESaIS2_EE7_M_rootEv
FNDA:0,_ZNSt8_Rb_treeIiSt4pairIKiiESt10_Select1stIS2_ESt4lessIiESaIS2_EE7_M_rootEv
FN:714,_ZNKSt8_Rb_treeIiSt4pairIKiiESt10_Select1stIS2_ESt4lessIiESaIS2_EE7_M_rootEv
FNDA:0,_ZNKSt8_Rb_treeIiSt4pairIKiiESt10_Select1stIS2_ESt4lessIiESaIS2_EE7_M_rootEv
FN:718,_ZNSt8_Rb_treeIiSt4pairIKiiESt10_Select1stIS2_ESt4lessIiESaIS2_EE11_M_leftmostEv
FNDA:0,_ZNSt8_Rb_treeIiSt4pairIKiiESt10_Select1stIS2_ESt4lessIiESaIS2_EE11_M_leftmostEv
FN:726,_ZNSt8_Rb_treeIiSt4pairIKiiESt10_Select1stIS2_ESt4lessIiESaIS2_EE12_M_rightmostEv
FNDA:0,_ZNSt8_Rb_treeIiSt4pairIKiiESt10_Select1stIS2_ESt4lessIiESaIS2_EE12_M_rightmostEv
FN:734,_ZNKSt8_Rb_treeIiSt4pairIKiiESt10_Select1stIS2_ESt4lessIiESaIS2_EE9_M_mbeginEv
FNDA:0,_ZNKSt8_Rb_treeIiSt4pairIKiiESt10_Select1stIS2_ESt4lessIiESaIS2_EE9_M_mbeginEv
FN:738,_ZNSt8_Rb_treeIiSt4pairIKiiESt10_Select1stIS2_ESt4lessIiESaIS2_EE8_M_beginEv
FNDA:0,_ZNSt8_Rb_treeIiSt4pairIKiiESt10_Select1stIS2_ESt4lessIiESaIS2_EE8_M_beginEv
FN:749,_ZNSt8_Rb_treeIiSt4pairIKiiESt10_Select1stIS2_ESt4lessIiESaIS2_EE6_M_endEv
FNDA:0,_ZNSt8_Rb_treeIiSt4pairIKiiESt10_Select1stIS2_ESt4lessIiESaIS2_EE6_M_endEv
FN:757,_ZNSt8_Rb_treeIiSt4pairIKiiESt10_Select1stIS2_ESt4lessIiESaIS2_EE6_S_keyEPKSt13_Rb_tree_nodeIS2_E
FNDA:0,_ZNSt8_Rb_treeIiSt4pairIKiiESt10_Select1stIS2_ESt4lessIiESaIS2_EE6_S_keyEPKSt13_Rb_tree_nodeIS2_E
FN:779,_ZNSt8_Rb_treeIiSt4pairIKiiESt10_Select1stIS2_ESt4lessIiESaIS2_EE7_S_leftEPSt18_Rb_tree_node_base
FNDA:0,_ZNSt8_Rb_treeIiSt4pairIKiiESt10_Select1stIS2_ESt4lessIiESaIS2_EE7_S_leftEPSt18_Rb_tree_node_base
FN:787,_ZNSt8_Rb_treeIiSt4pairIKiiESt10_Select1stIS2_ESt4lessIiESaIS2_EE8_S_rightEPSt18_Rb_tree_node_base
FNDA:0,_ZNSt8_Rb_treeIiSt4pairIKiiESt10_Select1stIS2_ESt4lessIiESaIS2_EE8_S_rightEPSt18_Rb_tree_node_base
FN:795,_ZNSt8_Rb_treeIiSt4pairIKiiESt10_Select1stIS2_ESt4lessIiESaIS2_EE6_S_keyEPKSt18_Rb_tree_node_base
FNDA:0,_ZNSt8_Rb_treeIiSt4pairIKiiESt10_Select1stIS2_ESt4lessIiESaIS2_EE6_S_keyEPKSt18_Rb_tree_node_base
FN:799,_ZNSt8_Rb_treeIiSt4pairIKiiESt10_Select1stIS2_ESt4lessIiESaIS2_EE10_S_minimumEPSt18_Rb_tree_node_base
FNDA:0,_ZNSt8_Rb_treeIiSt4pairIKiiESt10_Select1stIS2_ESt4lessIiESaIS2_EE10_S_minimumEPSt18_Rb_tree_node_base
FN:807,_ZNSt8_Rb_treeIiSt4pairIKiiESt10_Select1stIS2_ESt4lessIiESaIS2_EE10_S_maximumEPSt18_Rb_tree_node_base
FNDA:0,_ZNSt8_Rb_treeIiSt4pairIKiiESt10_Select1stIS2_ESt4lessIiESaIS2_EE10_S_maximumEPSt18_Rb_tree_node_base
FN:887,_ZNSt8_Rb_treeIiSt4pairIKiiESt10_Select1stIS2_ESt4lessIiESaIS2_EE7_M_copyILb0ENS8_11_Alloc_nodeEEEPSt13_Rb_tree_nodeIS2_ERKS8_RT0_
FNDA:0,_ZNSt8_Rb_treeIiSt4pairIKiiESt10_Select1stIS2_ESt4lessIiESaIS2_EE7_M_copyILb0ENS8_11_Alloc_nodeEEEPSt13_Rb_tree_nodeIS2_ERKS8_RT0_
FN:898,_ZNSt8_Rb_treeIiSt4pairIKiiESt10_Select1stIS2_ESt4lessIiESaIS2_EE7_M_copyERKS8_
FNDA:0,_ZNSt8_Rb_treeIiSt4pairIKiiESt10_Select1stIS2_ESt4lessIiESaIS2_EE7_M_copyERKS8_
FN:928,_ZNSt8_Rb_treeIiSt4pairIKiiESt10_Select1stIS2_ESt4lessIiESaIS2_EEC2Ev
FNDA:0,_ZNSt8_Rb_treeIiSt4pairIKiiESt10_Select1stIS2_ESt4lessIiESaIS2_EEC2Ev
FN:935,_ZNSt8_Rb_treeIiSt4pairIKiiESt10_Select1stIS2_ESt4lessIiESaIS2_EEC2ERKS8_
FNDA:0,_ZNSt8_Rb_treeIiSt4pairIKiiESt10_Select1stIS2_ESt4lessIiESaIS2_EEC2ERKS8_
FN:983,_ZNSt8_Rb_treeIiSt4pairIKiiESt10_Select1stIS2_ESt4lessIiESaIS2_EED2Ev
FNDA:0,_ZNSt8_Rb_treeIiSt4pairIKiiESt10_Select1stIS2_ESt4lessIiESaIS2_EED2Ev
FN:995,_ZNSt8_Rb_treeIiSt4pairIKiiESt10_Select1stIS2_ESt4lessIiESaIS2_EE5beginEv
FNDA:0,_ZNSt8_Rb_treeIiSt4pairIKiiESt10_Select1stIS2_ESt4lessIiESaIS2_EE5beginEv
FN:1252,_ZNSt8_Rb_treeIiSt4pairIKiiESt10_Select1stIS2_ESt4lessIiESaIS2_EE5clearEv
FNDA:0,_ZNSt8_Rb_treeIiSt4pairIKiiESt10_Select1stIS2_ESt4lessIiESaIS2_EE5clearEv
FN:1845,_ZNSt8_Rb_treeIiSt4pairIKiiESt10_Select1stIS2_ESt4lessIiESaIS2_EE7_M_copyILb0ENS8_11_Alloc_nodeEEEPSt13_Rb_tree_nodeIS2_ESD_PSt18_Rb_tree_node_baseRT0_
FNDA:0,_ZNSt8_Rb_treeIiSt4pairIKiiESt10_Select1stIS2_ESt4lessIiESaIS2_EE7_M_copyILb0ENS8_11_Alloc_nodeEEEPSt13_Rb_tree_nodeIS2_ESD_PSt18_Rb_tree_node_baseRT0_
FN:1883,_ZNSt8_Rb_treeIiSt4pairIKiiESt10_Select1stIS2_ESt4lessIiESaIS2_EE8_M_eraseEPSt13_Rb_tree_nodeIS2_E
FNDA:0,_ZNSt8_Rb_treeIiSt4pairIKiiESt10_Select1stIS2_ESt4lessIiESaIS2_EE8_M_eraseEPSt13_Rb_tree_nodeIS2_E
FN:2061,_ZNSt8_Rb_treeIiSt4pairIKiiESt10_Select1stIS2_ESt4lessIiESaIS2_EE24_M_get_insert_unique_posERS1_
FNDA:0,_ZNSt8_Rb_treeIiSt4pairIKiiESt10_Select1stIS2_ESt4lessIiESaIS2_EE24_M_get_insert_unique_posERS1_
FN:2330,_ZNSt8_Rb_treeIiSt4pairIKiiESt10_Select1stIS2_ESt4lessIiESaIS2_EE14_M_insert_nodeEPSt18_Rb_tree_node_baseSA_PSt13_Rb_tree_nodeIS2_E
FNDA:0,_ZNSt8_Rb_treeIiSt4pairIKiiESt10_Select1stIS2_ESt4lessIiESaIS2_EE14_M_insert_nodeEPSt18_Rb_tree_node_baseSA_PSt13_Rb_tree_nodeIS2_E
FN:2381,_ZNSt8_Rb_treeIiSt4pairIKiiESt10_Select1stIS2_ESt4lessIiESaIS2_EE17_M_emplace_uniqueIJS0_IiiEEEES0_ISt17_Rb_tree_iteratorIS2_EbEDpOT_
FNDA:0,_ZNSt8_Rb_treeIiSt4pairIKiiESt10_Select1stIS2_ESt4lessIiESaIS2_EE17_M_emplace_uniqueIJS0_IiiEEEES0_ISt17_Rb_tree_iteratorIS2_EbEDpOT_
DA:112,0
DA:114,0
DA:115,0
DA:126,0
DA:128,0
DA:129,0
DA:146,0
DA:150,0
DA:152,0
DA:154,0
DA:173,0
DA:174,0
DA:175,0
DA:176,0
DA:177,0
DA:206,0
DA:208,0
DA:209,0
DA:210,0
DA:211,0
DA:212,0
DA:234,0
DA:235,0
DA:238,0
DA:239,0
DA:273,0
DA:274,0
DA:300,0
DA:302,0
DA:303,0
DA:315,0
DA:316,0
DA:523,0
DA:524,0
DA:528,0
DA:529,0
DA:547,0
DA:548,0
DA:560,0
DA:561,0
DA:564,0
DA:565,0
DA:590,0
DA:594,0
DA:595,0
DA:605,0
DA:590,0
DA:594,0
DA:595,0
DA:599,0
DA:601,0
DA:602,0
DA:603,0
DA:605,0
DA:609,0
DA:611,0
DA:612,0
DA:613,0
DA:609,0
DA:611,0
DA:612,0
DA:613,0
DA:618,0
DA:623,0
DA:624,0
DA:626,0
DA:629,0
DA:631,0
DA:632,0
DA:633,0
DA:637,0
DA:645,0
DA:646,0
DA:647,0
DA:648,0
DA:649,0
DA:667,0
DA:671,0
DA:672,0
DA:674,0
DA:676,0
DA:677,0
DA:678,0
DA:710,0
DA:711,0
DA:714,0
DA:715,0
DA:718,0
DA:719,0
DA:726,0
DA:727,0
DA:734,0
DA:735,0
DA:738,0
DA:739,0
DA:749,0
DA:750,0
DA:757,0
DA:775,0
DA:779,0
DA:780,0
DA:787,0
DA:788,0
DA:795,0
DA:796,0
DA:799,0
DA:800,0
DA:807,0
DA:808,0
DA:887,0
DA:890,0
DA:891,0
DA:892,0
DA:893,0
DA:894,0
DA:898,0
DA:900,0
DA:901,0
DA:928,0
DA:935,0
DA:936,0
DA:938,0
DA:939,0
DA:940,0
DA:983,0
DA:984,0
DA:995,0
DA:996,0
DA:1252,0
DA:1254,0
DA:1255,0
DA:1256,0
DA:1845,0
DA:1849,0
DA:1850,0
DA:1854,0
DA:1855,0
DA:1856,0
DA:1857,0
DA:1858,0
DA:1860,0
DA:1862,0
DA:1863,0
DA:1864,0
DA:1865,0
DA:1866,0
DA:1868,0
DA:1869,0
DA:1872,0
DA:1874,0
DA:1875,0
DA:1877,0
DA:1883,0
DA:1887,0
DA:1889,0
DA:1890,0
DA:1891,0
DA:1892,0
DA:1894,0
DA:2061,0
DA:2065,0
DA:2066,0
DA:2067,0
DA:2068,0
DA:2070,0
DA:2071,0
DA:2072,0
DA:2074,0
DA:2075,0
DA:2077,0
DA:2078,0
DA:2080,0
DA:2082,0
DA:2083,0
DA:2084,0
DA:2330,0
DA:2333,0
DA:2334,0
DA:2337,0
DA:2338,0
DA:2339,0
DA:2340,0
DA:2381,0
DA:2384,0
DA:2389,0
DA:2390,0
DA:2391,0
DA:2393,0
DA:2394,0
DA:2396,0
DA:2398,0
DA:2399,0
end_of_record
SF:/usr/include/c++/11/bits/stl_map.h
FN:185,_ZNSt3mapIiiSt4lessIiESaISt4pairIKiiEEEC2Ev
FNDA:0,_ZNSt3mapIiiSt4lessIiESaISt4pairIKiiEEEC2Ev
FN:207,_ZNSt3mapIiiSt4lessIiESaISt4pairIKiiEEEC2ERKS6_
FNDA:0,_ZNSt3mapIiiSt4lessIiESaISt4pairIKiiEEEC2ERKS6_
FN:302,_ZNSt3mapIiiSt4lessIiESaISt4pairIKiiEEED2Ev
FNDA:0,_ZNSt3mapIiiSt4lessIiESaISt4pairIKiiEEED2Ev
FN:816,_ZNSt3mapIiiSt4lessIiESaISt4pairIKiiEEE6insertIS2_IiiEEENSt9enable_ifIXsrSt16is_constructibleIS4_JT_EE5valueES2_ISt17_Rb_tree_iteratorIS4_EbEE4typeEOSB_
FNDA:0,_ZNSt3mapIiiSt4lessIiESaISt4pairIKiiEEE6insertIS2_IiiEEENSt9enable_ifIXsrSt16is_constructibleIS4_JT_EE5valueES2_ISt17_Rb_tree_iteratorIS4_EbEE4typeEOSB_
FN:1133,_ZNSt3mapIiiSt4lessIiESaISt4pairIKiiEEE5clearEv
FNDA:0,_ZNSt3mapIiiSt4lessIiESaISt4pairIKiiEEE5clearEv
DA:185,0
DA:207,0
DA:302,0
DA:816,0
DA:817,0
DA:1133,0
DA:1134,0
end_of_record
SF:/usr/include/c++/11/bits/stl_vector.h
FN:97,_ZNSt12_Vector_baseINSt7__cxx1112basic_stringIcSt11char_traitsIcESaIcEEESaIS5_EE17_Vector_impl_dataC2Ev
FNDA:23,_ZNSt12_Vector_baseINSt7__cxx1112basic_stringIcSt11char_traitsIcESaIcEEESaIS5_EE17_Vector_impl_dataC2Ev
FN:131,_ZNSt12_Vector_baseINSt7__cxx1112basic_stringIcSt11char_traitsIcESaIcEEESaIS5_EE12_Vector_implC2Ev
FNDA:14,_ZNSt12_Vector_baseINSt7__cxx1112basic_stringIcSt11char_traitsIcESaIcEEESaIS5_EE12_Vector_implC2Ev
FN:276,_ZNSt12_Vector_baseINSt7__cxx1112basic_stringIcSt11char_traitsIcESaIcEEESaIS5_EE19_M_get_Tp_allocatorEv
FNDA:46,_ZNSt12_Vector_baseINSt7__cxx1112basic_stringIcSt11char_traitsIcESaIcEEESaIS5_EE19_M_get_Tp_allocatorEv
FN:280,_ZNKSt12_Vector_baseINSt7__cxx1112basic_stringIcSt11char_traitsIcESaIcEEESaIS5_EE19_M_get_Tp_allocatorEv
FNDA:20,_ZNKSt12_Vector_baseINSt7__cxx1112basic_stringIcSt11char_traitsIcESaIcEEESaIS5_EE19_M_get_Tp_allocatorEv
FN:288,_ZNSt12_Vector_baseINSt7__cxx1112basic_stringIcSt11char_traitsIcESaIcEEESaIS5_EEC2Ev
FNDA:14,_ZNSt12_Vector_baseINSt7__cxx1112basic_stringIcSt11char_traitsIcESaIcEEESaIS5_EEC2Ev
FN:333,_ZNSt12_Vector_baseINSt7__cxx1112basic_stringIcSt11char_traitsIcESaIcEEESaIS5_EED2Ev
FNDA:17,_ZNSt12_Vector_baseINSt7__cxx1112basic_stringIcSt11char_traitsIcESaIcEEESaIS5_EED2Ev
FN:343,_ZNSt12_Vector_baseINSt7__cxx1112basic_stringIcSt11char_traitsIcESaIcEEESaIS5_EE11_M_allocateEm
FNDA:12,_ZNSt12_Vector_baseINSt7__cxx1112basic_stringIcSt11char_traitsIcESaIcEEESaIS5_EE11_M_allocateEm
FN:350,_ZNSt12_Vector_baseINSt7__cxx1112basic_stringIcSt11char_traitsIcESaIcEEESaIS5_EE13_M_deallocateEPS5_m
FNDA:27,_ZNSt12_Vector_baseINSt7__cxx1112basic_stringIcSt11char_traitsIcESaIcEEESaIS5_EE13_M_deallocateEPS5_m
FN:453,_ZNSt6vectorINSt7__cxx1112basic_stringIcSt11char_traitsIcESaIcEEESaIS5_EE14_S_do_relocateEPS5_S8_S8_RS6_St17integral_constantIbLb1EE
FNDA:17,_ZNSt6vectorINSt7__cxx1112basic_stringIcSt11char_traitsIcESaIcEEESaIS5_EE14_S_do_relocateEPS5_S8_S8_RS6_St17integral_constantIbLb1EE
FN:465,_ZNSt6vectorINSt7__cxx1112basic_stringIcSt11char_traitsIcESaIcEEESaIS5_EE11_S_relocateEPS5_S8_S8_RS6_
FNDA:17,_ZNSt6vectorINSt7__cxx1112basic_stringIcSt11char_traitsIcESaIcEEESaIS5_EE11_S_relocateEPS5_S8_S8_RS6_
FN:487,_ZNSt6vectorINSt7__cxx1112basic_stringIcSt11char_traitsIcESaIcEEESaIS5_EEC2Ev
FNDA:14,_ZNSt6vectorINSt7__cxx1112basic_stringIcSt11char_traitsIcESaIcEEESaIS5_EEC2Ev
FN:678,_ZNSt6vectorINSt7__cxx1112basic_stringIcSt11char_traitsIcESaIcEEESaIS5_EED2Ev
FNDA:17,_ZNSt6vectorINSt7__cxx1112basic_stringIcSt11char_traitsIcESaIcEEESaIS5_EED2Ev
FN:811,_ZNSt6vectorINSt7__cxx1112basic_stringIcSt11char_traitsIcESaIcEEESaIS5_EE5beginEv
FNDA:20,_ZNSt6vectorINSt7__cxx1112basic_stringIcSt11char_traitsIcESaIcEEESaIS5_EE5beginEv
FN:829,_ZNSt6vectorINSt7__cxx1112basic_stringIcSt11char_traitsIcESaIcEEESaIS5_EE3endEv
FNDA:20,_ZNSt6vectorINSt7__cxx1112basic_stringIcSt11char_traitsIcESaIcEEESaIS5_EE3endEv
FN:918,_ZNKSt6vectorINSt7__cxx1112basic_stringIcSt11char_traitsIcESaIcEEESaIS5_EE4sizeEv
FNDA:36,_ZNKSt6vectorINSt7__cxx1112basic_stringIcSt11char_traitsIcESaIcEEESaIS5_EE4sizeEv
FN:923,_ZNKSt6vectorINSt7__cxx1112basic_stringIcSt11char_traitsIcESaIcEEESaIS5_EE8max_sizeEv
FNDA:17,_ZNKSt6vectorINSt7__cxx1112basic_stringIcSt11char_traitsIcESaIcEEESaIS5_EE8max_sizeEv
FN:1143,_ZNSt6vectorINSt7__cxx1112basic_stringIcSt11char_traitsIcESaIcEEESaIS5_EE4backEv
FNDA:7,_ZNSt6vectorINSt7__cxx1112basic_stringIcSt11char_traitsIcESaIcEEESaIS5_EE4backEv
FN:1203,_ZNSt6vectorINSt7__cxx1112basic_stringIcSt11char_traitsIcESaIcEEESaIS5_EE9push_backEOS5_
FNDA:7,_ZNSt6vectorINSt7__cxx1112basic_stringIcSt11char_traitsIcESaIcEEESaIS5_EE9push_backEOS5_
FN:1756,_ZNKSt6vectorINSt7__cxx1112basic_stringIcSt11char_traitsIcESaIcEEESaIS5_EE12_M_check_lenEmPKc
FNDA:7,_ZNKSt6vectorINSt7__cxx1112basic_stringIcSt11char_traitsIcESaIcEEESaIS5_EE12_M_check_lenEmPKc
FN:1776,_ZNSt6vectorINSt7__cxx1112basic_stringIcSt11char_traitsIcESaIcEEESaIS5_EE11_S_max_sizeERKS6_
FNDA:17,_ZNSt6vectorINSt7__cxx1112basic_stringIcSt11char_traitsIcESaIcEEESaIS5_EE11_S_max_sizeERKS6_
DA:97,23
DA:98,23
DA:99,23
DA:131,14
DA:133,14
DA:134,14
DA:276,46
DA:277,46
DA:280,20
DA:281,20
DA:288,14
DA:333,17
DA:335,17
DA:336,17
DA:337,17
DA:343,12
DA:346,12
DA:350,27
DA:353,27
DA:354,11
DA:355,27
DA:453,17
DA:456,17
DA:465,17
DA:469,17
DA:487,14
DA:678,17
DA:680,17
DA:681,17
DA:683,17
DA:811,20
DA:812,20
DA:829,20
DA:830,20
DA:918,36
DA:919,36
DA:923,17
DA:924,17
DA:1143,7
DA:1146,7
DA:1203,7
DA:1204,7
DA:1756,7
DA:1758,7
DA:1759,0
DA:1761,7
DA:1762,7
DA:1776,17
DA:1781,17
DA:1783,17
DA:1784,17
end_of_record
SF:/usr/include/c++/11/new
FN:174,_ZnwmPv
FNDA:0,_ZnwmPv
FN:180,_ZdlPvS_
FNDA:0,_ZdlPvS_
DA:174,0
DA:175,0
DA:180,0
end_of_record
SF:/usr/include/c++/11/bits/allocated_ptr.h
FN:53,_ZNSt15__allocated_ptrISaISt23_Sp_counted_ptr_inplaceI4wfmoSaIS1_ELN9__gnu_cxx12_Lock_policyE2EEEEC2ERS6_PS5_
FNDA:0,_ZNSt15__allocated_ptrISaISt23_Sp_counted_ptr_inplaceI4wfmoSaIS1_ELN9__gnu_cxx12_Lock_policyE2EEEEC2ERS6_PS5_
FN:53,_ZNSt15__allocated_ptrISaISt23_Sp_counted_ptr_inplaceI14waitable_timerSaIS1_ELN9__gnu_cxx12_Lock_policyE2EEEEC2ERS6_PS5_
FNDA:0,_ZNSt15__allocated_ptrISaISt23_Sp_counted_ptr_inplaceI14waitable_timerSaIS1_ELN9__gnu_cxx12_Lock_policyE2EEEEC2ERS6_PS5_
FN:53,_ZNSt15__allocated_ptrISaISt23_Sp_counted_ptr_inplaceI21waitableMessageSourceSaIS1_ELN9__gnu_cxx12_Lock_policyE2EEEEC2ERS6_PS5_
FNDA:0,_ZNSt15__allocated_ptrISaISt23_Sp_counted_ptr_inplaceI21waitableMessageSourceSaIS1_ELN9__gnu_cxx12_Lock_policyE2EEEEC2ERS6_PS5_
FN:53,_ZNSt15__allocated_ptrISaISt23_Sp_counted_ptr_inplaceI14postable_timerSaIS1_ELN9__gnu_cxx12_Lock_policyE2EEEEC2ERS6_PS5_
FNDA:0,_ZNSt15__allocated_ptrISaISt23_Sp_counted_ptr_inplaceI14postable_timerSaIS1_ELN9__gnu_cxx12_Lock_policyE2EEEEC2ERS6_PS5_
FN:71,_ZNSt15__allocated_ptrISaISt23_Sp_counted_ptr_inplaceI4wfmoSaIS1_ELN9__gnu_cxx12_Lock_policyE2EEEED2Ev
FNDA:0,_ZNSt15__allocated_ptrISaISt23_Sp_counted_ptr_inplaceI4wfmoSaIS1_ELN9__gnu_cxx12_Lock_policyE2EEEED2Ev
FN:71,_ZNSt15__allocated_ptrISaISt23_Sp_counted_ptr_inplaceI21waitableMessageSourceSaIS1_ELN9__gnu_cxx12_Lock_policyE2EEEED2Ev
FNDA:0,_ZNSt15__allocated_ptrISaISt23_Sp_counted_ptr_inplaceI21waitableMessageSourceSaIS1_ELN9__gnu_cxx12_Lock_policyE2EEEED2Ev
FN:71,_ZNSt15__allocated_ptrISaISt23_Sp_counted_ptr_inplaceI14waitable_timerSaIS1_ELN9__gnu_cxx12_Lock_policyE2EEEED2Ev
FNDA:0,_ZNSt15__allocated_ptrISaISt23_Sp_counted_ptr_inplaceI14waitable_timerSaIS1_ELN9__gnu_cxx12_Lock_policyE2EEEED2Ev
FN:71,_ZNSt15__allocated_ptrISaISt23_Sp_counted_ptr_inplaceI14postable_timerSaIS1_ELN9__gnu_cxx12_Lock_policyE2EEEED2Ev
FNDA:0,_ZNSt15__allocated_ptrISaISt23_Sp_counted_ptr_inplaceI14postable_timerSaIS1_ELN9__gnu_cxx12_Lock_policyE2EEEED2Ev
FN:79,_ZNSt15__allocated_ptrISaISt23_Sp_counted_ptr_inplaceI4wfmoSaIS1_ELN9__gnu_cxx12_Lock_policyE2EEEEaSEDn
FNDA:0,_ZNSt15__allocated_ptrISaISt23_Sp_counted_ptr_inplaceI4wfmoSaIS1_ELN9__gnu_cxx12_Lock_policyE2EEEEaSEDn
FN:79,_ZNSt15__allocated_ptrISaISt23_Sp_counted_ptr_inplaceI14waitable_timerSaIS1_ELN9__gnu_cxx12_Lock_policyE2EEEEaSEDn
FNDA:0,_ZNSt15__allocated_ptrISaISt23_Sp_counted_ptr_inplaceI14waitable_timerSaIS1_ELN9__gnu_cxx12_Lock_policyE2EEEEaSEDn
FN:79,_ZNSt15__allocated_ptrISaISt23_Sp_counted_ptr_inplaceI21waitableMessageSourceSaIS1_ELN9__gnu_cxx12_Lock_policyE2EEEEaSEDn
FNDA:0,_ZNSt15__allocated_ptrISaISt23_Sp_counted_ptr_inplaceI21waitableMessageSourceSaIS1_ELN9__gnu_cxx12_Lock_policyE2EEEEaSEDn
FN:79,_ZNSt15__allocated_ptrISaISt23_Sp_counted_ptr_inplaceI14postable_timerSaIS1_ELN9__gnu_cxx12_Lock_policyE2EEEEaSEDn
FNDA:0,_ZNSt15__allocated_ptrISaISt23_Sp_counted_ptr_inplaceI14postable_timerSaIS1_ELN9__gnu_cxx12_Lock_policyE2EEEEaSEDn
FN:86,_ZNSt15__allocated_ptrISaISt23_Sp_counted_ptr_inplaceI4wfmoSaIS1_ELN9__gnu_cxx12_Lock_policyE2EEEE3getEv
FNDA:0,_ZNSt15__allocated_ptrISaISt23_Sp_counted_ptr_inplaceI4wfmoSaIS1_ELN9__gnu_cxx12_Lock_policyE2EEEE3getEv
FN:86,_ZNSt15__allocated_ptrISaISt23_Sp_counted_ptr_inplaceI14waitable_timerSaIS1_ELN9__gnu_cxx12_Lock_policyE2EEEE3getEv
FNDA:0,_ZNSt15__allocated_ptrISaISt23_Sp_counted_ptr_inplaceI14waitable_timerSaIS1_ELN9__gnu_cxx12_Lock_policyE2EEEE3getEv
FN:86,_ZNSt15__allocated_ptrISaISt23_Sp_counted_ptr_inplaceI14postable_timerSaIS1_ELN9__gnu_cxx12_Lock_policyE2EEEE3getEv
FNDA:0,_ZNSt15__allocated_ptrISaISt23_Sp_counted_ptr_inplaceI14postable_timerSaIS1_ELN9__gnu_cxx12_Lock_policyE2EEEE3getEv
FN:86,_ZNSt15__allocated_ptrISaISt23_Sp_counted_ptr_inplaceI21waitableMessageSourceSaIS1_ELN9__gnu_cxx12_Lock_policyE2EEEE3getEv
FNDA:0,_ZNSt15__allocated_ptrISaISt23_Sp_counted_ptr_inplaceI21waitableMessageSourceSaIS1_ELN9__gnu_cxx12_Lock_policyE2EEEE3getEv
FN:96,_ZSt18__allocate_guardedISaISt23_Sp_counted_ptr_inplaceI14postable_timerSaIS1_ELN9__gnu_cxx12_Lock_policyE2EEEESt15__allocated_ptrIT_ERS8_
FNDA:0,_ZSt18__allocate_guardedISaISt23_Sp_counted_ptr_inplaceI14postable_timerSaIS1_ELN9__gnu_cxx12_Lock_policyE2EEEESt15__allocated_ptrIT_ERS8_
FN:96,_ZSt18__allocate_guardedISaISt23_Sp_counted_ptr_inplaceI4wfmoSaIS1_ELN9__gnu_cxx12_Lock_policyE2EEEESt15__allocated_ptrIT_ERS8_
FNDA:0,_ZSt18__allocate_guardedISaISt23_Sp_counted_ptr_inplaceI4wfmoSaIS1_ELN9__gnu_cxx12_Lock_policyE2EEEESt15__allocated_ptrIT_ERS8_
FN:96,_ZSt18__allocate_guardedISaISt23_Sp_counted_ptr_inplaceI14waitable_timerSaIS1_ELN9__gnu_cxx12_Lock_policyE2EEEESt15__allocated_ptrIT_ERS8_
FNDA:0,_ZSt18__allocate_guardedISaISt23_Sp_counted_ptr_inplaceI14waitable_timerSaIS1_ELN9__gnu_cxx12_Lock_policyE2EEEESt15__allocated_ptrIT_ERS8_
FN:96,_ZSt18__allocate_guardedISaISt23_Sp_counted_ptr_inplaceI21waitableMessageSourceSaIS1_ELN9__gnu_cxx12_Lock_policyE2EEEESt15__allocated_ptrIT_ERS8_
FNDA:0,_ZSt18__allocate_guardedISaISt23_Sp_counted_ptr_inplaceI21waitableMessageSourceSaIS1_ELN9__gnu_cxx12_Lock_policyE2EEEESt15__allocated_ptrIT_ERS8_
DA:53,0
DA:54,0
DA:55,0
DA:53,0
DA:54,0
DA:55,0
DA:53,0
DA:54,0
DA:55,0
DA:53,0
DA:54,0
DA:55,0
DA:71,0
DA:73,0
DA:74,0
DA:75,0
DA:71,0
DA:73,0
DA:74,0
DA:75,0
DA:71,0
DA:73,0
DA:74,0
DA:75,0
DA:71,0
DA:73,0
DA:74,0
DA:75,0
DA:79,0
DA:81,0
DA:82,0
DA:79,0
DA:81,0
DA:82,0
DA:79,0
DA:81,0
DA:82,0
DA:79,0
DA:81,0
DA:82,0
DA:86,0
DA:86,0
DA:86,0
DA:86,0
DA:96,0
DA:98,0
DA:96,0
DA:98,0
DA:96,0
DA:98,0
DA:96,0
DA:98,0
end_of_record
SF:/usr/include/c++/11/ext/atomicity.h
DA:52,0
DA:66,0
DA:71,0
DA:84,0
DA:85,0
DA:86,0
DA:92,0
DA:98,0
DA:99,0
DA:101,0
DA:108,0
DA:112,0
end_of_record
SF:/usr/include/c++/11/ext/new_allocator.h
FN:79,_ZN9__gnu_cxx13new_allocatorIcEC2Ev
FNDA:0,_ZN9__gnu_cxx13new_allocatorIcEC2Ev
FN:79,_ZN9__gnu_cxx13new_allocatorINSt7__cxx1112basic_stringIcSt11char_traitsIcESaIcEEEEC2Ev
FNDA:14,_ZN9__gnu_cxx13new_allocatorINSt7__cxx1112basic_stringIcSt11char_traitsIcESaIcEEEEC2Ev
FN:79,_ZN9__gnu_cxx13new_allocatorI21waitableMessageSourceEC2Ev
FNDA:0,_ZN9__gnu_cxx13new_allocatorI21waitableMessageSourceEC2Ev
FN:79,_ZN9__gnu_cxx13new_allocatorI14waitable_timerEC2Ev
FNDA:0,_ZN9__gnu_cxx13new_allocatorI14waitable_timerEC2Ev
FN:79,_ZN9__gnu_cxx13new_allocatorISt13_Rb_tree_nodeISt4pairIKiiEEEC2Ev
FNDA:0,_ZN9__gnu_cxx13new_allocatorISt13_Rb_tree_nodeISt4pairIKiiEEEC2Ev
FN:79,_ZN9__gnu_cxx13new_allocatorI4wfmoEC2Ev
FNDA:0,_ZN9__gnu_cxx13new_allocatorI4wfmoEC2Ev
FN:79,_ZN9__gnu_cxx13new_allocatorI14postable_timerEC2Ev
FNDA:0,_ZN9__gnu_cxx13new_allocatorI14postable_timerEC2Ev
FN:79,_ZN9__gnu_cxx13new_allocatorISt23_Sp_counted_ptr_inplaceI21waitableMessageSourceSaIS2_ELNS_12_Lock_policyE2EEEC2Ev
FNDA:0,_ZN9__gnu_cxx13new_allocatorISt23_Sp_counted_ptr_inplaceI21waitableMessageSourceSaIS2_ELNS_12_Lock_policyE2EEEC2Ev
FN:79,_ZN9__gnu_cxx13new_allocatorISt23_Sp_counted_ptr_inplaceI14waitable_timerSaIS2_ELNS_12_Lock_policyE2EEEC2Ev
FNDA:0,_ZN9__gnu_cxx13new_allocatorISt23_Sp_counted_ptr_inplaceI14waitable_timerSaIS2_ELNS_12_Lock_policyE2EEEC2Ev
FN:79,_ZN9__gnu_cxx13new_allocatorISt23_Sp_counted_ptr_inplaceI4wfmoSaIS2_ELNS_12_Lock_policyE2EEEC2Ev
FNDA:0,_ZN9__gnu_cxx13new_allocatorISt23_Sp_counted_ptr_inplaceI4wfmoSaIS2_ELNS_12_Lock_policyE2EEEC2Ev
FN:79,_ZN9__gnu_cxx13new_allocatorISt23_Sp_counted_ptr_inplaceI14postable_timerSaIS2_ELNS_12_Lock_policyE2EEEC2Ev
FNDA:0,_ZN9__gnu_cxx13new_allocatorISt23_Sp_counted_ptr_inplaceI14postable_timerSaIS2_ELNS_12_Lock_policyE2EEEC2Ev
FN:82,_ZN9__gnu_cxx13new_allocatorI21waitableMessageSourceEC2ERKS2_
FNDA:0,_ZN9__gnu_cxx13new_allocatorI21waitableMessageSourceEC2ERKS2_
FN:82,_ZN9__gnu_cxx13new_allocatorIcEC2ERKS1_
FNDA:0,_ZN9__gnu_cxx13new_allocatorIcEC2ERKS1_
FN:82,_ZN9__gnu_cxx13new_allocatorISt13_Rb_tree_nodeISt4pairIKiiEEEC2ERKS6_
FNDA:0,_ZN9__gnu_cxx13new_allocatorISt13_Rb_tree_nodeISt4pairIKiiEEEC2ERKS6_
FN:82,_ZN9__gnu_cxx13new_allocatorI14waitable_timerEC2ERKS2_
FNDA:0,_ZN9__gnu_cxx13new_allocatorI14waitable_timerEC2ERKS2_
FN:82,_ZN9__gnu_cxx13new_allocatorI4wfmoEC2ERKS2_
FNDA:0,_ZN9__gnu_cxx13new_allocatorI4wfmoEC2ERKS2_
FN:82,_ZN9__gnu_cxx13new_allocatorI14postable_timerEC2ERKS2_
FNDA:0,_ZN9__gnu_cxx13new_allocatorI14postable_timerEC2ERKS2_
FN:103,_ZN9__gnu_cxx13new_allocatorISt13_Rb_tree_nodeISt4pairIKiiEEE8allocateEmPKv
FNDA:0,_ZN9__gnu_cxx13new_allocatorISt13_Rb_tree_nodeISt4pairIKiiEEE8allocateEmPKv
FN:103,_ZN9__gnu_cxx13new_allocatorISt23_Sp_counted_ptr_inplaceI14postable_timerSaIS2_ELNS_12_Lock_policyE2EEE8allocateEmPKv
FNDA:0,_ZN9__gnu_cxx13new_allocatorISt23_Sp_counted_ptr_inplaceI14postable_timerSaIS2_ELNS_12_Lock_policyE2EEE8allocateEmPKv
FN:103,_ZN9__gnu_cxx13new_allocatorINSt7__cxx1112basic_stringIcSt11char_traitsIcESaIcEEEE8allocateEmPKv
FNDA:11,_ZN9__gnu_cxx13new_allocatorINSt7__cxx1112basic_stringIcSt11char_traitsIcESaIcEEEE8allocateEmPKv
FN:103,_ZN9__gnu_cxx13new_allocatorISt23_Sp_counted_ptr_inplaceI4wfmoSaIS2_ELNS_12_Lock_policyE2EEE8allocateEmPKv
FNDA:0,_ZN9__gnu_cxx13new_allocatorISt23_Sp_counted_ptr_inplaceI4wfmoSaIS2_ELNS_12_Lock_policyE2EEE8allocateEmPKv
FN:103,_ZN9__gnu_cxx13new_allocatorISt23_Sp_counted_ptr_inplaceI21waitableMessageSourceSaIS2_ELNS_12_Lock_policyE2EEE8allocateEmPKv
FNDA:0,_ZN9__gnu_cxx13new_allocatorISt23_Sp_counted_ptr_inplaceI21waitableMessageSourceSaIS2_ELNS_12_Lock_policyE2EEE8allocateEmPKv
FN:103,_ZN9__gnu_cxx13new_allocatorISt23_Sp_counted_ptr_inplaceI14waitable_timerSaIS2_ELNS_12_Lock_policyE2EEE8allocateEmPKv
FNDA:0,_ZN9__gnu_cxx13new_allocatorISt23_Sp_counted_ptr_inplaceI14waitable_timerSaIS2_ELNS_12_Lock_policyE2EEE8allocateEmPKv
FN:103,_ZN9__gnu_cxx13new_allocatorIcE8allocateEmPKv
FNDA:0,_ZN9__gnu_cxx13new_allocatorIcE8allocateEmPKv
FN:132,_ZN9__gnu_cxx13new_allocatorISt23_Sp_counted_ptr_inplaceI14postable_timerSaIS2_ELNS_12_Lock_policyE2EEE10deallocateEPS5_m
FNDA:0,_ZN9__gnu_cxx13new_allocatorISt23_Sp_counted_ptr_inplaceI14postable_timerSaIS2_ELNS_12_Lock_policyE2EEE10deallocateEPS5_m
FN:132,_ZN9__gnu_cxx13new_allocatorISt23_Sp_counted_ptr_inplaceI4wfmoSaIS2_ELNS_12_Lock_policyE2EEE10deallocateEPS5_m
FNDA:0,_ZN9__gnu_cxx13new_allocatorISt23_Sp_counted_ptr_inplaceI4wfmoSaIS2_ELNS_12_Lock_policyE2EEE10deallocateEPS5_m
FN:132,_ZN9__gnu_cxx13new_allocatorISt23_Sp_counted_ptr_inplaceI14waitable_timerSaIS2_ELNS_12_Lock_policyE2EEE10deallocateEPS5_m
FNDA:0,_ZN9__gnu_cxx13new_allocatorISt23_Sp_counted_ptr_inplaceI14waitable_timerSaIS2_ELNS_12_Lock_policyE2EEE10deallocateEPS5_m
FN:132,_ZN9__gnu_cxx13new_allocatorIcE10deallocateEPcm
FNDA:0,_ZN9__gnu_cxx13new_allocatorIcE10deallocateEPcm
FN:132,_ZN9__gnu_cxx13new_allocatorINSt7__cxx1112basic_stringIcSt11char_traitsIcESaIcEEEE10deallocateEPS6_m
FNDA:11,_ZN9__gnu_cxx13new_allocatorINSt7__cxx1112basic_stringIcSt11char_traitsIcESaIcEEEE10deallocateEPS6_m
FN:132,_ZN9__gnu_cxx13new_allocatorISt23_Sp_counted_ptr_inplaceI21waitableMessageSourceSaIS2_ELNS_12_Lock_policyE2EEE10deallocateEPS5_m
FNDA:0,_ZN9__gnu_cxx13new_allocatorISt23_Sp_counted_ptr_inplaceI21waitableMessageSourceSaIS2_ELNS_12_Lock_policyE2EEE10deallocateEPS5_m
FN:132,_ZN9__gnu_cxx13new_allocatorISt13_Rb_tree_nodeISt4pairIKiiEEE10deallocateEPS5_m
FNDA:0,_ZN9__gnu_cxx13new_allocatorISt13_Rb_tree_nodeISt4pairIKiiEEE10deallocateEPS5_m
FN:197,_ZNK9__gnu_cxx13new_allocatorIcE11_M_max_sizeEv
FNDA:0,_ZNK9__gnu_cxx13new_allocatorIcE11_M_max_sizeEv
FN:197,_ZNK9__gnu_cxx13new_allocatorISt23_Sp_counted_ptr_inplaceI14waitable_timerSaIS2_ELNS_12_Lock_policyE2EEE11_M_max_sizeEv
FNDA:0,_ZNK9__gnu_cxx13new_allocatorISt23_Sp_counted_ptr_inplaceI14waitable_timerSaIS2_ELNS_12_Lock_policyE2EEE11_M_max_sizeEv
FN:197,_ZNK9__gnu_cxx13new_allocatorISt23_Sp_counted_ptr_inplaceI4wfmoSaIS2_ELNS_12_Lock_policyE2EEE11_M_max_sizeEv
FNDA:0,_ZNK9__gnu_cxx13new_allocatorISt23_Sp_counted_ptr_inplaceI4wfmoSaIS2_ELNS_12_Lock_policyE2EEE11_M_max_sizeEv
FN:197,_ZNK9__gnu_cxx13new_allocatorISt23_Sp_counted_ptr_inplaceI21waitableMessageSourceSaIS2_ELNS_12_Lock_policyE2EEE11_M_max_sizeEv
FNDA:0,_ZNK9__gnu_cxx13new_allocatorISt23_Sp_counted_ptr_inplaceI21waitableMessageSourceSaIS2_ELNS_12_Lock_policyE2EEE11_M_max_sizeEv
FN:197,_ZNK9__gnu_cxx13new_allocatorINSt7__cxx1112basic_stringIcSt11char_traitsIcESaIcEEEE11_M_max_sizeEv
FNDA:11,_ZNK9__gnu_cxx13new_allocatorINSt7__cxx1112basic_stringIcSt11char_traitsIcESaIcEEEE11_M_max_sizeEv
FN:197,_ZNK9__gnu_cxx13new_allocatorISt23_Sp_counted_ptr_inplaceI14postable_timerSaIS2_ELNS_12_Lock_policyE2EEE11_M_max_sizeEv
FNDA:0,_ZNK9__gnu_cxx13new_allocatorISt23_Sp_counted_ptr_inplaceI14postable_timerSaIS2_ELNS_12_Lock_policyE2EEE11_M_max_sizeEv
FN:197,_ZNK9__gnu_cxx13new_allocatorISt13_Rb_tree_nodeISt4pairIKiiEEE11_M_max_sizeEv
FNDA:0,_ZNK9__gnu_cxx13new_allocatorISt13_Rb_tree_nodeISt4pairIKiiEEE11_M_max_sizeEv
DA:79,0
DA:79,0
DA:79,0
DA:79,0
DA:79,0
DA:79,0
DA:79,0
DA:79,0
DA:79,0
DA:79,14
DA:79,0
DA:82,0
DA:82,0
DA:82,0
DA:82,0
DA:82,0
DA:82,0
DA:103,0
DA:111,0
DA:115,0
DA:116,0
DA:117,0
DA:127,0
DA:103,0
DA:111,0
DA:115,0
DA:116,0
DA:117,0
DA:127,0
DA:103,0
DA:111,0
DA:115,0
DA:116,0
DA:117,0
DA:127,0
DA:103,0
DA:111,0
DA:115,0
DA:116,0
DA:117,0
DA:127,0
DA:103,0
DA:111,0
DA:115,0
DA:116,0
DA:117,0
DA:127,0
DA:103,11
DA:111,11
DA:115,0
DA:116,0
DA:117,0
DA:127,11
DA:103,0
DA:111,0
DA:117,0
DA:127,0
DA:132,0
DA:145,0
DA:132,0
DA:145,0
DA:132,0
DA:145,0
DA:132,0
DA:145,0
DA:132,0
DA:145,0
DA:132,11
DA:145,11
DA:132,0
DA:145,0
DA:197,0
DA:200,0
DA:197,0
DA:200,0
DA:197,0
DA:200,0
DA:197,0
DA:200,0
DA:197,0
DA:200,0
DA:197,11
DA:200,11
DA:197,0
DA:200,0
end_of_record
SF:/home/yackey/projects/waitables/vpgnixApp/include/IRunnable.h
FN:8,_ZN9IRunnableD0Ev
FNDA:0,_ZN9IRunnableD0Ev
FN:8,_ZN9IRunnableD2Ev
FNDA:0,_ZN9IRunnableD2Ev
DA:8,0
DA:8,0
end_of_record
SF:/usr/include/c++/11/bits/std_function.h
FN:85,_ZNSt9_Any_data9_M_accessEv
FNDA:0,_ZNSt9_Any_data9_M_accessEv
FN:86,_ZNKSt9_Any_data9_M_accessEv
FNDA:0,_ZNKSt9_Any_data9_M_accessEv
FN:90,_ZNSt9_Any_data9_M_accessIPSt5_BindIFM9aspthreadFviRNSt7__cxx1112basic_stringIcSt11char_traitsIcESaIcEEEEPS2_St12_PlaceholderILi1EESD_ILi2EEEEEERT_v
FNDA:0,_ZNSt9_Any_data9_M_accessIPSt5_BindIFM9aspthreadFviRNSt7__cxx1112basic_stringIcSt11char_traitsIcESaIcEEEEPS2_St12_PlaceholderILi1EESD_ILi2EEEEEERT_v
FN:90,_ZNSt9_Any_data9_M_accessIPKSt9type_infoEERT_v
FNDA:0,_ZNSt9_Any_data9_M_accessIPKSt9type_infoEERT_v
FN:95,_ZNKSt9_Any_data9_M_accessIPSt5_BindIFM9aspthreadFviRNSt7__cxx1112basic_stringIcSt11char_traitsIcESaIcEEEEPS2_St12_PlaceholderILi1EESD_ILi2EEEEEERKT_v
FNDA:0,_ZNKSt9_Any_data9_M_accessIPSt5_BindIFM9aspthreadFviRNSt7__cxx1112basic_stringIcSt11char_traitsIcESaIcEEEEPS2_St12_PlaceholderILi1EESD_ILi2EEEEEERKT_v
FN:134,_ZNSt14_Function_base13_Base_managerISt5_BindIFM9aspthreadFviRNSt7__cxx1112basic_stringIcSt11char_traitsIcESaIcEEEEPS2_St12_PlaceholderILi1EESD_ILi2EEEEE14_M_get_pointerERKSt9_Any_data
FNDA:0,_ZNSt14_Function_base13_Base_managerISt5_BindIFM9aspthreadFviRNSt7__cxx1112basic_stringIcSt11char_traitsIcESaIcEEEEPS2_St12_PlaceholderILi1EESD_ILi2EEEEE14_M_get_pointerERKSt9_Any_data
FN:158,_ZNSt14_Function_base13_Base_managerISt5_BindIFM9aspthreadFviRNSt7__cxx1112basic_stringIcSt11char_traitsIcESaIcEEEEPS2_St12_PlaceholderILi1EESD_ILi2EEEEE9_M_createIRKSH_EEvRSt9_Any_dataOT_St17integral_constantIbLb0EE
FNDA:0,_ZNSt14_Function_base13_Base_managerISt5_BindIFM9aspthreadFviRNSt7__cxx1112basic_stringIcSt11char_traitsIcESaIcEEEEPS2_St12_PlaceholderILi1EESD_ILi2EEEEE9_M_createIRKSH_EEvRSt9_Any_dataOT_St17integral_constantIbLb0EE
FN:158,_ZNSt14_Function_base13_Base_managerISt5_BindIFM9aspthreadFviRNSt7__cxx1112basic_stringIcSt11char_traitsIcESaIcEEEEPS2_St12_PlaceholderILi1EESD_ILi2EEEEE9_M_createISH_EEvRSt9_Any_dataOT_St17integral_constantIbLb0EE
FNDA:0,_ZNSt14_Function_base13_Base_managerISt5_BindIFM9aspthreadFviRNSt7__cxx1112basic_stringIcSt11char_traitsIcESaIcEEEEPS2_St12_PlaceholderILi1EESD_ILi2EEEEE9_M_createISH_EEvRSt9_Any_dataOT_St17integral_constantIbLb0EE
FN:173,_ZNSt14_Function_base13_Base_managerISt5_BindIFM9aspthreadFviRNSt7__cxx1112basic_stringIcSt11char_traitsIcESaIcEEEEPS2_St12_PlaceholderILi1EESD_ILi2EEEEE10_M_destroyERSt9_Any_dataSt17integral_constantIbLb0EE
FNDA:0,_ZNSt14_Function_base13_Base_managerISt5_BindIFM9aspthreadFviRNSt7__cxx1112basic_stringIcSt11char_traitsIcESaIcEEEEPS2_St12_PlaceholderILi1EESD_ILi2EEEEE10_M_destroyERSt9_Any_dataSt17integral_constantIbLb0EE
FN:180,_ZNSt14_Function_base13_Base_managerISt5_BindIFM9aspthreadFviRNSt7__cxx1112basic_stringIcSt11char_traitsIcESaIcEEEEPS2_St12_PlaceholderILi1EESD_ILi2EEEEE10_M_managerERSt9_Any_dataRKSJ_St18_Manager_operation
FNDA:0,_ZNSt14_Function_base13_Base_managerISt5_BindIFM9aspthreadFviRNSt7__cxx1112basic_stringIcSt11char_traitsIcESaIcEEEEPS2_St12_PlaceholderILi1EESD_ILi2EEEEE10_M_managerERSt9_Any_dataRKSJ_St18_Manager_operation
FN:211,_ZNSt14_Function_base13_Base_managerISt5_BindIFM9aspthreadFviRNSt7__cxx1112basic_stringIcSt11char_traitsIcESaIcEEEEPS2_St12_PlaceholderILi1EESD_ILi2EEEEE15_M_init_functorISH_EEvRSt9_Any_dataOT_
FNDA:0,_ZNSt14_Function_base13_Base_managerISt5_BindIFM9aspthreadFviRNSt7__cxx1112basic_stringIcSt11char_traitsIcESaIcEEEEPS2_St12_PlaceholderILi1EESD_ILi2EEEEE15_M_init_functorISH_EEvRSt9_Any_dataOT_
FN:211,_ZNSt14_Function_base13_Base_managerISt5_BindIFM9aspthreadFviRNSt7__cxx1112basic_stringIcSt11char_traitsIcESaIcEEEEPS2_St12_PlaceholderILi1EESD_ILi2EEEEE15_M_init_functorIRKSH_EEvRSt9_Any_dataOT_
FNDA:0,_ZNSt14_Function_base13_Base_managerISt5_BindIFM9aspthreadFviRNSt7__cxx1112basic_stringIcSt11char_traitsIcESaIcEEEEPS2_St12_PlaceholderILi1EESD_ILi2EEEEE15_M_init_functorIRKSH_EEvRSt9_Any_dataOT_
FN:235,_ZNSt14_Function_base13_Base_managerISt5_BindIFM9aspthreadFviRNSt7__cxx1112basic_stringIcSt11char_traitsIcESaIcEEEEPS2_St12_PlaceholderILi1EESD_ILi2EEEEE21_M_not_empty_functionISH_EEbRKT_
FNDA:0,_ZNSt14_Function_base13_Base_managerISt5_BindIFM9aspthreadFviRNSt7__cxx1112basic_stringIcSt11char_traitsIcESaIcEEEEPS2_St12_PlaceholderILi1EESD_ILi2EEEEE21_M_not_empty_functionISH_EEbRKT_
FN:239,_ZNSt14_Function_baseC2Ev
FNDA:0,_ZNSt14_Function_baseC2Ev
FN:241,_ZNSt14_Function_baseD2Ev
FNDA:0,_ZNSt14_Function_baseD2Ev
FN:247,_ZNKSt14_Function_base8_M_emptyEv
FNDA:0,_ZNKSt14_Function_base8_M_emptyEv
FN:267,_ZNSt17_Function_handlerIFviRNSt7__cxx1112basic_stringIcSt11char_traitsIcESaIcEEEESt5_BindIFM9aspthreadFviS6_EPS9_St12_PlaceholderILi1EESD_ILi2EEEEE10_M_managerERSt9_Any_dataRKSJ_St18_Manager_operation
FNDA:0,_ZNSt17_Function_handlerIFviRNSt7__cxx1112basic_stringIcSt11char_traitsIcESaIcEEEESt5_BindIFM9aspthreadFviS6_EPS9_St12_PlaceholderILi1EESD_ILi2EEEEE10_M_managerERSt9_Any_dataRKSJ_St18_Manager_operation
FN:288,_ZNSt17_Function_handlerIFviRNSt7__cxx1112basic_stringIcSt11char_traitsIcESaIcEEEESt5_BindIFM9aspthreadFviS6_EPS9_St12_PlaceholderILi1EESD_ILi2EEEEE9_M_invokeERKSt9_Any_dataOiS6_
FNDA:0,_ZNSt17_Function_handlerIFviRNSt7__cxx1112basic_stringIcSt11char_traitsIcESaIcEEEESt5_BindIFM9aspthreadFviS6_EPS9_St12_PlaceholderILi1EESD_ILi2EEEEE9_M_invokeERKSt9_Any_dataOiS6_
FN:386,_ZNSt8functionIFviRNSt7__cxx1112basic_stringIcSt11char_traitsIcESaIcEEEEEC2ERKS8_
FNDA:0,_ZNSt8functionIFviRNSt7__cxx1112basic_stringIcSt11char_traitsIcESaIcEEEEEC2ERKS8_
FN:435,_ZNSt8functionIFviRNSt7__cxx1112basic_stringIcSt11char_traitsIcESaIcEEEEEC2ISt5_BindIFM9aspthreadFviS6_EPSB_St12_PlaceholderILi1EESF_ILi2EEEEvEEOT_
FNDA:0,_ZNSt8functionIFviRNSt7__cxx1112basic_stringIcSt11char_traitsIcESaIcEEEEEC2ISt5_BindIFM9aspthreadFviS6_EPSB_St12_PlaceholderILi1EESF_ILi2EEEEvEEOT_
FN:572,_ZNKSt8functionIFviRNSt7__cxx1112basic_stringIcSt11char_traitsIcESaIcEEEEEcvbEv
FNDA:0,_ZNKSt8functionIFviRNSt7__cxx1112basic_stringIcSt11char_traitsIcESaIcEEEEEcvbEv
DA:85,0
DA:86,0
DA:90,0
DA:91,0
DA:90,0
DA:91,0
DA:95,0
DA:96,0
DA:134,0
DA:142,0
DA:158,0
DA:160,0
DA:161,0
DA:162,0
DA:158,0
DA:160,0
DA:161,0
DA:162,0
DA:173,0
DA:175,0
DA:176,0
DA:180,0
DA:183,0
DA:185,0
DA:187,0
DA:191,0
DA:193,0
DA:194,0
DA:195,0
DA:197,0
DA:198,0
DA:199,0
DA:200,0
DA:202,0
DA:203,0
DA:204,0
DA:206,0
DA:211,0
DA:215,0
DA:216,0
DA:211,0
DA:215,0
DA:216,0
DA:235,0
DA:236,0
DA:239,0
DA:241,0
DA:243,0
DA:244,0
DA:245,0
DA:247,0
DA:267,0
DA:270,0
DA:273,0
DA:274,0
DA:275,0
DA:277,0
DA:278,0
DA:279,0
DA:281,0
DA:282,0
DA:284,0
DA:288,0
DA:290,0
DA:291,0
DA:386,0
DA:387,0
DA:389,0
DA:391,0
DA:392,0
DA:393,0
DA:395,0
DA:435,0
DA:437,0
DA:447,0
DA:449,0
DA:451,0
DA:452,0
DA:454,0
DA:572,0
DA:573,0
end_of_record
SF:/usr/include/c++/11/tuple
FN:80,_ZNSt10_Head_baseILm1ESt14default_deleteI15waitable_threadELb1EEC2Ev
FNDA:0,_ZNSt10_Head_baseILm1ESt14default_deleteI15waitable_threadELb1EEC2Ev
FN:83,_ZNSt10_Head_baseILm1ESt12_PlaceholderILi1EELb1EEC2ERKS1_
FNDA:0,_ZNSt10_Head_baseILm1ESt12_PlaceholderILi1EELb1EEC2ERKS1_
FN:83,_ZNSt10_Head_baseILm2ESt12_PlaceholderILi2EELb1EEC2ERKS1_
FNDA:0,_ZNSt10_Head_baseILm2ESt12_PlaceholderILi2EELb1EEC2ERKS1_
FN:124,_ZNSt10_Head_baseILm2ESt12_PlaceholderILi2EELb1EE7_M_headERS2_
FNDA:0,_ZNSt10_Head_baseILm2ESt12_PlaceholderILi2EELb1EE7_M_headERS2_
FN:124,_ZNSt10_Head_baseILm1ESt12_PlaceholderILi1EELb1EE7_M_headERS2_
FNDA:0,_ZNSt10_Head_baseILm1ESt12_PlaceholderILi1EELb1EE7_M_headERS2_
FN:124,_ZNSt10_Head_baseILm1ESt14default_deleteI15waitable_threadELb1EE7_M_headERS3_
FNDA:0,_ZNSt10_Head_baseILm1ESt14default_deleteI15waitable_threadELb1EE7_M_headERS3_
FN:189,_ZNSt10_Head_baseILm0EP15waitable_threadLb0EEC2Ev
FNDA:0,_ZNSt10_Head_baseILm0EP15waitable_threadLb0EEC2Ev
FN:192,_ZNSt10_Head_baseILm1ERNSt7__cxx1112basic_stringIcSt11char_traitsIcESaIcEEELb0EEC2ES6_
FNDA:0,_ZNSt10_Head_baseILm1ERNSt7__cxx1112basic_stringIcSt11char_traitsIcESaIcEEELb0EEC2ES6_
FN:199,_ZNSt10_Head_baseILm0EP9aspthreadLb0EEC2IS1_EEOT_
FNDA:0,_ZNSt10_Head_baseILm0EP9aspthreadLb0EEC2IS1_EEOT_
FN:199,_ZNSt10_Head_baseILm0EOiLb0EEC2IiEEOT_
FNDA:0,_ZNSt10_Head_baseILm0EOiLb0EEC2IiEEOT_
FN:233,_ZNSt10_Head_baseILm0EOiLb0EE7_M_headERS1_
FNDA:0,_ZNSt10_Head_baseILm0EOiLb0EE7_M_headERS1_
FN:233,_ZNSt10_Head_baseILm0EP15waitable_threadLb0EE7_M_headERS2_
FNDA:0,_ZNSt10_Head_baseILm0EP15waitable_threadLb0EE7_M_headERS2_
FN:233,_ZNSt10_Head_baseILm1ERNSt7__cxx1112basic_stringIcSt11char_traitsIcESaIcEEELb0EE7_M_headERS7_
FNDA:0,_ZNSt10_Head_baseILm1ERNSt7__cxx1112basic_stringIcSt11char_traitsIcESaIcEEELb0EE7_M_headERS7_
FN:233,_ZNSt10_Head_baseILm0EP9aspthreadLb0EE7_M_headERS2_
FNDA:0,_ZNSt10_Head_baseILm0EP9aspthreadLb0EE7_M_headERS2_
FN:236,_ZNSt10_Head_baseILm0EP15waitable_threadLb0EE7_M_headERKS2_
FNDA:0,_ZNSt10_Head_baseILm0EP15waitable_threadLb0EE7_M_headERKS2_
FN:268,_ZNSt11_Tuple_implILm1EJSt12_PlaceholderILi1EES0_ILi2EEEE7_M_headERS3_
FNDA:0,_ZNSt11_Tuple_implILm1EJSt12_PlaceholderILi1EES0_ILi2EEEE7_M_headERS3_
FN:268,_ZNSt11_Tuple_implILm0EJOiRNSt7__cxx1112basic_stringIcSt11char_traitsIcESaIcEEEEE7_M_headERS8_
FNDA:0,_ZNSt11_Tuple_implILm0EJOiRNSt7__cxx1112basic_stringIcSt11char_traitsIcESaIcEEEEE7_M_headERS8_
FN:268,_ZNSt11_Tuple_implILm0EJP15waitable_threadSt14default_deleteIS0_EEE7_M_headERS4_
FNDA:0,_ZNSt11_Tuple_implILm0EJP15waitable_threadSt14default_deleteIS0_EEE7_M_headERS4_
FN:268,_ZNSt11_Tuple_implILm0EJP9aspthreadSt12_PlaceholderILi1EES2_ILi2EEEE7_M_headERS5_
FNDA:0,_ZNSt11_Tuple_implILm0EJP9aspthreadSt12_PlaceholderILi1EES2_ILi2EEEE7_M_headERS5_
FN:271,_ZNSt11_Tuple_implILm0EJP15waitable_threadSt14default_deleteIS0_EEE7_M_headERKS4_
FNDA:0,_ZNSt11_Tuple_implILm0EJP15waitable_threadSt14default_deleteIS0_EEE7_M_headERKS4_
FN:279,_ZNSt11_Tuple_implILm0EJP15waitable_threadSt14default_deleteIS0_EEEC2Ev
FNDA:0,_ZNSt11_Tuple_implILm0EJP15waitable_threadSt14default_deleteIS0_EEEC2Ev
FN:283,_ZNSt11_Tuple_implILm1EJSt12_PlaceholderILi1EES0_ILi2EEEEC2ERKS1_RKS2_
FNDA:0,_ZNSt11_Tuple_implILm1EJSt12_PlaceholderILi1EES0_ILi2EEEEC2ERKS1_RKS2_
FN:290,_ZNSt11_Tuple_implILm0EJOiRNSt7__cxx1112basic_stringIcSt11char_traitsIcESaIcEEEEEC2IiJS7_EvEEOT_DpOT0_
FNDA:0,_ZNSt11_Tuple_implILm0EJOiRNSt7__cxx1112basic_stringIcSt11char_traitsIcESaIcEEEEEC2IiJS7_EvEEOT_DpOT0_
FN:290,_ZNSt11_Tuple_implILm0EJP9aspthreadSt12_PlaceholderILi1EES2_ILi2EEEEC2IS1_JRKS3_RKS4_EvEEOT_DpOT0_
FNDA:0,_ZNSt11_Tuple_implILm0EJP9aspthreadSt12_PlaceholderILi1EES2_ILi2EEEEC2IS1_JRKS3_RKS4_EvEEOT_DpOT0_
FN:301,_ZNSt11_Tuple_implILm1EJSt12_PlaceholderILi1EES0_ILi2EEEEC2EOS3_
FNDA:0,_ZNSt11_Tuple_implILm1EJSt12_PlaceholderILi1EES0_ILi2EEEEC2EOS3_
FN:301,_ZNSt11_Tuple_implILm0EJP9aspthreadSt12_PlaceholderILi1EES2_ILi2EEEEC2EOS5_
FNDA:0,_ZNSt11_Tuple_implILm0EJP9aspthreadSt12_PlaceholderILi1EES2_ILi2EEEEC2EOS5_
FN:424,_ZNSt11_Tuple_implILm2EJSt12_PlaceholderILi2EEEE7_M_headERS2_
FNDA:0,_ZNSt11_Tuple_implILm2EJSt12_PlaceholderILi2EEEE7_M_headERS2_
FN:424,_ZNSt11_Tuple_implILm1EJRNSt7__cxx1112basic_stringIcSt11char_traitsIcESaIcEEEEE7_M_headERS7_
FNDA:0,_ZNSt11_Tuple_implILm1EJRNSt7__cxx1112basic_stringIcSt11char_traitsIcESaIcEEEEE7_M_headERS7_
FN:424,_ZNSt11_Tuple_implILm1EJSt14default_deleteI15waitable_threadEEE7_M_headERS3_
FNDA:0,_ZNSt11_Tuple_implILm1EJSt14default_deleteI15waitable_threadEEE7_M_headERS3_
FN:430,_ZNSt11_Tuple_implILm1EJSt14default_deleteI15waitable_threadEEEC2Ev
FNDA:0,_ZNSt11_Tuple_implILm1EJSt14default_deleteI15waitable_threadEEEC2Ev
FN:434,_ZNSt11_Tuple_implILm1EJRNSt7__cxx1112basic_stringIcSt11char_traitsIcESaIcEEEEEC2ES6_
FNDA:0,_ZNSt11_Tuple_implILm1EJRNSt7__cxx1112basic_stringIcSt11char_traitsIcESaIcEEEEEC2ES6_
FN:434,_ZNSt11_Tuple_implILm2EJSt12_PlaceholderILi2EEEEC2ERKS1_
FNDA:0,_ZNSt11_Tuple_implILm2EJSt12_PlaceholderILi2EEEEC2ERKS1_
FN:454,_ZNSt11_Tuple_implILm2EJSt12_PlaceholderILi2EEEEC2EOS2_
FNDA:0,_ZNSt11_Tuple_implILm2EJSt12_PlaceholderILi2EEEEC2EOS2_
FN:746,_ZNSt5tupleIJP9aspthreadSt12_PlaceholderILi1EES2_ILi2EEEEC2IJS1_RKS3_RKS4_ELb1ELb1EEEDpOT_
FNDA:0,_ZNSt5tupleIJP9aspthreadSt12_PlaceholderILi1EES2_ILi2EEEEC2IJS1_RKS3_RKS4_ELb1ELb1EEEDpOT_
FN:760,_ZNSt5tupleIJP9aspthreadSt12_PlaceholderILi1EES2_ILi2EEEEC2EOS5_
FNDA:0,_ZNSt5tupleIJP9aspthreadSt12_PlaceholderILi1EES2_ILi2EEEEC2EOS5_
FN:1053,_ZNSt5tupleIJP15waitable_threadSt14default_deleteIS0_EEEC2ILb1ELb1EEEv
FNDA:0,_ZNSt5tupleIJP15waitable_threadSt14default_deleteIS0_EEEC2ILb1ELb1EEEv
FN:1081,_ZNSt5tupleIJOiRNSt7__cxx1112basic_stringIcSt11char_traitsIcESaIcEEEEEC2IiS7_Lb1EEEOT_OT0_
FNDA:0,_ZNSt5tupleIJOiRNSt7__cxx1112basic_stringIcSt11char_traitsIcESaIcEEEEEC2IiS7_Lb1EEEOT_OT0_
FN:1381,_ZSt12__get_helperILm0EP15waitable_threadJSt14default_deleteIS0_EEERT0_RSt11_Tuple_implIXT_EJS4_DpT1_EE
FNDA:0,_ZSt12__get_helperILm0EP15waitable_threadJSt14default_deleteIS0_EEERT0_RSt11_Tuple_implIXT_EJS4_DpT1_EE
FN:1381,_ZSt12__get_helperILm0EP9aspthreadJSt12_PlaceholderILi1EES2_ILi2EEEERT0_RSt11_Tuple_implIXT_EJS5_DpT1_EE
FNDA:0,_ZSt12__get_helperILm0EP9aspthreadJSt12_PlaceholderILi1EES2_ILi2EEEERT0_RSt11_Tuple_implIXT_EJS5_DpT1_EE
FN:1381,_ZSt12__get_helperILm1ESt14default_deleteI15waitable_threadEJEERT0_RSt11_Tuple_implIXT_EJS3_DpT1_EE
FNDA:0,_ZSt12__get_helperILm1ESt14default_deleteI15waitable_threadEJEERT0_RSt11_Tuple_implIXT_EJS3_DpT1_EE
FN:1381,_ZSt12__get_helperILm2ESt12_PlaceholderILi2EEJEERT0_RSt11_Tuple_implIXT_EJS2_DpT1_EE
FNDA:0,_ZSt12__get_helperILm2ESt12_PlaceholderILi2EEJEERT0_RSt11_Tuple_implIXT_EJS2_DpT1_EE
FN:1381,_ZSt12__get_helperILm1ERNSt7__cxx1112basic_stringIcSt11char_traitsIcESaIcEEEJEERT0_RSt11_Tuple_implIXT_EJS7_DpT1_EE
FNDA:0,_ZSt12__get_helperILm1ERNSt7__cxx1112basic_stringIcSt11char_traitsIcESaIcEEEJEERT0_RSt11_Tuple_implIXT_EJS7_DpT1_EE
FN:1381,_ZSt12__get_helperILm0EOiJRNSt7__cxx1112basic_stringIcSt11char_traitsIcESaIcEEEEERT0_RSt11_Tuple_implIXT_EJS8_DpT1_EE
FNDA:0,_ZSt12__get_helperILm0EOiJRNSt7__cxx1112basic_stringIcSt11char_traitsIcESaIcEEEEERT0_RSt11_Tuple_implIXT_EJS8_DpT1_EE
FN:1381,_ZSt12__get_helperILm1ESt12_PlaceholderILi1EEJS0_ILi2EEEERT0_RSt11_Tuple_implIXT_EJS3_DpT1_EE
FNDA:0,_ZSt12__get_helperILm1ESt12_PlaceholderILi1EEJS0_ILi2EEEERT0_RSt11_Tuple_implIXT_EJS3_DpT1_EE
FN:1386,_ZSt12__get_helperILm0EP15waitable_threadJSt14default_deleteIS0_EEERKT0_RKSt11_Tuple_implIXT_EJS4_DpT1_EE
FNDA:0,_ZSt12__get_helperILm0EP15waitable_threadJSt14default_deleteIS0_EEERKT0_RKSt11_Tuple_implIXT_EJS4_DpT1_EE
FN:1397,_ZSt3getILm1EJP15waitable_threadSt14default_deleteIS0_EEERNSt13tuple_elementIXT_ESt5tupleIJDpT0_EEE4typeERS8_
FNDA:0,_ZSt3getILm1EJP15waitable_threadSt14default_deleteIS0_EEERNSt13tuple_elementIXT_ESt5tupleIJDpT0_EEE4typeERS8_
FN:1397,_ZSt3getILm0EJP15waitable_threadSt14default_deleteIS0_EEERNSt13tuple_elementIXT_ESt5tupleIJDpT0_EEE4typeERS8_
FNDA:0,_ZSt3getILm0EJP15waitable_threadSt14default_deleteIS0_EEERNSt13tuple_elementIXT_ESt5tupleIJDpT0_EEE4typeERS8_
FN:1397,_ZSt3getILm0EJP9aspthreadSt12_PlaceholderILi1EES2_ILi2EEEERNSt13tuple_elementIXT_ESt5tupleIJDpT0_EEE4typeERS9_
FNDA:0,_ZSt3getILm0EJP9aspthreadSt12_PlaceholderILi1EES2_ILi2EEEERNSt13tuple_elementIXT_ESt5tupleIJDpT0_EEE4typeERS9_
FN:1397,_ZSt3getILm1EJP9aspthreadSt12_PlaceholderILi1EES2_ILi2EEEERNSt13tuple_elementIXT_ESt5tupleIJDpT0_EEE4typeERS9_
FNDA:0,_ZSt3getILm1EJP9aspthreadSt12_PlaceholderILi1EES2_ILi2EEEERNSt13tuple_elementIXT_ESt5tupleIJDpT0_EEE4typeERS9_
FN:1397,_ZSt3getILm2EJP9aspthreadSt12_PlaceholderILi1EES2_ILi2EEEERNSt13tuple_elementIXT_ESt5tupleIJDpT0_EEE4typeERS9_
FNDA:0,_ZSt3getILm2EJP9aspthreadSt12_PlaceholderILi1EES2_ILi2EEEERNSt13tuple_elementIXT_ESt5tupleIJDpT0_EEE4typeERS9_
FN:1403,_ZSt3getILm0EJP15waitable_threadSt14default_deleteIS0_EEERKNSt13tuple_elementIXT_ESt5tupleIJDpT0_EEE4typeERKS8_
FNDA:0,_ZSt3getILm0EJP15waitable_threadSt14default_deleteIS0_EEERKNSt13tuple_elementIXT_ESt5tupleIJDpT0_EEE4typeERKS8_
FN:1409,_ZSt3getILm1EJOiRNSt7__cxx1112basic_stringIcSt11char_traitsIcESaIcEEEEEONSt13tuple_elementIXT_ESt5tupleIJDpT0_EEE4typeEOSC_
FNDA:0,_ZSt3getILm1EJOiRNSt7__cxx1112basic_stringIcSt11char_traitsIcESaIcEEEEEONSt13tuple_elementIXT_ESt5tupleIJDpT0_EEE4typeEOSC_
FN:1409,_ZSt3getILm0EJOiRNSt7__cxx1112basic_stringIcSt11char_traitsIcESaIcEEEEEONSt13tuple_elementIXT_ESt5tupleIJDpT0_EEE4typeEOSC_
FNDA:0,_ZSt3getILm0EJOiRNSt7__cxx1112basic_stringIcSt11char_traitsIcESaIcEEEEEONSt13tuple_elementIXT_ESt5tupleIJDpT0_EEE4typeEOSC_
FN:1621,_ZSt16forward_as_tupleIJiRNSt7__cxx1112basic_stringIcSt11char_traitsIcESaIcEEEEESt5tupleIJDpOT_EESA_
FNDA:0,_ZSt16forward_as_tupleIJiRNSt7__cxx1112basic_stringIcSt11char_traitsIcESaIcEEEEESt5tupleIJDpOT_EESA_
DA:80,0
DA:81,0
DA:83,0
DA:84,0
DA:83,0
DA:84,0
DA:124,0
DA:124,0
DA:124,0
DA:189,0
DA:190,0
DA:192,0
DA:193,0
DA:199,0
DA:200,0
DA:199,0
DA:200,0
DA:233,0
DA:233,0
DA:233,0
DA:233,0
DA:236,0
DA:268,0
DA:268,0
DA:268,0
DA:268,0
DA:271,0
DA:279,0
DA:280,0
DA:283,0
DA:284,0
DA:285,0
DA:290,0
DA:292,0
DA:293,0
DA:290,0
DA:292,0
DA:293,0
DA:301,0
DA:301,0
DA:424,0
DA:424,0
DA:424,0
DA:430,0
DA:431,0
DA:434,0
DA:435,0
DA:436,0
DA:434,0
DA:435,0
DA:436,0
DA:454,0
DA:457,0
DA:746,0
DA:748,0
DA:760,0
DA:1053,0
DA:1055,0
DA:1081,0
DA:1083,0
DA:1381,0
DA:1382,0
DA:1381,0
DA:1382,0
DA:1381,0
DA:1382,0
DA:1381,0
DA:1382,0
DA:1381,0
DA:1382,0
DA:1381,0
DA:1382,0
DA:1381,0
DA:1382,0
DA:1386,0
DA:1387,0
DA:1397,0
DA:1398,0
DA:1397,0
DA:1398,0
DA:1397,0
DA:1398,0
DA:1397,0
DA:1398,0
DA:1397,0
DA:1398,0
DA:1403,0
DA:1404,0
DA:1409,0
DA:1412,0
DA:1409,0
DA:1412,0
DA:1621,0
DA:1622,0
end_of_record
SF:/usr/include/c++/11/bits/ptr_traits.h
FN:149,_ZNSt14pointer_traitsIPKcE10pointer_toERS0_
FNDA:0,_ZNSt14pointer_traitsIPKcE10pointer_toERS0_
FN:149,_ZNSt14pointer_traitsIPcE10pointer_toERc
FNDA:0,_ZNSt14pointer_traitsIPcE10pointer_toERc
FN:159,_ZSt12__to_addressISt23_Sp_counted_ptr_inplaceI14postable_timerSaIS1_ELN9__gnu_cxx12_Lock_policyE2EEEPT_S7_
FNDA:0,_ZSt12__to_addressISt23_Sp_counted_ptr_inplaceI14postable_timerSaIS1_ELN9__gnu_cxx12_Lock_policyE2EEEPT_S7_
FN:159,_ZSt12__to_addressISt23_Sp_counted_ptr_inplaceI4wfmoSaIS1_ELN9__gnu_cxx12_Lock_policyE2EEEPT_S7_
FNDA:0,_ZSt12__to_addressISt23_Sp_counted_ptr_inplaceI4wfmoSaIS1_ELN9__gnu_cxx12_Lock_policyE2EEEPT_S7_
FN:159,_ZSt12__to_addressISt23_Sp_counted_ptr_inplaceI14waitable_timerSaIS1_ELN9__gnu_cxx12_Lock_policyE2EEEPT_S7_
FNDA:0,_ZSt12__to_addressISt23_Sp_counted_ptr_inplaceI14waitable_timerSaIS1_ELN9__gnu_cxx12_Lock_policyE2EEEPT_S7_
FN:159,_ZSt12__to_addressISt23_Sp_counted_ptr_inplaceI21waitableMessageSourceSaIS1_ELN9__gnu_cxx12_Lock_policyE2EEEPT_S7_
FNDA:0,_ZSt12__to_addressISt23_Sp_counted_ptr_inplaceI21waitableMessageSourceSaIS1_ELN9__gnu_cxx12_Lock_policyE2EEEPT_S7_
DA:149,0
DA:150,0
DA:149,0
DA:150,0
DA:159,0
DA:162,0
DA:159,0
DA:162,0
DA:159,0
DA:162,0
DA:159,0
DA:162,0
end_of_record
SF:/usr/include/c++/11/bits/shared_ptr_base.h
FN:126,_ZNSt16_Sp_counted_baseILN9__gnu_cxx12_Lock_policyE2EEC2Ev
FNDA:0,_ZNSt16_Sp_counted_baseILN9__gnu_cxx12_Lock_policyE2EEC2Ev
FN:130,_ZNSt16_Sp_counted_baseILN9__gnu_cxx12_Lock_policyE2EED2Ev
FNDA:0,_ZNSt16_Sp_counted_baseILN9__gnu_cxx12_Lock_policyE2EED2Ev
FN:130,_ZNSt16_Sp_counted_baseILN9__gnu_cxx12_Lock_policyE2EED0Ev
FNDA:0,_ZNSt16_Sp_counted_baseILN9__gnu_cxx12_Lock_policyE2EED0Ev
FN:140,_ZNSt16_Sp_counted_baseILN9__gnu_cxx12_Lock_policyE2EE10_M_destroyEv
FNDA:0,_ZNSt16_Sp_counted_baseILN9__gnu_cxx12_Lock_policyE2EE10_M_destroyEv
FN:147,_ZNSt16_Sp_counted_baseILN9__gnu_cxx12_Lock_policyE2EE15_M_add_ref_copyEv
FNDA:0,_ZNSt16_Sp_counted_baseILN9__gnu_cxx12_Lock_policyE2EE15_M_add_ref_copyEv
FN:161,_ZNSt16_Sp_counted_baseILN9__gnu_cxx12_Lock_policyE2EE10_M_releaseEv
FNDA:0,_ZNSt16_Sp_counted_baseILN9__gnu_cxx12_Lock_policyE2EE10_M_releaseEv
FN:385,_ZNSt14_Sp_ebo_helperILi0ESaI21waitableMessageSourceELb1EEC2ERKS1_
FNDA:0,_ZNSt14_Sp_ebo_helperILi0ESaI21waitableMessageSourceELb1EEC2ERKS1_
FN:385,_ZNSt14_Sp_ebo_helperILi0ESaI14waitable_timerELb1EEC2ERKS1_
FNDA:0,_ZNSt14_Sp_ebo_helperILi0ESaI14waitable_timerELb1EEC2ERKS1_
FN:385,_ZNSt14_Sp_ebo_helperILi0ESaI4wfmoELb1EEC2ERKS1_
FNDA:0,_ZNSt14_Sp_ebo_helperILi0ESaI4wfmoELb1EEC2ERKS1_
FN:385,_ZNSt14_Sp_ebo_helperILi0ESaI14postable_timerELb1EEC2ERKS1_
FNDA:0,_ZNSt14_Sp_ebo_helperILi0ESaI14postable_timerELb1EEC2ERKS1_
FN:389,_ZNSt14_Sp_ebo_helperILi0ESaI14waitable_timerELb1EE6_S_getERS2_
FNDA:0,_ZNSt14_Sp_ebo_helperILi0ESaI14waitable_timerELb1EE6_S_getERS2_
FN:389,_ZNSt14_Sp_ebo_helperILi0ESaI4wfmoELb1EE6_S_getERS2_
FNDA:0,_ZNSt14_Sp_ebo_helperILi0ESaI4wfmoELb1EE6_S_getERS2_
FN:389,_ZNSt14_Sp_ebo_helperILi0ESaI14postable_timerELb1EE6_S_getERS2_
FNDA:0,_ZNSt14_Sp_ebo_helperILi0ESaI14postable_timerELb1EE6_S_getERS2_
FN:389,_ZNSt14_Sp_ebo_helperILi0ESaI21waitableMessageSourceELb1EE6_S_getERS2_
FNDA:0,_ZNSt14_Sp_ebo_helperILi0ESaI21waitableMessageSourceELb1EE6_S_getERS2_
FN:479,_ZNSt19_Sp_make_shared_tag5_S_tiEv
FNDA:0,_ZNSt19_Sp_make_shared_tag5_S_tiEv
FN:502,_ZNSt23_Sp_counted_ptr_inplaceI21waitableMessageSourceSaIS0_ELN9__gnu_cxx12_Lock_policyE2EE5_ImplC2ES1_
FNDA:0,_ZNSt23_Sp_counted_ptr_inplaceI21waitableMessageSourceSaIS0_ELN9__gnu_cxx12_Lock_policyE2EE5_ImplC2ES1_
FN:502,_ZNSt23_Sp_counted_ptr_inplaceI14waitable_timerSaIS0_ELN9__gnu_cxx12_Lock_policyE2EE5_ImplC2ES1_
FNDA:0,_ZNSt23_Sp_counted_ptr_inplaceI14waitable_timerSaIS0_ELN9__gnu_cxx12_Lock_policyE2EE5_ImplC2ES1_
FN:502,_ZNSt23_Sp_counted_ptr_inplaceI4wfmoSaIS0_ELN9__gnu_cxx12_Lock_policyE2EE5_ImplC2ES1_
FNDA:0,_ZNSt23_Sp_counted_ptr_inplaceI4wfmoSaIS0_ELN9__gnu_cxx12_Lock_policyE2EE5_ImplC2ES1_
FN:502,_ZNSt23_Sp_counted_ptr_inplaceI14postable_timerSaIS0_ELN9__gnu_cxx12_Lock_policyE2EE5_ImplC2ES1_
FNDA:0,_ZNSt23_Sp_counted_ptr_inplaceI14postable_timerSaIS0_ELN9__gnu_cxx12_Lock_policyE2EE5_ImplC2ES1_
FN:504,_ZNSt23_Sp_counted_ptr_inplaceI21waitableMessageSourceSaIS0_ELN9__gnu_cxx12_Lock_policyE2EE5_Impl8_M_allocEv
FNDA:0,_ZNSt23_Sp_counted_ptr_inplaceI21waitableMessageSourceSaIS0_ELN9__gnu_cxx12_Lock_policyE2EE5_Impl8_M_allocEv
FN:504,_ZNSt23_Sp_counted_ptr_inplaceI14waitable_timerSaIS0_ELN9__gnu_cxx12_Lock_policyE2EE5_Impl8_M_allocEv
FNDA:0,_ZNSt23_Sp_counted_ptr_inplaceI14waitable_timerSaIS0_ELN9__gnu_cxx12_Lock_policyE2EE5_Impl8_M_allocEv
FN:504,_ZNSt23_Sp_counted_ptr_inplaceI4wfmoSaIS0_ELN9__gnu_cxx12_Lock_policyE2EE5_Impl8_M_allocEv
FNDA:0,_ZNSt23_Sp_counted_ptr_inplaceI4wfmoSaIS0_ELN9__gnu_cxx12_Lock_policyE2EE5_Impl8_M_allocEv
FN:504,_ZNSt23_Sp_counted_ptr_inplaceI14postable_timerSaIS0_ELN9__gnu_cxx12_Lock_policyE2EE5_Impl8_M_allocEv
FNDA:0,_ZNSt23_Sp_counted_ptr_inplaceI14postable_timerSaIS0_ELN9__gnu_cxx12_Lock_policyE2EE5_Impl8_M_allocEv
FN:514,_ZNSt23_Sp_counted_ptr_inplaceI21waitableMessageSourceSaIS0_ELN9__gnu_cxx12_Lock_policyE2EEC2IJRNSt7__cxx1112basic_stringIcSt11char_traitsIcESaIcEEERSt10shared_ptrI7ILoggerEEEES1_DpOT_
FNDA:0,_ZNSt23_Sp_counted_ptr_inplaceI21waitableMessageSourceSaIS0_ELN9__gnu_cxx12_Lock_policyE2EEC2IJRNSt7__cxx1112basic_stringIcSt11char_traitsIcESaIcEEERSt10shared_ptrI7ILoggerEEEES1_DpOT_
FN:514,_ZNSt23_Sp_counted_ptr_inplaceI14waitable_timerSaIS0_ELN9__gnu_cxx12_Lock_policyE2EEC2IJRKi9timerTypeRSt10shared_ptrI7ILoggerEEEES1_DpOT_
FNDA:0,_ZNSt23_Sp_counted_ptr_inplaceI14waitable_timerSaIS0_ELN9__gnu_cxx12_Lock_policyE2EEC2IJRKi9timerTypeRSt10shared_ptrI7ILoggerEEEES1_DpOT_
FN:514,_ZNSt23_Sp_counted_ptr_inplaceI4wfmoSaIS0_ELN9__gnu_cxx12_Lock_policyE2EEC2IJRSt3mapIiiSt4lessIiESaISt4pairIKiiEEEEEES1_DpOT_
FNDA:0,_ZNSt23_Sp_counted_ptr_inplaceI4wfmoSaIS0_ELN9__gnu_cxx12_Lock_policyE2EEC2IJRSt3mapIiiSt4lessIiESaISt4pairIKiiEEEEEES1_DpOT_
FN:514,_ZNSt23_Sp_counted_ptr_inplaceI14postable_timerSaIS0_ELN9__gnu_cxx12_Lock_policyE2EEC2IJRKi9timerTypeNSt7__cxx1112basic_stringIcSt11char_traitsIcESaIcEEERSt10shared_ptrI22IWaitableMessageSourceERSF_I7ILoggerEEEES1_DpOT_
FNDA:0,_ZNSt23_Sp_counted_ptr_inplaceI14postable_timerSaIS0_ELN9__gnu_cxx12_Lock_policyE2EEC2IJRKi9timerTypeNSt7__cxx1112basic_stringIcSt11char_traitsIcESaIcEEERSt10shared_ptrI22IWaitableMessageSourceERSF_I7ILoggerEEEES1_DpOT_
FN:523,_ZNSt23_Sp_counted_ptr_inplaceI14waitable_timerSaIS0_ELN9__gnu_cxx12_Lock_policyE2EED0Ev
FNDA:0,_ZNSt23_Sp_counted_ptr_inplaceI14waitable_timerSaIS0_ELN9__gnu_cxx12_Lock_policyE2EED0Ev
FN:523,_ZNSt23_Sp_counted_ptr_inplaceI21waitableMessageSourceSaIS0_ELN9__gnu_cxx12_Lock_policyE2EED0Ev
FNDA:0,_ZNSt23_Sp_counted_ptr_inplaceI21waitableMessageSourceSaIS0_ELN9__gnu_cxx12_Lock_policyE2EED0Ev
FN:523,_ZNSt23_Sp_counted_ptr_inplaceI21waitableMessageSourceSaIS0_ELN9__gnu_cxx12_Lock_policyE2EED2Ev
FNDA:0,_ZNSt23_Sp_counted_ptr_inplaceI21waitableMessageSourceSaIS0_ELN9__gnu_cxx12_Lock_policyE2EED2Ev
FN:523,_ZNSt23_Sp_counted_ptr_inplaceI14postable_timerSaIS0_ELN9__gnu_cxx12_Lock_policyE2EED2Ev
FNDA:0,_ZNSt23_Sp_counted_ptr_inplaceI14postable_timerSaIS0_ELN9__gnu_cxx12_Lock_policyE2EED2Ev
FN:523,_ZNSt23_Sp_counted_ptr_inplaceI14postable_timerSaIS0_ELN9__gnu_cxx12_Lock_policyE2EED0Ev
FNDA:0,_ZNSt23_Sp_counted_ptr_inplaceI14postable_timerSaIS0_ELN9__gnu_cxx12_Lock_policyE2EED0Ev
FN:523,_ZNSt23_Sp_counted_ptr_inplaceI14waitable_timerSaIS0_ELN9__gnu_cxx12_Lock_policyE2EED2Ev
FNDA:0,_ZNSt23_Sp_counted_ptr_inplaceI14waitable_timerSaIS0_ELN9__gnu_cxx12_Lock_policyE2EED2Ev
FN:523,_ZNSt23_Sp_counted_ptr_inplaceI4wfmoSaIS0_ELN9__gnu_cxx12_Lock_policyE2EED2Ev
FNDA:0,_ZNSt23_Sp_counted_ptr_inplaceI4wfmoSaIS0_ELN9__gnu_cxx12_Lock_policyE2EED2Ev
FN:523,_ZNSt23_Sp_counted_ptr_inplaceI4wfmoSaIS0_ELN9__gnu_cxx12_Lock_policyE2EED0Ev
FNDA:0,_ZNSt23_Sp_counted_ptr_inplaceI4wfmoSaIS0_ELN9__gnu_cxx12_Lock_policyE2EED0Ev
FN:526,_ZNSt23_Sp_counted_ptr_inplaceI14waitable_timerSaIS0_ELN9__gnu_cxx12_Lock_policyE2EE10_M_disposeEv
FNDA:0,_ZNSt23_Sp_counted_ptr_inplaceI14waitable_timerSaIS0_ELN9__gnu_cxx12_Lock_policyE2EE10_M_disposeEv
FN:526,_ZNSt23_Sp_counted_ptr_inplaceI14postable_timerSaIS0_ELN9__gnu_cxx12_Lock_policyE2EE10_M_disposeEv
FNDA:0,_ZNSt23_Sp_counted_ptr_inplaceI14postable_timerSaIS0_ELN9__gnu_cxx12_Lock_policyE2EE10_M_disposeEv
FN:526,_ZNSt23_Sp_counted_ptr_inplaceI21waitableMessageSourceSaIS0_ELN9__gnu_cxx12_Lock_policyE2EE10_M_disposeEv
FNDA:0,_ZNSt23_Sp_counted_ptr_inplaceI21waitableMessageSourceSaIS0_ELN9__gnu_cxx12_Lock_policyE2EE10_M_disposeEv
FN:526,_ZNSt23_Sp_counted_ptr_inplaceI4wfmoSaIS0_ELN9__gnu_cxx12_Lock_policyE2EE10_M_disposeEv
FNDA:0,_ZNSt23_Sp_counted_ptr_inplaceI4wfmoSaIS0_ELN9__gnu_cxx12_Lock_policyE2EE10_M_disposeEv
FN:533,_ZNSt23_Sp_counted_ptr_inplaceI21waitableMessageSourceSaIS0_ELN9__gnu_cxx12_Lock_policyE2EE10_M_destroyEv
FNDA:0,_ZNSt23_Sp_counted_ptr_inplaceI21waitableMessageSourceSaIS0_ELN9__gnu_cxx12_Lock_policyE2EE10_M_destroyEv
FN:533,_ZNSt23_Sp_counted_ptr_inplaceI14waitable_timerSaIS0_ELN9__gnu_cxx12_Lock_policyE2EE10_M_destroyEv
FNDA:0,_ZNSt23_Sp_counted_ptr_inplaceI14waitable_timerSaIS0_ELN9__gnu_cxx12_Lock_policyE2EE10_M_destroyEv
FN:533,_ZNSt23_Sp_counted_ptr_inplaceI14postable_timerSaIS0_ELN9__gnu_cxx12_Lock_policyE2EE10_M_destroyEv
FNDA:0,_ZNSt23_Sp_counted_ptr_inplaceI14postable_timerSaIS0_ELN9__gnu_cxx12_Lock_policyE2EE10_M_destroyEv
FN:533,_ZNSt23_Sp_counted_ptr_inplaceI4wfmoSaIS0_ELN9__gnu_cxx12_Lock_policyE2EE10_M_destroyEv
FNDA:0,_ZNSt23_Sp_counted_ptr_inplaceI4wfmoSaIS0_ELN9__gnu_cxx12_Lock_policyE2EE10_M_destroyEv
FN:546,_ZNSt23_Sp_counted_ptr_inplaceI14waitable_timerSaIS0_ELN9__gnu_cxx12_Lock_policyE2EE14_M_get_deleterERKSt9type_info
FNDA:0,_ZNSt23_Sp_counted_ptr_inplaceI14waitable_timerSaIS0_ELN9__gnu_cxx12_Lock_policyE2EE14_M_get_deleterERKSt9type_info
FN:546,_ZNSt23_Sp_counted_ptr_inplaceI21waitableMessageSourceSaIS0_ELN9__gnu_cxx12_Lock_policyE2EE14_M_get_deleterERKSt9type_info
FNDA:0,_ZNSt23_Sp_counted_ptr_inplaceI21waitableMessageSourceSaIS0_ELN9__gnu_cxx12_Lock_policyE2EE14_M_get_deleterERKSt9type_info
FN:546,_ZNSt23_Sp_counted_ptr_inplaceI4wfmoSaIS0_ELN9__gnu_cxx12_Lock_policyE2EE14_M_get_deleterERKSt9type_info
FNDA:0,_ZNSt23_Sp_counted_ptr_inplaceI4wfmoSaIS0_ELN9__gnu_cxx12_Lock_policyE2EE14_M_get_deleterERKSt9type_info
FN:546,_ZNSt23_Sp_counted_ptr_inplaceI14postable_timerSaIS0_ELN9__gnu_cxx12_Lock_policyE2EE14_M_get_deleterERKSt9type_info
FNDA:0,_ZNSt23_Sp_counted_ptr_inplaceI14postable_timerSaIS0_ELN9__gnu_cxx12_Lock_policyE2EE14_M_get_deleterERKSt9type_info
FN:565,_ZNSt23_Sp_counted_ptr_inplaceI21waitableMessageSourceSaIS0_ELN9__gnu_cxx12_Lock_policyE2EE6_M_ptrEv
FNDA:0,_ZNSt23_Sp_counted_ptr_inplaceI21waitableMessageSourceSaIS0_ELN9__gnu_cxx12_Lock_policyE2EE6_M_ptrEv
FN:565,_ZNSt23_Sp_counted_ptr_inplaceI14waitable_timerSaIS0_ELN9__gnu_cxx12_Lock_policyE2EE6_M_ptrEv
FNDA:0,_ZNSt23_Sp_counted_ptr_inplaceI14waitable_timerSaIS0_ELN9__gnu_cxx12_Lock_policyE2EE6_M_ptrEv
FN:565,_ZNSt23_Sp_counted_ptr_inplaceI4wfmoSaIS0_ELN9__gnu_cxx12_Lock_policyE2EE6_M_ptrEv
FNDA:0,_ZNSt23_Sp_counted_ptr_inplaceI4wfmoSaIS0_ELN9__gnu_cxx12_Lock_policyE2EE6_M_ptrEv
FN:565,_ZNSt23_Sp_counted_ptr_inplaceI14postable_timerSaIS0_ELN9__gnu_cxx12_Lock_policyE2EE6_M_ptrEv
FNDA:0,_ZNSt23_Sp_counted_ptr_inplaceI14postable_timerSaIS0_ELN9__gnu_cxx12_Lock_policyE2EE6_M_ptrEv
FN:587,_ZNSt14__shared_countILN9__gnu_cxx12_Lock_policyE2EEC2Ev
FNDA:0,_ZNSt14__shared_countILN9__gnu_cxx12_Lock_policyE2EEC2Ev
FN:643,_ZNSt14__shared_countILN9__gnu_cxx12_Lock_policyE2EEC2I14postable_timerSaIS4_EJRKi9timerTypeNSt7__cxx1112basic_stringIcSt11char_traitsIcESaIcEEERSt10shared_ptrI22IWaitableMessageSourceERSF_I7ILoggerEEEERPT_St20_Sp_alloc_shared_tagIT0_EDpOT1_
FNDA:0,_ZNSt14__shared_countILN9__gnu_cxx12_Lock_policyE2EEC2I14postable_timerSaIS4_EJRKi9timerTypeNSt7__cxx1112basic_stringIcSt11char_traitsIcESaIcEEERSt10shared_ptrI22IWaitableMessageSourceERSF_I7ILoggerEEEERPT_St20_Sp_alloc_shared_tagIT0_EDpOT1_
FN:643,_ZNSt14__shared_countILN9__gnu_cxx12_Lock_policyE2EEC2I4wfmoSaIS4_EJRSt3mapIiiSt4lessIiESaISt4pairIKiiEEEEEERPT_St20_Sp_alloc_shared_tagIT0_EDpOT1_
FNDA:0,_ZNSt14__shared_countILN9__gnu_cxx12_Lock_policyE2EEC2I4wfmoSaIS4_EJRSt3mapIiiSt4lessIiESaISt4pairIKiiEEEEEERPT_St20_Sp_alloc_shared_tagIT0_EDpOT1_
FN:643,_ZNSt14__shared_countILN9__gnu_cxx12_Lock_policyE2EEC2I14waitable_timerSaIS4_EJRKi9timerTypeRSt10shared_ptrI7ILoggerEEEERPT_St20_Sp_alloc_shared_tagIT0_EDpOT1_
FNDA:0,_ZNSt14__shared_countILN9__gnu_cxx12_Lock_policyE2EEC2I14waitable_timerSaIS4_EJRKi9timerTypeRSt10shared_ptrI7ILoggerEEEERPT_St20_Sp_alloc_shared_tagIT0_EDpOT1_
FN:643,_ZNSt14__shared_countILN9__gnu_cxx12_Lock_policyE2EEC2I21waitableMessageSourceSaIS4_EJRNSt7__cxx1112basic_stringIcSt11char_traitsIcESaIcEEERSt10shared_ptrI7ILoggerEEEERPT_St20_Sp_alloc_shared_tagIT0_EDpOT1_
FNDA:0,_ZNSt14__shared_countILN9__gnu_cxx12_Lock_policyE2EEC2I21waitableMessageSourceSaIS4_EJRNSt7__cxx1112basic_stringIcSt11char_traitsIcESaIcEEERSt10shared_ptrI7ILoggerEEEERPT_St20_Sp_alloc_shared_tagIT0_EDpOT1_
FN:702,_ZNSt14__shared_countILN9__gnu_cxx12_Lock_policyE2EED2Ev
FNDA:0,_ZNSt14__shared_countILN9__gnu_cxx12_Lock_policyE2EED2Ev
FN:708,_ZNSt14__shared_countILN9__gnu_cxx12_Lock_policyE2EEC2ERKS2_
FNDA:0,_ZNSt14__shared_countILN9__gnu_cxx12_Lock_policyE2EEC2ERKS2_
FN:716,_ZNSt14__shared_countILN9__gnu_cxx12_Lock_policyE2EEaSERKS2_
FNDA:0,_ZNSt14__shared_countILN9__gnu_cxx12_Lock_policyE2EEaSERKS2_
FN:731,_ZNSt14__shared_countILN9__gnu_cxx12_Lock_policyE2EE7_M_swapERS2_
FNDA:0,_ZNSt14__shared_countILN9__gnu_cxx12_Lock_policyE2EE7_M_swapERS2_
FN:984,_ZNKSt19__shared_ptr_accessI7ILoggerLN9__gnu_cxx12_Lock_policyE2ELb0ELb0EEptEv
FNDA:0,_ZNKSt19__shared_ptr_accessI7ILoggerLN9__gnu_cxx12_Lock_policyE2ELb0ELb0EEptEv
FN:984,_ZNKSt19__shared_ptr_accessI22IWaitableMessageSourceLN9__gnu_cxx12_Lock_policyE2ELb0ELb0EEptEv
FNDA:0,_ZNKSt19__shared_ptr_accessI22IWaitableMessageSourceLN9__gnu_cxx12_Lock_policyE2ELb0ELb0EEptEv
FN:984,_ZNKSt19__shared_ptr_accessI14waitable_timerLN9__gnu_cxx12_Lock_policyE2ELb0ELb0EEptEv
FNDA:0,_ZNKSt19__shared_ptr_accessI14waitable_timerLN9__gnu_cxx12_Lock_policyE2ELb0ELb0EEptEv
FN:984,_ZNKSt19__shared_ptr_accessI14waitable_eventLN9__gnu_cxx12_Lock_policyE2ELb0ELb0EEptEv
FNDA:0,_ZNKSt19__shared_ptr_accessI14waitable_eventLN9__gnu_cxx12_Lock_policyE2ELb0ELb0EEptEv
FN:984,_ZNKSt19__shared_ptr_accessI4wfmoLN9__gnu_cxx12_Lock_policyE2ELb0ELb0EEptEv
FNDA:0,_ZNKSt19__shared_ptr_accessI4wfmoLN9__gnu_cxx12_Lock_policyE2ELb0ELb0EEptEv
FN:984,_ZNKSt19__shared_ptr_accessI14postable_timerLN9__gnu_cxx12_Lock_policyE2ELb0ELb0EEptEv
FNDA:0,_ZNKSt19__shared_ptr_accessI14postable_timerLN9__gnu_cxx12_Lock_policyE2ELb0ELb0EEptEv
FN:992,_ZNKSt19__shared_ptr_accessI4wfmoLN9__gnu_cxx12_Lock_policyE2ELb0ELb0EE6_M_getEv
FNDA:0,_ZNKSt19__shared_ptr_accessI4wfmoLN9__gnu_cxx12_Lock_policyE2ELb0ELb0EE6_M_getEv
FN:992,_ZNKSt19__shared_ptr_accessI14postable_timerLN9__gnu_cxx12_Lock_policyE2ELb0ELb0EE6_M_getEv
FNDA:0,_ZNKSt19__shared_ptr_accessI14postable_timerLN9__gnu_cxx12_Lock_policyE2ELb0ELb0EE6_M_getEv
FN:992,_ZNKSt19__shared_ptr_accessI14waitable_eventLN9__gnu_cxx12_Lock_policyE2ELb0ELb0EE6_M_getEv
FNDA:0,_ZNKSt19__shared_ptr_accessI14waitable_eventLN9__gnu_cxx12_Lock_policyE2ELb0ELb0EE6_M_getEv
FN:992,_ZNKSt19__shared_ptr_accessI14waitable_timerLN9__gnu_cxx12_Lock_policyE2ELb0ELb0EE6_M_getEv
FNDA:0,_ZNKSt19__shared_ptr_accessI14waitable_timerLN9__gnu_cxx12_Lock_policyE2ELb0ELb0EE6_M_getEv
FN:992,_ZNKSt19__shared_ptr_accessI22IWaitableMessageSourceLN9__gnu_cxx12_Lock_policyE2ELb0ELb0EE6_M_getEv
FNDA:0,_ZNKSt19__shared_ptr_accessI22IWaitableMessageSourceLN9__gnu_cxx12_Lock_policyE2ELb0ELb0EE6_M_getEv
FN:992,_ZNKSt19__shared_ptr_accessI7ILoggerLN9__gnu_cxx12_Lock_policyE2ELb0ELb0EE6_M_getEv
FNDA:0,_ZNKSt19__shared_ptr_accessI7ILoggerLN9__gnu_cxx12_Lock_policyE2ELb0ELb0EE6_M_getEv
FN:1092,_ZNSt12__shared_ptrI22IWaitableMessageSourceLN9__gnu_cxx12_Lock_policyE2EEC2Ev
FNDA:1,_ZNSt12__shared_ptrI22IWaitableMessageSourceLN9__gnu_cxx12_Lock_policyE2EEC2Ev
FN:1092,_ZNSt12__shared_ptrI14waitable_eventLN9__gnu_cxx12_Lock_policyE2EEC2Ev
FNDA:0,_ZNSt12__shared_ptrI14waitable_eventLN9__gnu_cxx12_Lock_policyE2EEC2Ev
FN:1092,_ZNSt12__shared_ptrI7ILoggerLN9__gnu_cxx12_Lock_policyE2EEC2Ev
FNDA:0,_ZNSt12__shared_ptrI7ILoggerLN9__gnu_cxx12_Lock_policyE2EEC2Ev
FN:1092,_ZNSt12__shared_ptrI14waitable_timerLN9__gnu_cxx12_Lock_policyE2EEC2Ev
FNDA:1,_ZNSt12__shared_ptrI14waitable_timerLN9__gnu_cxx12_Lock_policyE2EEC2Ev
FN:1092,_ZNSt12__shared_ptrI14postable_timerLN9__gnu_cxx12_Lock_policyE2EEC2Ev
FNDA:1,_ZNSt12__shared_ptrI14postable_timerLN9__gnu_cxx12_Lock_policyE2EEC2Ev
FN:1152,_ZNSt12__shared_ptrI7ILoggerLN9__gnu_cxx12_Lock_policyE2EEC2ERKS3_
FNDA:0,_ZNSt12__shared_ptrI7ILoggerLN9__gnu_cxx12_Lock_policyE2EEC2ERKS3_
FN:1152,_ZNSt12__shared_ptrI22IWaitableMessageSourceLN9__gnu_cxx12_Lock_policyE2EEC2ERKS3_
FNDA:0,_ZNSt12__shared_ptrI22IWaitableMessageSourceLN9__gnu_cxx12_Lock_policyE2EEC2ERKS3_
FN:1153,_ZNSt12__shared_ptrI7ILoggerLN9__gnu_cxx12_Lock_policyE2EEaSERKS3_
FNDA:0,_ZNSt12__shared_ptrI7ILoggerLN9__gnu_cxx12_Lock_policyE2EEaSERKS3_
FN:1153,_ZNSt12__shared_ptrI14waitable_eventLN9__gnu_cxx12_Lock_policyE2EEaSERKS3_
FNDA:0,_ZNSt12__shared_ptrI14waitable_eventLN9__gnu_cxx12_Lock_policyE2EEaSERKS3_
FN:1154,_ZNSt12__shared_ptrI14postable_timerLN9__gnu_cxx12_Lock_policyE2EED2Ev
FNDA:1,_ZNSt12__shared_ptrI14postable_timerLN9__gnu_cxx12_Lock_policyE2EED2Ev
FN:1154,_ZNSt12__shared_ptrI21waitableMessageSourceLN9__gnu_cxx12_Lock_policyE2EED2Ev
FNDA:0,_ZNSt12__shared_ptrI21waitableMessageSourceLN9__gnu_cxx12_Lock_policyE2EED2Ev
FN:1154,_ZNSt12__shared_ptrI4wfmoLN9__gnu_cxx12_Lock_policyE2EED2Ev
FNDA:0,_ZNSt12__shared_ptrI4wfmoLN9__gnu_cxx12_Lock_policyE2EED2Ev
FN:1154,_ZNSt12__shared_ptrI14waitable_timerLN9__gnu_cxx12_Lock_policyE2EED2Ev
FNDA:1,_ZNSt12__shared_ptrI14waitable_timerLN9__gnu_cxx12_Lock_policyE2EED2Ev
FN:1154,_ZNSt12__shared_ptrI22IWaitableMessageSourceLN9__gnu_cxx12_Lock_policyE2EED2Ev
FNDA:1,_ZNSt12__shared_ptrI22IWaitableMessageSourceLN9__gnu_cxx12_Lock_policyE2EED2Ev
FN:1154,_ZNSt12__shared_ptrI14waitable_eventLN9__gnu_cxx12_Lock_policyE2EED2Ev
FNDA:0,_ZNSt12__shared_ptrI14waitable_eventLN9__gnu_cxx12_Lock_policyE2EED2Ev
FN:1154,_ZNSt12__shared_ptrI7ILoggerLN9__gnu_cxx12_Lock_policyE2EED2Ev
FNDA:0,_ZNSt12__shared_ptrI7ILoggerLN9__gnu_cxx12_Lock_policyE2EED2Ev
FN:1161,_ZNSt12__shared_ptrI14waitable_timerLN9__gnu_cxx12_Lock_policyE2EEC2EOS3_
FNDA:0,_ZNSt12__shared_ptrI14waitable_timerLN9__gnu_cxx12_Lock_policyE2EEC2EOS3_
FN:1161,_ZNSt12__shared_ptrI14postable_timerLN9__gnu_cxx12_Lock_policyE2EEC2EOS3_
FNDA:0,_ZNSt12__shared_ptrI14postable_timerLN9__gnu_cxx12_Lock_policyE2EEC2EOS3_
FN:1169,_ZNSt12__shared_ptrI22IWaitableMessageSourceLN9__gnu_cxx12_Lock_policyE2EEC2I21waitableMessageSourcevEEOS_IT_LS2_2EE
FNDA:0,_ZNSt12__shared_ptrI22IWaitableMessageSourceLN9__gnu_cxx12_Lock_policyE2EEC2I21waitableMessageSourcevEEOS_IT_LS2_2EE
FN:1248,_ZNSt12__shared_ptrI14postable_timerLN9__gnu_cxx12_Lock_policyE2EEaSEOS3_
FNDA:0,_ZNSt12__shared_ptrI14postable_timerLN9__gnu_cxx12_Lock_policyE2EEaSEOS3_
FN:1248,_ZNSt12__shared_ptrI14waitable_timerLN9__gnu_cxx12_Lock_policyE2EEaSEOS3_
FNDA:0,_ZNSt12__shared_ptrI14waitable_timerLN9__gnu_cxx12_Lock_policyE2EEaSEOS3_
FN:1256,_ZNSt12__shared_ptrI22IWaitableMessageSourceLN9__gnu_cxx12_Lock_policyE2EEaSI21waitableMessageSourceEENSt9enable_ifIXsrSt20__sp_compatible_withIPT_PS0_E5valueERS3_E4typeEOS_IS8_LS2_2EE
FNDA:0,_ZNSt12__shared_ptrI22IWaitableMessageSourceLN9__gnu_cxx12_Lock_policyE2EEaSI21waitableMessageSourceEENSt9enable_ifIXsrSt20__sp_compatible_withIPT_PS0_E5valueERS3_E4typeEOS_IS8_LS2_2EE
FN:1295,_ZNKSt12__shared_ptrI14waitable_timerLN9__gnu_cxx12_Lock_policyE2EE3getEv
FNDA:0,_ZNKSt12__shared_ptrI14waitable_timerLN9__gnu_cxx12_Lock_policyE2EE3getEv
FN:1295,_ZNKSt12__shared_ptrI14waitable_eventLN9__gnu_cxx12_Lock_policyE2EE3getEv
FNDA:0,_ZNKSt12__shared_ptrI14waitable_eventLN9__gnu_cxx12_Lock_policyE2EE3getEv
FN:1295,_ZNKSt12__shared_ptrI4wfmoLN9__gnu_cxx12_Lock_policyE2EE3getEv
FNDA:0,_ZNKSt12__shared_ptrI4wfmoLN9__gnu_cxx12_Lock_policyE2EE3getEv
FN:1295,_ZNKSt12__shared_ptrI14postable_timerLN9__gnu_cxx12_Lock_policyE2EE3getEv
FNDA:0,_ZNKSt12__shared_ptrI14postable_timerLN9__gnu_cxx12_Lock_policyE2EE3getEv
FN:1295,_ZNKSt12__shared_ptrI22IWaitableMessageSourceLN9__gnu_cxx12_Lock_policyE2EE3getEv
FNDA:0,_ZNKSt12__shared_ptrI22IWaitableMessageSourceLN9__gnu_cxx12_Lock_policyE2EE3getEv
FN:1295,_ZNKSt12__shared_ptrI7ILoggerLN9__gnu_cxx12_Lock_policyE2EE3getEv
FNDA:0,_ZNKSt12__shared_ptrI7ILoggerLN9__gnu_cxx12_Lock_policyE2EE3getEv
FN:1314,_ZNSt12__shared_ptrI14waitable_timerLN9__gnu_cxx12_Lock_policyE2EE4swapERS3_
FNDA:0,_ZNSt12__shared_ptrI14waitable_timerLN9__gnu_cxx12_Lock_policyE2EE4swapERS3_
FN:1314,_ZNSt12__shared_ptrI14postable_timerLN9__gnu_cxx12_Lock_policyE2EE4swapERS3_
FNDA:0,_ZNSt12__shared_ptrI14postable_timerLN9__gnu_cxx12_Lock_policyE2EE4swapERS3_
FN:1314,_ZNSt12__shared_ptrI22IWaitableMessageSourceLN9__gnu_cxx12_Lock_policyE2EE4swapERS3_
FNDA:0,_ZNSt12__shared_ptrI22IWaitableMessageSourceLN9__gnu_cxx12_Lock_policyE2EE4swapERS3_
FN:1341,_ZNSt12__shared_ptrI14waitable_timerLN9__gnu_cxx12_Lock_policyE2EEC2ISaIS0_EJRKi9timerTypeRSt10shared_ptrI7ILoggerEEEESt20_Sp_alloc_shared_tagIT_EDpOT0_
FNDA:0,_ZNSt12__shared_ptrI14waitable_timerLN9__gnu_cxx12_Lock_policyE2EEC2ISaIS0_EJRKi9timerTypeRSt10shared_ptrI7ILoggerEEEESt20_Sp_alloc_shared_tagIT_EDpOT0_
FN:1341,_ZNSt12__shared_ptrI21waitableMessageSourceLN9__gnu_cxx12_Lock_policyE2EEC2ISaIS0_EJRNSt7__cxx1112basic_stringIcSt11char_traitsIcESaIcEEERSt10shared_ptrI7ILoggerEEEESt20_Sp_alloc_shared_tagIT_EDpOT0_
FNDA:0,_ZNSt12__shared_ptrI21waitableMessageSourceLN9__gnu_cxx12_Lock_policyE2EEC2ISaIS0_EJRNSt7__cxx1112basic_stringIcSt11char_traitsIcESaIcEEERSt10shared_ptrI7ILoggerEEEESt20_Sp_alloc_shared_tagIT_EDpOT0_
FN:1341,_ZNSt12__shared_ptrI4wfmoLN9__gnu_cxx12_Lock_policyE2EEC2ISaIS0_EJRSt3mapIiiSt4lessIiESaISt4pairIKiiEEEEEESt20_Sp_alloc_shared_tagIT_EDpOT0_
FNDA:0,_ZNSt12__shared_ptrI4wfmoLN9__gnu_cxx12_Lock_policyE2EEC2ISaIS0_EJRSt3mapIiiSt4lessIiESaISt4pairIKiiEEEEEESt20_Sp_alloc_shared_tagIT_EDpOT0_
FN:1341,_ZNSt12__shared_ptrI14postable_timerLN9__gnu_cxx12_Lock_policyE2EEC2ISaIS0_EJRKi9timerTypeNSt7__cxx1112basic_stringIcSt11char_traitsIcESaIcEEERSt10shared_ptrI22IWaitableMessageSourceERSF_I7ILoggerEEEESt20_Sp_alloc_shared_tagIT_EDpOT0_
FNDA:0,_ZNSt12__shared_ptrI14postable_timerLN9__gnu_cxx12_Lock_policyE2EEC2ISaIS0_EJRKi9timerTypeNSt7__cxx1112basic_stringIcSt11char_traitsIcESaIcEEERSt10shared_ptrI22IWaitableMessageSourceERSF_I7ILoggerEEEESt20_Sp_alloc_shared_tagIT_EDpOT0_
FN:1386,_ZNSt12__shared_ptrI14postable_timerLN9__gnu_cxx12_Lock_policyE2EE31_M_enable_shared_from_this_withIS0_S0_EENSt9enable_ifIXntsrNS3_15__has_esft_baseIT0_vEE5valueEvE4typeEPT_
FNDA:0,_ZNSt12__shared_ptrI14postable_timerLN9__gnu_cxx12_Lock_policyE2EE31_M_enable_shared_from_this_withIS0_S0_EENSt9enable_ifIXntsrNS3_15__has_esft_baseIT0_vEE5valueEvE4typeEPT_
FN:1386,_ZNSt12__shared_ptrI4wfmoLN9__gnu_cxx12_Lock_policyE2EE31_M_enable_shared_from_this_withIS0_S0_EENSt9enable_ifIXntsrNS3_15__has_esft_baseIT0_vEE5valueEvE4typeEPT_
FNDA:0,_ZNSt12__shared_ptrI4wfmoLN9__gnu_cxx12_Lock_policyE2EE31_M_enable_shared_from_this_withIS0_S0_EENSt9enable_ifIXntsrNS3_15__has_esft_baseIT0_vEE5valueEvE4typeEPT_
FN:1386,_ZNSt12__shared_ptrI21waitableMessageSourceLN9__gnu_cxx12_Lock_policyE2EE31_M_enable_shared_from_this_withIS0_S0_EENSt9enable_ifIXntsrNS3_15__has_esft_baseIT0_vEE5valueEvE4typeEPT_
FNDA:0,_ZNSt12__shared_ptrI21waitableMessageSourceLN9__gnu_cxx12_Lock_policyE2EE31_M_enable_shared_from_this_withIS0_S0_EENSt9enable_ifIXntsrNS3_15__has_esft_baseIT0_vEE5valueEvE4typeEPT_
FN:1386,_ZNSt12__shared_ptrI14waitable_timerLN9__gnu_cxx12_Lock_policyE2EE31_M_enable_shared_from_this_withIS0_S0_EENSt9enable_ifIXntsrNS3_15__has_esft_baseIT0_vEE5valueEvE4typeEPT_
FNDA:0,_ZNSt12__shared_ptrI14waitable_timerLN9__gnu_cxx12_Lock_policyE2EE31_M_enable_shared_from_this_withIS0_S0_EENSt9enable_ifIXntsrNS3_15__has_esft_baseIT0_vEE5valueEvE4typeEPT_
DA:126,0
DA:127,0
DA:130,0
DA:131,0
DA:130,0
DA:131,0
DA:140,0
DA:141,0
DA:147,0
DA:148,0
DA:161,0
DA:165,0
DA:168,0
DA:180,0
DA:181,0
DA:184,0
DA:187,0
DA:385,0
DA:385,0
DA:385,0
DA:385,0
DA:389,0
DA:389,0
DA:389,0
DA:389,0
DA:479,0
DA:482,0
DA:502,0
DA:502,0
DA:502,0
DA:502,0
DA:504,0
DA:504,0
DA:504,0
DA:504,0
DA:514,0
DA:515,0
DA:519,0
DA:521,0
DA:514,0
DA:515,0
DA:519,0
DA:521,0
DA:514,0
DA:515,0
DA:519,0
DA:521,0
DA:514,0
DA:515,0
DA:519,0
DA:521,0
DA:523,0
DA:523,0
DA:523,0
DA:523,0
DA:523,0
DA:523,0
DA:523,0
DA:523,0
DA:526,0
DA:528,0
DA:529,0
DA:526,0
DA:528,0
DA:529,0
DA:526,0
DA:528,0
DA:529,0
DA:526,0
DA:528,0
DA:529,0
DA:533,0
DA:535,0
DA:536,0
DA:537,0
DA:538,0
DA:533,0
DA:535,0
DA:536,0
DA:537,0
DA:538,0
DA:533,0
DA:535,0
DA:536,0
DA:537,0
DA:538,0
DA:533,0
DA:535,0
DA:536,0
DA:537,0
DA:538,0
DA:546,0
DA:548,0
DA:553,0
DA:554,0
DA:556,0
DA:561,0
DA:562,0
DA:546,0
DA:548,0
DA:553,0
DA:554,0
DA:556,0
DA:561,0
DA:562,0
DA:546,0
DA:548,0
DA:553,0
DA:554,0
DA:556,0
DA:561,0
DA:562,0
DA:546,0
DA:548,0
DA:553,0
DA:554,0
DA:556,0
DA:561,0
DA:562,0
DA:565,0
DA:565,0
DA:565,0
DA:565,0
DA:587,0
DA:588,0
DA:643,0
DA:647,0
DA:648,0
DA:649,0
DA:650,0
DA:651,0
DA:652,0
DA:653,0
DA:654,0
DA:655,0
DA:643,0
DA:647,0
DA:648,0
DA:649,0
DA:650,0
DA:651,0
DA:652,0
DA:653,0
DA:654,0
DA:655,0
DA:643,0
DA:647,0
DA:648,0
DA:649,0
DA:650,0
DA:651,0
DA:652,0
DA:653,0
DA:654,0
DA:655,0
DA:643,0
DA:647,0
DA:648,0
DA:649,0
DA:650,0
DA:651,0
DA:652,0
DA:653,0
DA:654,0
DA:655,0
DA:702,0
DA:704,0
DA:705,0
DA:706,0
DA:708,0
DA:709,0
DA:711,0
DA:712,0
DA:713,0
DA:716,0
DA:718,0
DA:719,0
DA:721,0
DA:722,0
DA:723,0
DA:724,0
DA:725,0
DA:727,0
DA:731,0
DA:733,0
DA:734,0
DA:735,0
DA:736,0
DA:984,0
DA:987,0
DA:984,0
DA:987,0
DA:984,0
DA:987,0
DA:984,0
DA:987,0
DA:984,0
DA:987,0
DA:984,0
DA:987,0
DA:992,0
DA:993,0
DA:992,0
DA:993,0
DA:992,0
DA:993,0
DA:992,0
DA:993,0
DA:992,0
DA:993,0
DA:992,0
DA:993,0
DA:1092,1
DA:1093,1
DA:1094,1
DA:1092,0
DA:1093,0
DA:1094,0
DA:1092,0
DA:1093,0
DA:1094,0
DA:1092,1
DA:1093,1
DA:1094,1
DA:1092,1
DA:1093,1
DA:1094,1
DA:1152,0
DA:1152,0
DA:1153,0
DA:1153,0
DA:1154,0
DA:1154,0
DA:1154,1
DA:1154,0
DA:1154,0
DA:1154,1
DA:1154,1
DA:1161,0
DA:1162,0
DA:1164,0
DA:1165,0
DA:1166,0
DA:1161,0
DA:1162,0
DA:1164,0
DA:1165,0
DA:1166,0
DA:1169,0
DA:1170,0
DA:1172,0
DA:1173,0
DA:1174,0
DA:1248,0
DA:1250,0
DA:1251,0
DA:1248,0
DA:1250,0
DA:1251,0
DA:1256,0
DA:1258,0
DA:1259,0
DA:1295,0
DA:1296,0
DA:1295,0
DA:1296,0
DA:1295,0
DA:1296,0
DA:1295,0
DA:1296,0
DA:1295,0
DA:1296,0
DA:1295,0
DA:1296,0
DA:1314,0
DA:1316,0
DA:1317,0
DA:1318,0
DA:1314,0
DA:1316,0
DA:1317,0
DA:1318,0
DA:1314,0
DA:1316,0
DA:1317,0
DA:1318,0
DA:1341,0
DA:1342,0
DA:1343,0
DA:1341,0
DA:1342,0
DA:1343,0
DA:1341,0
DA:1342,0
DA:1343,0
DA:1341,0
DA:1342,0
DA:1343,0
DA:1386,0
DA:1387,0
DA:1386,0
DA:1387,0
DA:1386,0
DA:1387,0
DA:1386,0
DA:1387,0
end_of_record
SF:/usr/include/c++/11/bits/unique_ptr.h
FN:79,_ZNKSt14default_deleteI15waitable_threadEclEPS0_
FNDA:0,_ZNKSt14default_deleteI15waitable_threadEclEPS0_
FN:154,_ZNSt15__uniq_ptr_implI15waitable_threadSt14default_deleteIS0_EEC2Ev
FNDA:0,_ZNSt15__uniq_ptr_implI15waitable_threadSt14default_deleteIS0_EEC2Ev
FN:155,_ZNSt15__uniq_ptr_implI15waitable_threadSt14default_deleteIS0_EEC2EPS0_
FNDA:0,_ZNSt15__uniq_ptr_implI15waitable_threadSt14default_deleteIS0_EEC2EPS0_
FN:165,_ZNSt15__uniq_ptr_implI15waitable_threadSt14default_deleteIS0_EEaSEOS3_
FNDA:0,_ZNSt15__uniq_ptr_implI15waitable_threadSt14default_deleteIS0_EEaSEOS3_
FN:172,_ZNSt15__uniq_ptr_implI15waitable_threadSt14default_deleteIS0_EE6_M_ptrEv
FNDA:0,_ZNSt15__uniq_ptr_implI15waitable_threadSt14default_deleteIS0_EE6_M_ptrEv
FN:173,_ZNKSt15__uniq_ptr_implI15waitable_threadSt14default_deleteIS0_EE6_M_ptrEv
FNDA:0,_ZNKSt15__uniq_ptr_implI15waitable_threadSt14default_deleteIS0_EE6_M_ptrEv
FN:174,_ZNSt15__uniq_ptr_implI15waitable_threadSt14default_deleteIS0_EE10_M_deleterEv
FNDA:0,_ZNSt15__uniq_ptr_implI15waitable_threadSt14default_deleteIS0_EE10_M_deleterEv
FN:177,_ZNSt15__uniq_ptr_implI15waitable_threadSt14default_deleteIS0_EE5resetEPS0_
FNDA:0,_ZNSt15__uniq_ptr_implI15waitable_threadSt14default_deleteIS0_EE5resetEPS0_
FN:185,_ZNSt15__uniq_ptr_implI15waitable_threadSt14default_deleteIS0_EE7releaseEv
FNDA:0,_ZNSt15__uniq_ptr_implI15waitable_threadSt14default_deleteIS0_EE7releaseEv
FN:212,_ZNSt15__uniq_ptr_dataI15waitable_threadSt14default_deleteIS0_ELb1ELb1EEaSEOS3_
FNDA:0,_ZNSt15__uniq_ptr_dataI15waitable_threadSt14default_deleteIS0_ELb1ELb1EEaSEOS3_
FN:269,_ZNSt10unique_ptrI15waitable_threadSt14default_deleteIS0_EEC2IS2_vEEv
FNDA:0,_ZNSt10unique_ptrI15waitable_threadSt14default_deleteIS0_EEC2IS2_vEEv
FN:281,_ZNSt10unique_ptrI15waitable_threadSt14default_deleteIS0_EEC2IS2_vEEPS0_
FNDA:0,_ZNSt10unique_ptrI15waitable_threadSt14default_deleteIS0_EEC2IS2_vEEPS0_
FN:355,_ZNSt10unique_ptrI15waitable_threadSt14default_deleteIS0_EED2Ev
FNDA:0,_ZNSt10unique_ptrI15waitable_threadSt14default_deleteIS0_EED2Ev
FN:371,_ZNSt10unique_ptrI15waitable_threadSt14default_deleteIS0_EEaSEOS3_
FNDA:0,_ZNSt10unique_ptrI15waitable_threadSt14default_deleteIS0_EEaSEOS3_
FN:413,_ZNKSt10unique_ptrI15waitable_threadSt14default_deleteIS0_EEptEv
FNDA:0,_ZNKSt10unique_ptrI15waitable_threadSt14default_deleteIS0_EEptEv
FN:421,_ZNKSt10unique_ptrI15waitable_threadSt14default_deleteIS0_EE3getEv
FNDA:0,_ZNKSt10unique_ptrI15waitable_threadSt14default_deleteIS0_EE3getEv
FN:426,_ZNSt10unique_ptrI15waitable_threadSt14default_deleteIS0_EE11get_deleterEv
FNDA:0,_ZNSt10unique_ptrI15waitable_threadSt14default_deleteIS0_EE11get_deleterEv
FN:961,_ZSt11make_uniqueI15waitable_threadJRNSt7__cxx1112basic_stringIcSt11char_traitsIcESaIcEEERKiRSt8functionIFviS7_EEEENSt9_MakeUniqIT_E15__single_objectEDpOT0_
FNDA:0,_ZSt11make_uniqueI15waitable_threadJRNSt7__cxx1112basic_stringIcSt11char_traitsIcESaIcEEERKiRSt8functionIFviS7_EEEENSt9_MakeUniqIT_E15__single_objectEDpOT0_
DA:79,0
DA:85,0
DA:86,0
DA:154,0
DA:155,0
DA:165,0
DA:167,0
DA:168,0
DA:169,0
DA:172,0
DA:173,0
DA:174,0
DA:177,0
DA:179,0
DA:180,0
DA:181,0
DA:182,0
DA:183,0
DA:185,0
DA:187,0
DA:188,0
DA:189,0
DA:212,0
DA:269,0
DA:270,0
DA:271,0
DA:281,0
DA:282,0
DA:283,0
DA:355,0
DA:359,0
DA:360,0
DA:361,0
DA:362,0
DA:363,0
DA:371,0
DA:413,0
DA:416,0
DA:421,0
DA:422,0
DA:426,0
DA:427,0
DA:961,0
DA:962,0
end_of_record
SF:/usr/include/c++/11/bits/move.h
FN:49,_ZSt11__addressofISaISt23_Sp_counted_ptr_inplaceI14postable_timerSaIS1_ELN9__gnu_cxx12_Lock_policyE2EEEEPT_RS7_
FNDA:0,_ZSt11__addressofISaISt23_Sp_counted_ptr_inplaceI14postable_timerSaIS1_ELN9__gnu_cxx12_Lock_policyE2EEEEPT_RS7_
FN:49,_ZSt11__addressofISaISt23_Sp_counted_ptr_inplaceI4wfmoSaIS1_ELN9__gnu_cxx12_Lock_policyE2EEEEPT_RS7_
FNDA:0,_ZSt11__addressofISaISt23_Sp_counted_ptr_inplaceI4wfmoSaIS1_ELN9__gnu_cxx12_Lock_policyE2EEEEPT_RS7_
FN:49,_ZSt11__addressofISaISt23_Sp_counted_ptr_inplaceI14waitable_timerSaIS1_ELN9__gnu_cxx12_Lock_policyE2EEEEPT_RS7_
FNDA:0,_ZSt11__addressofISaISt23_Sp_counted_ptr_inplaceI14waitable_timerSaIS1_ELN9__gnu_cxx12_Lock_policyE2EEEEPT_RS7_
FN:49,_ZSt11__addressofISaISt23_Sp_counted_ptr_inplaceI21waitableMessageSourceSaIS1_ELN9__gnu_cxx12_Lock_policyE2EEEEPT_RS7_
FNDA:0,_ZSt11__addressofISaISt23_Sp_counted_ptr_inplaceI21waitableMessageSourceSaIS1_ELN9__gnu_cxx12_Lock_policyE2EEEEPT_RS7_
FN:49,_ZSt11__addressofIKcEPT_RS1_
FNDA:0,_ZSt11__addressofIKcEPT_RS1_
FN:49,_ZSt11__addressofIcEPT_RS0_
FNDA:0,_ZSt11__addressofIcEPT_RS0_
FN:49,_ZSt11__addressofINSt7__cxx1112basic_stringIcSt11char_traitsIcESaIcEEEEPT_RS6_
FNDA:20,_ZSt11__addressofINSt7__cxx1112basic_stringIcSt11char_traitsIcESaIcEEEEPT_RS6_
FN:77,_ZSt7forwardISt5_BindIFM9aspthreadFviRNSt7__cxx1112basic_stringIcSt11char_traitsIcESaIcEEEEPS1_St12_PlaceholderILi1EESC_ILi2EEEEEOT_RNSt16remove_referenceISH_E4typeE
FNDA:0,_ZSt7forwardISt5_BindIFM9aspthreadFviRNSt7__cxx1112basic_stringIcSt11char_traitsIcESaIcEEEEPS1_St12_PlaceholderILi1EESC_ILi2EEEEEOT_RNSt16remove_referenceISH_E4typeE
FN:77,_ZSt7forwardIRSt10shared_ptrI22IWaitableMessageSourceEEOT_RNSt16remove_referenceIS4_E4typeE
FNDA:0,_ZSt7forwardIRSt10shared_ptrI22IWaitableMessageSourceEEOT_RNSt16remove_referenceIS4_E4typeE
FN:77,_ZSt7forwardINSt7__cxx1112basic_stringIcSt11char_traitsIcESaIcEEEEOT_RNSt16remove_referenceIS6_E4typeE
FNDA:42,_ZSt7forwardINSt7__cxx1112basic_stringIcSt11char_traitsIcESaIcEEEEOT_RNSt16remove_referenceIS6_E4typeE
FN:77,_ZSt7forwardIRSt3mapIiiSt4lessIiESaISt4pairIKiiEEEEOT_RNSt16remove_referenceIS9_E4typeE
FNDA:0,_ZSt7forwardIRSt3mapIiiSt4lessIiESaISt4pairIKiiEEEEOT_RNSt16remove_referenceIS9_E4typeE
FN:77,_ZSt7forwardISt4pairIiiEEOT_RNSt16remove_referenceIS2_E4typeE
FNDA:0,_ZSt7forwardISt4pairIiiEEOT_RNSt16remove_referenceIS2_E4typeE
FN:77,_ZSt7forwardI9timerTypeEOT_RNSt16remove_referenceIS1_E4typeE
FNDA:0,_ZSt7forwardI9timerTypeEOT_RNSt16remove_referenceIS1_E4typeE
FN:77,_ZSt7forwardIRSt10shared_ptrI7ILoggerEEOT_RNSt16remove_referenceIS4_E4typeE
FNDA:0,_ZSt7forwardIRSt10shared_ptrI7ILoggerEEOT_RNSt16remove_referenceIS4_E4typeE
FN:77,_ZSt7forwardISt14default_deleteI15waitable_threadEEOT_RNSt16remove_referenceIS3_E4typeE
FNDA:0,_ZSt7forwardISt14default_deleteI15waitable_threadEEOT_RNSt16remove_referenceIS3_E4typeE
FN:77,_ZSt7forwardIRSt8functionIFviRNSt7__cxx1112basic_stringIcSt11char_traitsIcESaIcEEEEEEOT_RNSt16remove_referenceISB_E4typeE
FNDA:0,_ZSt7forwardIRSt8functionIFviRNSt7__cxx1112basic_stringIcSt11char_traitsIcESaIcEEEEEEOT_RNSt16remove_referenceISB_E4typeE
FN:77,_ZSt7forwardIRKiEOT_RNSt16remove_referenceIS2_E4typeE
FNDA:0,_ZSt7forwardIRKiEOT_RNSt16remove_referenceIS2_E4typeE
FN:77,_ZSt7forwardIRNSt7__cxx1112basic_stringIcSt11char_traitsIcESaIcEEEEOT_RNSt16remove_referenceIS7_E4typeE
FNDA:0,_ZSt7forwardIRNSt7__cxx1112basic_stringIcSt11char_traitsIcESaIcEEEEOT_RNSt16remove_referenceIS7_E4typeE
FN:77,_ZSt7forwardIOiEOT_RNSt16remove_referenceIS1_E4typeE
FNDA:0,_ZSt7forwardIOiEOT_RNSt16remove_referenceIS1_E4typeE
FN:77,_ZSt7forwardIRKSt12_PlaceholderILi2EEEOT_RNSt16remove_referenceIS4_E4typeE
FNDA:0,_ZSt7forwardIRKSt12_PlaceholderILi2EEEOT_RNSt16remove_referenceIS4_E4typeE
FN:77,_ZSt7forwardIRKSt12_PlaceholderILi1EEEOT_RNSt16remove_referenceIS4_E4typeE
FNDA:0,_ZSt7forwardIRKSt12_PlaceholderILi1EEEOT_RNSt16remove_referenceIS4_E4typeE
FN:77,_ZSt7forwardIP9aspthreadEOT_RNSt16remove_referenceIS2_E4typeE
FNDA:0,_ZSt7forwardIP9aspthreadEOT_RNSt16remove_referenceIS2_E4typeE
FN:77,_ZSt7forwardIM9aspthreadFviRNSt7__cxx1112basic_stringIcSt11char_traitsIcESaIcEEEEEOT_RNSt16remove_referenceISA_E4typeE
FNDA:0,_ZSt7forwardIM9aspthreadFviRNSt7__cxx1112basic_stringIcSt11char_traitsIcESaIcEEEEEOT_RNSt16remove_referenceISA_E4typeE
FN:77,_ZSt7forwardIbEOT_RNSt16remove_referenceIS0_E4typeE
FNDA:0,_ZSt7forwardIbEOT_RNSt16remove_referenceIS0_E4typeE
FN:77,_ZSt7forwardIiEOT_RNSt16remove_referenceIS0_E4typeE
FNDA:0,_ZSt7forwardIiEOT_RNSt16remove_referenceIS0_E4typeE
FN:77,_ZSt7forwardIRKSt4pairIKiiEEOT_RNSt16remove_referenceIS5_E4typeE
FNDA:0,_ZSt7forwardIRKSt4pairIKiiEEOT_RNSt16remove_referenceIS5_E4typeE
FN:77,_ZSt7forwardIRM9aspthreadFviRNSt7__cxx1112basic_stringIcSt11char_traitsIcESaIcEEEEEOT_RNSt16remove_referenceISB_E4typeE
FNDA:0,_ZSt7forwardIRM9aspthreadFviRNSt7__cxx1112basic_stringIcSt11char_traitsIcESaIcEEEEEOT_RNSt16remove_referenceISB_E4typeE
FN:77,_ZSt7forwardIRSt5_BindIFM9aspthreadFviRNSt7__cxx1112basic_stringIcSt11char_traitsIcESaIcEEEEPS1_St12_PlaceholderILi1EESC_ILi2EEEEEOT_RNSt16remove_referenceISI_E4typeE
FNDA:0,_ZSt7forwardIRSt5_BindIFM9aspthreadFviRNSt7__cxx1112basic_stringIcSt11char_traitsIcESaIcEEEEPS1_St12_PlaceholderILi1EESC_ILi2EEEEEOT_RNSt16remove_referenceISI_E4typeE
FN:77,_ZSt7forwardIRP9aspthreadEOT_RNSt16remove_referenceIS3_E4typeE
FNDA:0,_ZSt7forwardIRP9aspthreadEOT_RNSt16remove_referenceIS3_E4typeE
FN:77,_ZSt7forwardISt17_Rb_tree_iteratorISt4pairIKiiEEEOT_RNSt16remove_referenceIS5_E4typeE
FNDA:0,_ZSt7forwardISt17_Rb_tree_iteratorISt4pairIKiiEEEOT_RNSt16remove_referenceIS5_E4typeE
FN:77,_ZSt7forwardIRPSt18_Rb_tree_node_baseEOT_RNSt16remove_referenceIS3_E4typeE
FNDA:0,_ZSt7forwardIRPSt18_Rb_tree_node_baseEOT_RNSt16remove_referenceIS3_E4typeE
FN:77,_ZSt7forwardIRPSt13_Rb_tree_nodeISt4pairIKiiEEEOT_RNSt16remove_referenceIS7_E4typeE
FNDA:0,_ZSt7forwardIRPSt13_Rb_tree_nodeISt4pairIKiiEEEOT_RNSt16remove_referenceIS7_E4typeE
FN:77,_ZSt7forwardIRKSt5_BindIFM9aspthreadFviRNSt7__cxx1112basic_stringIcSt11char_traitsIcESaIcEEEEPS1_St12_PlaceholderILi1EESC_ILi2EEEEEOT_RNSt16remove_referenceISJ_E4typeE
FNDA:0,_ZSt7forwardIRKSt5_BindIFM9aspthreadFviRNSt7__cxx1112basic_stringIcSt11char_traitsIcESaIcEEEEPS1_St12_PlaceholderILi1EESC_ILi2EEEEEOT_RNSt16remove_referenceISJ_E4typeE
FN:104,_ZSt4moveIRSt12__shared_ptrI14waitable_timerLN9__gnu_cxx12_Lock_policyE2EEEONSt16remove_referenceIT_E4typeEOS7_
FNDA:0,_ZSt4moveIRSt12__shared_ptrI14waitable_timerLN9__gnu_cxx12_Lock_policyE2EEEONSt16remove_referenceIT_E4typeEOS7_
FN:104,_ZSt4moveIRSaIcEEONSt16remove_referenceIT_E4typeEOS3_
FNDA:0,_ZSt4moveIRSaIcEEONSt16remove_referenceIT_E4typeEOS3_
FN:104,_ZSt4moveIRNSt7__cxx1112basic_stringIcSt11char_traitsIcESaIcEEEEONSt16remove_referenceIT_E4typeEOS8_
FNDA:44,_ZSt4moveIRNSt7__cxx1112basic_stringIcSt11char_traitsIcESaIcEEEEONSt16remove_referenceIT_E4typeEOS8_
FN:104,_ZSt4moveIRP15waitable_threadEONSt16remove_referenceIT_E4typeEOS4_
FNDA:0,_ZSt4moveIRP15waitable_threadEONSt16remove_referenceIT_E4typeEOS4_
FN:104,_ZSt4moveIRSt5tupleIJOiRNSt7__cxx1112basic_stringIcSt11char_traitsIcESaIcEEEEEEONSt16remove_referenceIT_E4typeEOSC_
FNDA:0,_ZSt4moveIRSt5tupleIJOiRNSt7__cxx1112basic_stringIcSt11char_traitsIcESaIcEEEEEEONSt16remove_referenceIT_E4typeEOSC_
FN:104,_ZSt4moveIRP14postable_timerEONSt16remove_referenceIT_E4typeEOS4_
FNDA:0,_ZSt4moveIRP14postable_timerEONSt16remove_referenceIT_E4typeEOS4_
FN:104,_ZSt4moveIRP14waitable_timerEONSt16remove_referenceIT_E4typeEOS4_
FNDA:0,_ZSt4moveIRP14waitable_timerEONSt16remove_referenceIT_E4typeEOS4_
FN:104,_ZSt4moveIRP22IWaitableMessageSourceEONSt16remove_referenceIT_E4typeEOS4_
FNDA:0,_ZSt4moveIRP22IWaitableMessageSourceEONSt16remove_referenceIT_E4typeEOS4_
FN:104,_ZSt4moveIRSt10shared_ptrI21waitableMessageSourceEEONSt16remove_referenceIT_E4typeEOS5_
FNDA:0,_ZSt4moveIRSt10shared_ptrI21waitableMessageSourceEEONSt16remove_referenceIT_E4typeEOS5_
FN:104,_ZSt4moveIRSt10shared_ptrI14waitable_timerEEONSt16remove_referenceIT_E4typeEOS5_
FNDA:0,_ZSt4moveIRSt10shared_ptrI14waitable_timerEEONSt16remove_referenceIT_E4typeEOS5_
FN:104,_ZSt4moveIRSt10shared_ptrI14postable_timerEEONSt16remove_referenceIT_E4typeEOS5_
FNDA:0,_ZSt4moveIRSt10shared_ptrI14postable_timerEEONSt16remove_referenceIT_E4typeEOS5_
FN:104,_ZSt4moveIRM9aspthreadFviRNSt7__cxx1112basic_stringIcSt11char_traitsIcESaIcEEEEEONSt16remove_referenceIT_E4typeEOSC_
FNDA:0,_ZSt4moveIRM9aspthreadFviRNSt7__cxx1112basic_stringIcSt11char_traitsIcESaIcEEEEEONSt16remove_referenceIT_E4typeEOSC_
FN:104,_ZSt4moveIRSt12__shared_ptrI21waitableMessageSourceLN9__gnu_cxx12_Lock_policyE2EEEONSt16remove_referenceIT_E4typeEOS7_
FNDA:0,_ZSt4moveIRSt12__shared_ptrI21waitableMessageSourceLN9__gnu_cxx12_Lock_policyE2EEEONSt16remove_referenceIT_E4typeEOS7_
FN:104,_ZSt4moveIRSt12__shared_ptrI14postable_timerLN9__gnu_cxx12_Lock_policyE2EEEONSt16remove_referenceIT_E4typeEOS7_
FNDA:0,_ZSt4moveIRSt12__shared_ptrI14postable_timerLN9__gnu_cxx12_Lock_policyE2EEEONSt16remove_referenceIT_E4typeEOS7_
FN:145,_ZSt9addressofIKcEPT_RS1_
FNDA:0,_ZSt9addressofIKcEPT_RS1_
FN:145,_ZSt9addressofIcEPT_RS0_
FNDA:0,_ZSt9addressofIcEPT_RS0_
FN:196,_ZSt4swapIP14postable_timerENSt9enable_ifIXsrSt6__and_IJSt6__not_ISt15__is_tuple_likeIT_EESt21is_move_constructibleIS6_ESt18is_move_assignableIS6_EEE5valueEvE4typeERS6_SG_
FNDA:0,_ZSt4swapIP14postable_timerENSt9enable_ifIXsrSt6__and_IJSt6__not_ISt15__is_tuple_likeIT_EESt21is_move_constructibleIS6_ESt18is_move_assignableIS6_EEE5valueEvE4typeERS6_SG_
FN:196,_ZSt4swapIP14waitable_timerENSt9enable_ifIXsrSt6__and_IJSt6__not_ISt15__is_tuple_likeIT_EESt21is_move_constructibleIS6_ESt18is_move_assignableIS6_EEE5valueEvE4typeERS6_SG_
FNDA:0,_ZSt4swapIP14waitable_timerENSt9enable_ifIXsrSt6__and_IJSt6__not_ISt15__is_tuple_likeIT_EESt21is_move_constructibleIS6_ESt18is_move_assignableIS6_EEE5valueEvE4typeERS6_SG_
FN:196,_ZSt4swapIP22IWaitableMessageSourceENSt9enable_ifIXsrSt6__and_IJSt6__not_ISt15__is_tuple_likeIT_EESt21is_move_constructibleIS6_ESt18is_move_assignableIS6_EEE5valueEvE4typeERS6_SG_
FNDA:0,_ZSt4swapIP22IWaitableMessageSourceENSt9enable_ifIXsrSt6__and_IJSt6__not_ISt15__is_tuple_likeIT_EESt21is_move_constructibleIS6_ESt18is_move_assignableIS6_EEE5valueEvE4typeERS6_SG_
DA:49,0
DA:50,0
DA:49,0
DA:50,0
DA:49,0
DA:50,0
DA:49,0
DA:50,0
DA:49,0
DA:50,0
DA:49,20
DA:50,20
DA:49,0
DA:50,0
DA:77,0
DA:78,0
DA:77,0
DA:78,0
DA:77,0
DA:78,0
DA:77,0
DA:78,0
DA:77,0
DA:78,0
DA:77,0
DA:78,0
DA:77,0
DA:78,0
DA:77,0
DA:78,0
DA:77,0
DA:78,0
DA:77,0
DA:78,0
DA:77,0
DA:78,0
DA:77,0
DA:78,0
DA:77,0
DA:78,0
DA:77,0
DA:78,0
DA:77,0
DA:78,0
DA:77,0
DA:78,0
DA:77,42
DA:78,42
DA:77,0
DA:78,0
DA:77,0
DA:78,0
DA:77,0
DA:78,0
DA:77,0
DA:78,0
DA:77,0
DA:78,0
DA:77,0
DA:78,0
DA:77,0
DA:78,0
DA:77,0
DA:78,0
DA:77,0
DA:78,0
DA:104,0
DA:105,0
DA:104,0
DA:105,0
DA:104,0
DA:105,0
DA:104,0
DA:105,0
DA:104,0
DA:105,0
DA:104,0
DA:105,0
DA:104,0
DA:105,0
DA:104,0
DA:105,0
DA:104,0
DA:105,0
DA:104,0
DA:105,0
DA:104,0
DA:105,0
DA:104,0
DA:105,0
DA:104,44
DA:105,44
DA:104,0
DA:105,0
DA:145,0
DA:146,0
DA:145,0
DA:146,0
DA:196,0
DA:204,0
DA:205,0
DA:206,0
DA:207,0
DA:196,0
DA:204,0
DA:205,0
DA:206,0
DA:207,0
DA:196,0
DA:204,0
DA:205,0
DA:206,0
DA:207,0
end_of_record
SF:/usr/include/c++/11/bits/stl_uninitialized.h
FN:986,_ZSt19__relocate_object_aINSt7__cxx1112basic_stringIcSt11char_traitsIcESaIcEEES5_SaIS5_EEvPT_PT0_RT1_
FNDA:2,_ZSt19__relocate_object_aINSt7__cxx1112basic_stringIcSt11char_traitsIcESaIcEEES5_SaIS5_EEvPT_PT0_RT1_
FN:1018,_ZSt14__relocate_a_1IPNSt7__cxx1112basic_stringIcSt11char_traitsIcESaIcEEES6_SaIS5_EET0_T_S9_S8_RT1_
FNDA:17,_ZSt14__relocate_a_1IPNSt7__cxx1112basic_stringIcSt11char_traitsIcESaIcEEES6_SaIS5_EET0_T_S9_S8_RT1_
FN:1040,_ZSt12__relocate_aIPNSt7__cxx1112basic_stringIcSt11char_traitsIcESaIcEEES6_SaIS5_EET0_T_S9_S8_RT1_
FNDA:17,_ZSt12__relocate_aIPNSt7__cxx1112basic_stringIcSt11char_traitsIcESaIcEEES6_SaIS5_EET0_T_S9_S8_RT1_
DA:986,2
DA:994,2
DA:995,2
DA:996,2
DA:1018,17
DA:1030,17
DA:1031,19
DA:1032,2
DA:1034,17
DA:1040,17
DA:1046,17
DA:1048,17
end_of_record
SF:/usr/include/c++/11/ext/aligned_buffer.h
FN:64,_ZN9__gnu_cxx16__aligned_membufISt4pairIKiiEE7_M_addrEv
FNDA:0,_ZN9__gnu_cxx16__aligned_membufISt4pairIKiiEE7_M_addrEv
FN:68,_ZNK9__gnu_cxx16__aligned_membufISt4pairIKiiEE7_M_addrEv
FNDA:0,_ZNK9__gnu_cxx16__aligned_membufISt4pairIKiiEE7_M_addrEv
FN:72,_ZN9__gnu_cxx16__aligned_membufISt4pairIKiiEE6_M_ptrEv
FNDA:0,_ZN9__gnu_cxx16__aligned_membufISt4pairIKiiEE6_M_ptrEv
FN:76,_ZNK9__gnu_cxx16__aligned_membufISt4pairIKiiEE6_M_ptrEv
FNDA:0,_ZNK9__gnu_cxx16__aligned_membufISt4pairIKiiEE6_M_ptrEv
FN:102,_ZN9__gnu_cxx16__aligned_bufferI14postable_timerE7_M_addrEv
FNDA:0,_ZN9__gnu_cxx16__aligned_bufferI14postable_timerE7_M_addrEv
FN:102,_ZN9__gnu_cxx16__aligned_bufferI4wfmoE7_M_addrEv
FNDA:0,_ZN9__gnu_cxx16__aligned_bufferI4wfmoE7_M_addrEv
FN:102,_ZN9__gnu_cxx16__aligned_bufferI14waitable_timerE7_M_addrEv
FNDA:0,_ZN9__gnu_cxx16__aligned_bufferI14waitable_timerE7_M_addrEv
FN:102,_ZN9__gnu_cxx16__aligned_bufferI21waitableMessageSourceE7_M_addrEv
FNDA:0,_ZN9__gnu_cxx16__aligned_bufferI21waitableMessageSourceE7_M_addrEv
FN:114,_ZN9__gnu_cxx16__aligned_bufferI14postable_timerE6_M_ptrEv
FNDA:0,_ZN9__gnu_cxx16__aligned_bufferI14postable_timerE6_M_ptrEv
FN:114,_ZN9__gnu_cxx16__aligned_bufferI4wfmoE6_M_ptrEv
FNDA:0,_ZN9__gnu_cxx16__aligned_bufferI4wfmoE6_M_ptrEv
FN:114,_ZN9__gnu_cxx16__aligned_bufferI14waitable_timerE6_M_ptrEv
FNDA:0,_ZN9__gnu_cxx16__aligned_bufferI14waitable_timerE6_M_ptrEv
FN:114,_ZN9__gnu_cxx16__aligned_bufferI21waitableMessageSourceE6_M_ptrEv
FNDA:0,_ZN9__gnu_cxx16__aligned_bufferI21waitableMessageSourceE6_M_ptrEv
DA:64,0
DA:65,0
DA:68,0
DA:69,0
DA:72,0
DA:73,0
DA:76,0
DA:77,0
DA:102,0
DA:104,0
DA:102,0
DA:104,0
DA:102,0
DA:104,0
DA:102,0
DA:104,0
DA:114,0
DA:115,0
DA:114,0
DA:115,0
DA:114,0
DA:115,0
DA:114,0
DA:115,0
end_of_record
SF:/usr/include/c++/11/ext/alloc_traits.h
FN:97,_ZN9__gnu_cxx14__alloc_traitsISaISt13_Rb_tree_nodeISt4pairIKiiEEES5_E17_S_select_on_copyERKS6_
FNDA:0,_ZN9__gnu_cxx14__alloc_traitsISaISt13_Rb_tree_nodeISt4pairIKiiEEES5_E17_S_select_on_copyERKS6_
FN:97,_ZN9__gnu_cxx14__alloc_traitsISaIcEcE17_S_select_on_copyERKS1_
FNDA:0,_ZN9__gnu_cxx14__alloc_traitsISaIcEcE17_S_select_on_copyERKS1_
DA:97,0
DA:98,0
DA:97,0
DA:98,0
end_of_record
SF:/usr/include/c++/11/bits/stl_construct.h
FN:80,_ZSt10destroy_atI21waitableMessageSourceEvPT_
FNDA:0,_ZSt10destroy_atI21waitableMessageSourceEvPT_
FN:80,_ZSt10destroy_atI14waitable_timerEvPT_
FNDA:0,_ZSt10destroy_atI14waitable_timerEvPT_
FN:80,_ZSt10destroy_atI4wfmoEvPT_
FNDA:0,_ZSt10destroy_atI4wfmoEvPT_
FN:80,_ZSt10destroy_atI14postable_timerEvPT_
FNDA:0,_ZSt10destroy_atI14postable_timerEvPT_
FN:80,_ZSt10destroy_atISt4pairIKiiEEvPT_
FNDA:0,_ZSt10destroy_atISt4pairIKiiEEvPT_
FN:80,_ZSt10destroy_atINSt7__cxx1112basic_stringIcSt11char_traitsIcESaIcEEEEvPT_
FNDA:15,_ZSt10destroy_atINSt7__cxx1112basic_stringIcSt11char_traitsIcESaIcEEEEvPT_
FN:94,_ZSt12construct_atISt4pairIKiiEJRKS2_EEDTgsnwcvPvLi0E_T_pispcl7declvalIT0_EEEEPS6_DpOS7_
FNDA:0,_ZSt12construct_atISt4pairIKiiEJRKS2_EEDTgsnwcvPvLi0E_T_pispcl7declvalIT0_EEEEPS6_DpOS7_
FN:94,_ZSt12construct_atI14postable_timerJRKi9timerTypeNSt7__cxx1112basic_stringIcSt11char_traitsIcESaIcEEERSt10shared_ptrI22IWaitableMessageSourceERSA_I7ILoggerEEEDTgsnwcvPvLi0E_T_pispcl7declvalIT0_EEEEPSI_DpOSJ_
FNDA:0,_ZSt12construct_atI14postable_timerJRKi9timerTypeNSt7__cxx1112basic_stringIcSt11char_traitsIcESaIcEEERSt10shared_ptrI22IWaitableMessageSourceERSA_I7ILoggerEEEDTgsnwcvPvLi0E_T_pispcl7declvalIT0_EEEEPSI_DpOSJ_
FN:94,_ZSt12construct_atI4wfmoJRSt3mapIiiSt4lessIiESaISt4pairIKiiEEEEEDTgsnwcvPvLi0E_T_pispcl7declvalIT0_EEEEPSB_DpOSC_
FNDA:0,_ZSt12construct_atI4wfmoJRSt3mapIiiSt4lessIiESaISt4pairIKiiEEEEEDTgsnwcvPvLi0E_T_pispcl7declvalIT0_EEEEPSB_DpOSC_
FN:94,_ZSt12construct_atI14waitable_timerJRKi9timerTypeRSt10shared_ptrI7ILoggerEEEDTgsnwcvPvLi0E_T_pispcl7declvalIT0_EEEEPS9_DpOSA_
FNDA:0,_ZSt12construct_atI14waitable_timerJRKi9timerTypeRSt10shared_ptrI7ILoggerEEEDTgsnwcvPvLi0E_T_pispcl7declvalIT0_EEEEPS9_DpOSA_
FN:94,_ZSt12construct_atI21waitableMessageSourceJRNSt7__cxx1112basic_stringIcSt11char_traitsIcESaIcEEERSt10shared_ptrI7ILoggerEEEDTgsnwcvPvLi0E_T_pispcl7declvalIT0_EEEEPSD_DpOSE_
FNDA:0,_ZSt12construct_atI21waitableMessageSourceJRNSt7__cxx1112basic_stringIcSt11char_traitsIcESaIcEEERSt10shared_ptrI7ILoggerEEEDTgsnwcvPvLi0E_T_pispcl7declvalIT0_EEEEPSD_DpOSE_
FN:94,_ZSt12construct_atISt4pairIKiiEJS0_IiiEEEDTgsnwcvPvLi0E_T_pispcl7declvalIT0_EEEEPS5_DpOS6_
FNDA:0,_ZSt12construct_atISt4pairIKiiEJS0_IiiEEEDTgsnwcvPvLi0E_T_pispcl7declvalIT0_EEEEPS5_DpOS6_
FN:94,_ZSt12construct_atINSt7__cxx1112basic_stringIcSt11char_traitsIcESaIcEEEJS5_EEDTgsnwcvPvLi0E_T_pispcl7declvalIT0_EEEEPS7_DpOS8_
FNDA:14,_ZSt12construct_atINSt7__cxx1112basic_stringIcSt11char_traitsIcESaIcEEEJS5_EEDTgsnwcvPvLi0E_T_pispcl7declvalIT0_EEEEPS7_DpOS8_
FN:146,_ZSt8_DestroyINSt7__cxx1112basic_stringIcSt11char_traitsIcESaIcEEEEvPT_
FNDA:13,_ZSt8_DestroyINSt7__cxx1112basic_stringIcSt11char_traitsIcESaIcEEEEvPT_
FN:160,_ZNSt12_Destroy_auxILb0EE9__destroyIPNSt7__cxx1112basic_stringIcSt11char_traitsIcESaIcEEEEEvT_S9_
FNDA:17,_ZNSt12_Destroy_auxILb0EE9__destroyIPNSt7__cxx1112basic_stringIcSt11char_traitsIcESaIcEEEEEvT_S9_
FN:182,_ZSt8_DestroyIPNSt7__cxx1112basic_stringIcSt11char_traitsIcESaIcEEEEvT_S7_
FNDA:17,_ZSt8_DestroyIPNSt7__cxx1112basic_stringIcSt11char_traitsIcESaIcEEEEvT_S7_
DA:80,0
DA:88,0
DA:89,0
DA:80,0
DA:88,0
DA:89,0
DA:80,0
DA:88,0
DA:89,0
DA:80,0
DA:88,0
DA:89,0
DA:80,0
DA:88,0
DA:89,0
DA:80,15
DA:88,15
DA:89,15
DA:94,0
DA:97,0
DA:94,0
DA:97,0
DA:94,0
DA:97,0
DA:94,0
DA:97,0
DA:94,0
DA:97,0
DA:94,0
DA:97,0
DA:94,14
DA:97,14
DA:146,13
DA:149,13
DA:153,13
DA:160,17
DA:162,30
DA:163,13
DA:164,17
DA:182,17
DA:192,17
DA:193,0
DA:196,17
end_of_record
SF:/usr/include/c++/11/bits/stl_iterator_base_types.h
FN:238,_ZSt19__iterator_categoryIPKcENSt15iterator_traitsIT_E17iterator_categoryERKS3_
FNDA:0,_ZSt19__iterator_categoryIPKcENSt15iterator_traitsIT_E17iterator_categoryERKS3_
FN:238,_ZSt19__iterator_categoryIPcENSt15iterator_traitsIT_E17iterator_categoryERKS2_
FNDA:0,_ZSt19__iterator_categoryIPcENSt15iterator_traitsIT_E17iterator_categoryERKS2_
DA:238,0
DA:239,0
DA:238,0
DA:239,0
end_of_record
SF:/usr/include/c++/11/bits/stl_iterator_base_funcs.h
FN:98,_ZSt10__distanceIPcENSt15iterator_traitsIT_E15difference_typeES2_S2_St26random_access_iterator_tag
FNDA:0,_ZSt10__distanceIPcENSt15iterator_traitsIT_E15difference_typeES2_S2_St26random_access_iterator_tag
FN:98,_ZSt10__distanceIPKcENSt15iterator_traitsIT_E15difference_typeES3_S3_St26random_access_iterator_tag
FNDA:0,_ZSt10__distanceIPKcENSt15iterator_traitsIT_E15difference_typeES3_S3_St26random_access_iterator_tag
FN:138,_ZSt8distanceIPcENSt15iterator_traitsIT_E15difference_typeES2_S2_
FNDA:0,_ZSt8distanceIPcENSt15iterator_traitsIT_E15difference_typeES2_S2_
FN:138,_ZSt8distanceIPKcENSt15iterator_traitsIT_E15difference_typeES3_S3_
FNDA:0,_ZSt8distanceIPKcENSt15iterator_traitsIT_E15difference_typeES3_S3_
DA:98,0
DA:104,0
DA:98,0
DA:104,0
DA:138,0
DA:141,0
DA:142,0
DA:138,0
DA:141,0
DA:142,0
end_of_record
SF:/usr/include/c++/11/bits/stl_iterator.h
FN:1010,_ZN9__gnu_cxx17__normal_iteratorIPNSt7__cxx1112basic_stringIcSt11char_traitsIcESaIcEEESt6vectorIS6_SaIS6_EEEC2ERKS7_
FNDA:52,_ZN9__gnu_cxx17__normal_iteratorIPNSt7__cxx1112basic_stringIcSt11char_traitsIcESaIcEEESt6vectorIS6_SaIS6_EEEC2ERKS7_
FN:1025,_ZNK9__gnu_cxx17__normal_iteratorIPNSt7__cxx1112basic_stringIcSt11char_traitsIcESaIcEEESt6vectorIS6_SaIS6_EEEdeEv
FNDA:13,_ZNK9__gnu_cxx17__normal_iteratorIPNSt7__cxx1112basic_stringIcSt11char_traitsIcESaIcEEESt6vectorIS6_SaIS6_EEEdeEv
FN:1035,_ZN9__gnu_cxx17__normal_iteratorIPNSt7__cxx1112basic_stringIcSt11char_traitsIcESaIcEEESt6vectorIS6_SaIS6_EEEppEv
FNDA:10,_ZN9__gnu_cxx17__normal_iteratorIPNSt7__cxx1112basic_stringIcSt11char_traitsIcESaIcEEESt6vectorIS6_SaIS6_EEEppEv
FN:1083,_ZNK9__gnu_cxx17__normal_iteratorIPNSt7__cxx1112basic_stringIcSt11char_traitsIcESaIcEEESt6vectorIS6_SaIS6_EEEmiEl
FNDA:7,_ZNK9__gnu_cxx17__normal_iteratorIPNSt7__cxx1112basic_stringIcSt11char_traitsIcESaIcEEESt6vectorIS6_SaIS6_EEEmiEl
FN:1088,_ZNK9__gnu_cxx17__normal_iteratorIPNSt7__cxx1112basic_stringIcSt11char_traitsIcESaIcEEESt6vectorIS6_SaIS6_EEE4baseEv
FNDA:67,_ZNK9__gnu_cxx17__normal_iteratorIPNSt7__cxx1112basic_stringIcSt11char_traitsIcESaIcEEESt6vectorIS6_SaIS6_EEE4baseEv
FN:1105,_ZN9__gnu_cxxeqIPNSt7__cxx1112basic_stringIcSt11char_traitsIcESaIcEEES7_St6vectorIS6_SaIS6_EEEEbRKNS_17__normal_iteratorIT_T1_EERKNSB_IT0_SD_EE
FNDA:0,_ZN9__gnu_cxxeqIPNSt7__cxx1112basic_stringIcSt11char_traitsIcESaIcEEES7_St6vectorIS6_SaIS6_EEEEbRKNS_17__normal_iteratorIT_T1_EERKNSB_IT0_SD_EE
FN:1234,_ZN9__gnu_cxxmiIPNSt7__cxx1112basic_stringIcSt11char_traitsIcESaIcEEESt6vectorIS6_SaIS6_EEEENS_17__normal_iteratorIT_T0_E15difference_typeERKSE_SH_
FNDA:10,_ZN9__gnu_cxxmiIPNSt7__cxx1112basic_stringIcSt11char_traitsIcESaIcEEESt6vectorIS6_SaIS6_EEEENS_17__normal_iteratorIT_T0_E15difference_typeERKSE_SH_
DA:1010,52
DA:1011,52
DA:1025,13
DA:1026,13
DA:1035,10
DA:1037,10
DA:1038,10
DA:1083,7
DA:1084,7
DA:1088,67
DA:1089,67
DA:1105,0
DA:1108,0
DA:1234,10
DA:1237,10
end_of_record
TN:
SF:/usr/include/c++/11/bits/allocator.h
FN:156,_ZNSaI4wfmoEC2Ev
FNDA:0,_ZNSaI4wfmoEC2Ev
FN:156,_ZNSaISt13_Rb_tree_nodeISt4pairIKiiEEEC2Ev
FNDA:0,_ZNSaISt13_Rb_tree_nodeISt4pairIKiiEEEC2Ev
FN:156,_ZNSaI19waitableMessageSinkEC2Ev
FNDA:0,_ZNSaI19waitableMessageSinkEC2Ev
FN:159,_ZNSaISt13_Rb_tree_nodeISt4pairIKiiEEEC2ERKS4_
FNDA:0,_ZNSaISt13_Rb_tree_nodeISt4pairIKiiEEEC2ERKS4_
FN:159,_ZNSaI4wfmoEC2ERKS0_
FNDA:0,_ZNSaI4wfmoEC2ERKS0_
FN:159,_ZNSaI19waitableMessageSinkEC2ERKS0_
FNDA:0,_ZNSaI19waitableMessageSinkEC2ERKS0_
FN:169,_ZNSaISt23_Sp_counted_ptr_inplaceI4wfmoSaIS0_ELN9__gnu_cxx12_Lock_policyE2EEEC2IS0_EERKSaIT_E
FNDA:0,_ZNSaISt23_Sp_counted_ptr_inplaceI4wfmoSaIS0_ELN9__gnu_cxx12_Lock_policyE2EEEC2IS0_EERKSaIT_E
FN:169,_ZNSaISt23_Sp_counted_ptr_inplaceI19waitableMessageSinkSaIS0_ELN9__gnu_cxx12_Lock_policyE2EEEC2IS0_EERKSaIT_E
FNDA:0,_ZNSaISt23_Sp_counted_ptr_inplaceI19waitableMessageSinkSaIS0_ELN9__gnu_cxx12_Lock_policyE2EEEC2IS0_EERKSaIT_E
FN:174,_ZNSaISt23_Sp_counted_ptr_inplaceI4wfmoSaIS0_ELN9__gnu_cxx12_Lock_policyE2EEED2Ev
FNDA:0,_ZNSaISt23_Sp_counted_ptr_inplaceI4wfmoSaIS0_ELN9__gnu_cxx12_Lock_policyE2EEED2Ev
FN:174,_ZNSaISt23_Sp_counted_ptr_inplaceI19waitableMessageSinkSaIS0_ELN9__gnu_cxx12_Lock_policyE2EEED2Ev
FNDA:0,_ZNSaISt23_Sp_counted_ptr_inplaceI19waitableMessageSinkSaIS0_ELN9__gnu_cxx12_Lock_policyE2EEED2Ev
FN:174,_ZNSaI4wfmoED2Ev
FNDA:0,_ZNSaI4wfmoED2Ev
FN:174,_ZNSaI19waitableMessageSinkED2Ev
FNDA:0,_ZNSaI19waitableMessageSinkED2Ev
FN:174,_ZNSaISt13_Rb_tree_nodeISt4pairIKiiEEED2Ev
FNDA:0,_ZNSaISt13_Rb_tree_nodeISt4pairIKiiEEED2Ev
DA:156,0
DA:156,0
DA:156,0
DA:159,0
DA:160,0
DA:159,0
DA:160,0
DA:159,0
DA:160,0
DA:169,0
DA:169,0
DA:174,0
DA:174,0
DA:174,0
DA:174,0
DA:174,0
DA:182,0
DA:183,0
DA:185,0
DA:193,0
DA:195,0
DA:196,0
DA:199,0
end_of_record
SF:/usr/include/c++/11/bits/cpp_type_traits.h
FN:560,_ZSt12__miter_baseIPKcET_S2_
FNDA:0,_ZSt12__miter_baseIPKcET_S2_
DA:560,0
DA:561,0
end_of_record
SF:/usr/include/c++/11/type_traits
FN:3418,_ZSt21is_constant_evaluatedv
FNDA:0,_ZSt21is_constant_evaluatedv
DA:3418,0
DA:3419,0
end_of_record
SF:/home/yackey/projects/waitables/vpgnixApp/include/vpgnix.h
FN:15,_ZN6vpgnixD0Ev
FNDA:0,_ZN6vpgnixD0Ev
FN:15,_ZN6vpgnixD2Ev
FNDA:1,_ZN6vpgnixD2Ev
DA:15,0
DA:15,1
end_of_record
SF:/usr/include/c++/11/functional
FN:363,_ZNVKSt3_MuISt12_PlaceholderILi2EELb0ELb1EEclISt5tupleIJOiRNSt7__cxx1112basic_stringIcSt11char_traitsIcESaIcEEEEEEEONSt9enable_ifIXltLm1EsrSt10tuple_sizeIT_E5valueESt13tuple_elementILm1ESG_EE4type4typeERVKS1_RSG_
FNDA:0,_ZNVKSt3_MuISt12_PlaceholderILi2EELb0ELb1EEclISt5tupleIJOiRNSt7__cxx1112basic_stringIcSt11char_traitsIcESaIcEEEEEEEONSt9enable_ifIXltLm1EsrSt10tuple_sizeIT_E5valueESt13tuple_elementILm1ESG_EE4type4typeERVKS1_RSG_
FN:363,_ZNVKSt3_MuISt12_PlaceholderILi1EELb0ELb1EEclISt5tupleIJOiRNSt7__cxx1112basic_stringIcSt11char_traitsIcESaIcEEEEEEEONSt9enable_ifIXltLm0EsrSt10tuple_sizeIT_E5valueESt13tuple_elementILm0ESG_EE4type4typeERVKS1_RSG_
FNDA:0,_ZNVKSt3_MuISt12_PlaceholderILi1EELb0ELb1EEclISt5tupleIJOiRNSt7__cxx1112basic_stringIcSt11char_traitsIcESaIcEEEEEEEONSt9enable_ifIXltLm0EsrSt10tuple_sizeIT_E5valueESt13tuple_elementILm0ESG_EE4type4typeERVKS1_RSG_
FN:382,_ZNVKSt3_MuIP6vpgnixLb0ELb0EEclIRS1_St5tupleIJOiRNSt7__cxx1112basic_stringIcSt11char_traitsIcESaIcEEEEEEEOT_SG_RT0_
FNDA:0,_ZNVKSt3_MuIP6vpgnixLb0ELb0EEclIRS1_St5tupleIJOiRNSt7__cxx1112basic_stringIcSt11char_traitsIcESaIcEEEEEEEOT_SG_RT0_
FN:418,_ZNSt5_BindIFM6vpgnixFviRNSt7__cxx1112basic_stringIcSt11char_traitsIcESaIcEEEEPS0_St12_PlaceholderILi1EESB_ILi2EEEE6__callIvJOiS7_EJLm0ELm1ELm2EEEET_OSt5tupleIJDpT0_EESt12_Index_tupleIJXspT1_EEE
FNDA:0,_ZNSt5_BindIFM6vpgnixFviRNSt7__cxx1112basic_stringIcSt11char_traitsIcESaIcEEEEPS0_St12_PlaceholderILi1EESB_ILi2EEEE6__callIvJOiS7_EJLm0ELm1ELm2EEEET_OSt5tupleIJDpT0_EESt12_Index_tupleIJXspT1_EEE
FN:489,_ZNSt5_BindIFM6vpgnixFviRNSt7__cxx1112basic_stringIcSt11char_traitsIcESaIcEEEEPS0_St12_PlaceholderILi1EESB_ILi2EEEEC2IJSA_RKSC_RKSD_EEEOS9_DpOT_
FNDA:0,_ZNSt5_BindIFM6vpgnixFviRNSt7__cxx1112basic_stringIcSt11char_traitsIcESaIcEEEEPS0_St12_PlaceholderILi1EESB_ILi2EEEEC2IJSA_RKSC_RKSD_EEEOS9_DpOT_
FN:494,_ZNSt5_BindIFM6vpgnixFviRNSt7__cxx1112basic_stringIcSt11char_traitsIcESaIcEEEEPS0_St12_PlaceholderILi1EESB_ILi2EEEEC2EOSF_
FNDA:0,_ZNSt5_BindIFM6vpgnixFviRNSt7__cxx1112basic_stringIcSt11char_traitsIcESaIcEEEEPS0_St12_PlaceholderILi1EESB_ILi2EEEEC2EOSF_
FN:501,_ZNSt5_BindIFM6vpgnixFviRNSt7__cxx1112basic_stringIcSt11char_traitsIcESaIcEEEEPS0_St12_PlaceholderILi1EESB_ILi2EEEEclIJiS7_EvEET0_DpOT_
FNDA:0,_ZNSt5_BindIFM6vpgnixFviRNSt7__cxx1112basic_stringIcSt11char_traitsIcESaIcEEEEPS0_St12_PlaceholderILi1EESB_ILi2EEEEclIJiS7_EvEET0_DpOT_
FN:789,_ZSt4bindIM6vpgnixFviRNSt7__cxx1112basic_stringIcSt11char_traitsIcESaIcEEEEJPS0_RKSt12_PlaceholderILi1EERKSB_ILi2EEEENSt12_Bind_helperIXsrSt5__or_IJSt11is_integralINSt5decayIT_E4typeEESt7is_enumISO_EEE5valueESM_JDpT0_EE4typeEOSM_DpOST_
FNDA:0,_ZSt4bindIM6vpgnixFviRNSt7__cxx1112basic_stringIcSt11char_traitsIcESaIcEEEEJPS0_RKSt12_PlaceholderILi1EERKSB_ILi2EEEENSt12_Bind_helperIXsrSt5__or_IJSt11is_integralINSt5decayIT_E4typeEESt7is_enumISO_EEE5valueESM_JDpT0_EE4typeEOSM_DpOST_
DA:363,0
DA:366,0
DA:363,0
DA:366,0
DA:382,0
DA:383,0
DA:418,0
DA:420,0
DA:421,0
DA:422,0
DA:489,0
DA:490,0
DA:491,0
DA:494,0
DA:501,0
DA:503,0
DA:505,0
DA:789,0
DA:793,0
end_of_record
SF:/usr/include/c++/11/bits/stl_function.h
FN:399,_ZNKSt4lessIiEclERKiS2_
FNDA:0,_ZNKSt4lessIiEclERKiS2_
FN:1174,_ZNKSt10_Select1stISt4pairIKiiEEclERKS2_
FNDA:0,_ZNKSt10_Select1stISt4pairIKiiEEclERKS2_
DA:399,0
DA:400,0
DA:1174,0
DA:1175,0
end_of_record
SF:/usr/include/c++/11/bits/char_traits.h
FN:106,_ZN9__gnu_cxx11char_traitsIcE2eqERKcS3_
FNDA:0,_ZN9__gnu_cxx11char_traitsIcE2eqERKcS3_
FN:167,_ZN9__gnu_cxx11char_traitsIcE6lengthEPKc
FNDA:0,_ZN9__gnu_cxx11char_traitsIcE6lengthEPKc
FN:240,_ZN9__gnu_cxx11char_traitsIcE4copyEPcPKcm
FNDA:0,_ZN9__gnu_cxx11char_traitsIcE4copyEPcPKcm
FN:356,_ZNSt11char_traitsIcE6assignERcRKc
FNDA:0,_ZNSt11char_traitsIcE6assignERcRKc
FN:393,_ZNSt11char_traitsIcE6lengthEPKc
FNDA:0,_ZNSt11char_traitsIcE6lengthEPKc
FN:429,_ZNSt11char_traitsIcE4copyEPcPKcm
FNDA:0,_ZNSt11char_traitsIcE4copyEPcPKcm
DA:106,0
DA:107,0
DA:167,0
DA:170,0
DA:171,0
DA:172,0
DA:173,0
DA:240,0
DA:244,0
DA:245,0
DA:290,0
DA:356,0
DA:357,0
DA:393,0
DA:396,0
DA:397,0
DA:399,0
DA:429,0
DA:431,0
DA:432,0
DA:434,0
DA:435,0
DA:437,0
end_of_record
SF:/usr/include/c++/11/bits/invoke.h
FN:60,_ZSt13__invoke_implIvRSt5_BindIFM6vpgnixFviRNSt7__cxx1112basic_stringIcSt11char_traitsIcESaIcEEEEPS1_St12_PlaceholderILi1EESC_ILi2EEEEJiS8_EET_St14__invoke_otherOT0_DpOT1_
FNDA:0,_ZSt13__invoke_implIvRSt5_BindIFM6vpgnixFviRNSt7__cxx1112basic_stringIcSt11char_traitsIcESaIcEEEEPS1_St12_PlaceholderILi1EESC_ILi2EEEEJiS8_EET_St14__invoke_otherOT0_DpOT1_
FN:71,_ZSt13__invoke_implIvRM6vpgnixFviRNSt7__cxx1112basic_stringIcSt11char_traitsIcESaIcEEEERPS0_JiS7_EET_St21__invoke_memfun_derefOT0_OT1_DpOT2_
FNDA:0,_ZSt13__invoke_implIvRM6vpgnixFviRNSt7__cxx1112basic_stringIcSt11char_traitsIcESaIcEEEERPS0_JiS7_EET_St21__invoke_memfun_derefOT0_OT1_DpOT2_
FN:90,_ZSt8__invokeIRM6vpgnixFviRNSt7__cxx1112basic_stringIcSt11char_traitsIcESaIcEEEEJRPS0_iS7_EENSt15__invoke_resultIT_JDpT0_EE4typeEOSE_DpOSF_
FNDA:0,_ZSt8__invokeIRM6vpgnixFviRNSt7__cxx1112basic_stringIcSt11char_traitsIcESaIcEEEEJRPS0_iS7_EENSt15__invoke_resultIT_JDpT0_EE4typeEOSE_DpOSF_
FN:104,_ZSt10__invoke_rIvRSt5_BindIFM6vpgnixFviRNSt7__cxx1112basic_stringIcSt11char_traitsIcESaIcEEEEPS1_St12_PlaceholderILi1EESC_ILi2EEEEJiS8_EENSt9enable_ifIX16is_invocable_r_vIT_T0_DpT1_EESJ_E4typeEOSK_DpOSL_
FNDA:0,_ZSt10__invoke_rIvRSt5_BindIFM6vpgnixFviRNSt7__cxx1112basic_stringIcSt11char_traitsIcESaIcEEEEPS1_St12_PlaceholderILi1EESC_ILi2EEEEJiS8_EENSt9enable_ifIX16is_invocable_r_vIT_T0_DpT1_EESJ_E4typeEOSK_DpOSL_
DA:60,0
DA:61,0
DA:71,0
DA:74,0
DA:90,0
DA:96,0
DA:97,0
DA:104,0
DA:111,0
DA:117,0
end_of_record
SF:/usr/include/c++/11/bits/basic_string.h
FN:164,_ZNSt7__cxx1112basic_stringIcSt11char_traitsIcESaIcEE12_Alloc_hiderC2EPcRKS3_
FNDA:0,_ZNSt7__cxx1112basic_stringIcSt11char_traitsIcESaIcEE12_Alloc_hiderC2EPcRKS3_
FN:167,_ZNSt7__cxx1112basic_stringIcSt11char_traitsIcESaIcEE12_Alloc_hiderC2EPcOS3_
FNDA:0,_ZNSt7__cxx1112basic_stringIcSt11char_traitsIcESaIcEE12_Alloc_hiderC2EPcOS3_
FN:186,_ZNSt7__cxx1112basic_stringIcSt11char_traitsIcESaIcEE7_M_dataEPc
FNDA:0,_ZNSt7__cxx1112basic_stringIcSt11char_traitsIcESaIcEE7_M_dataEPc
FN:190,_ZNSt7__cxx1112basic_stringIcSt11char_traitsIcESaIcEE9_M_lengthEm
FNDA:0,_ZNSt7__cxx1112basic_stringIcSt11char_traitsIcESaIcEE9_M_lengthEm
FN:194,_ZNKSt7__cxx1112basic_stringIcSt11char_traitsIcESaIcEE7_M_dataEv
FNDA:0,_ZNKSt7__cxx1112basic_stringIcSt11char_traitsIcESaIcEE7_M_dataEv
FN:198,_ZNSt7__cxx1112basic_stringIcSt11char_traitsIcESaIcEE13_M_local_dataEv
FNDA:0,_ZNSt7__cxx1112basic_stringIcSt11char_traitsIcESaIcEE13_M_local_dataEv
FN:208,_ZNKSt7__cxx1112basic_stringIcSt11char_traitsIcESaIcEE13_M_local_dataEv
FNDA:0,_ZNKSt7__cxx1112basic_stringIcSt11char_traitsIcESaIcEE13_M_local_dataEv
FN:218,_ZNSt7__cxx1112basic_stringIcSt11char_traitsIcESaIcEE11_M_capacityEm
FNDA:0,_ZNSt7__cxx1112basic_stringIcSt11char_traitsIcESaIcEE11_M_capacityEm
FN:222,_ZNSt7__cxx1112basic_stringIcSt11char_traitsIcESaIcEE13_M_set_lengthEm
FNDA:0,_ZNSt7__cxx1112basic_stringIcSt11char_traitsIcESaIcEE13_M_set_lengthEm
FN:229,_ZNKSt7__cxx1112basic_stringIcSt11char_traitsIcESaIcEE11_M_is_localEv
FNDA:0,_ZNKSt7__cxx1112basic_stringIcSt11char_traitsIcESaIcEE11_M_is_localEv
FN:237,_ZNSt7__cxx1112basic_stringIcSt11char_traitsIcESaIcEE10_M_disposeEv
FNDA:0,_ZNSt7__cxx1112basic_stringIcSt11char_traitsIcESaIcEE10_M_disposeEv
FN:244,_ZNSt7__cxx1112basic_stringIcSt11char_traitsIcESaIcEE10_M_destroyEm
FNDA:0,_ZNSt7__cxx1112basic_stringIcSt11char_traitsIcESaIcEE10_M_destroyEm
FN:251,_ZNSt7__cxx1112basic_stringIcSt11char_traitsIcESaIcEE16_M_construct_auxIPcEEvT_S7_St12__false_type
FNDA:0,_ZNSt7__cxx1112basic_stringIcSt11char_traitsIcESaIcEE16_M_construct_auxIPcEEvT_S7_St12__false_type
FN:271,_ZNSt7__cxx1112basic_stringIcSt11char_traitsIcESaIcEE12_M_constructIPcEEvT_S7_
FNDA:0,_ZNSt7__cxx1112basic_stringIcSt11char_traitsIcESaIcEE12_M_constructIPcEEvT_S7_
FN:294,_ZNSt7__cxx1112basic_stringIcSt11char_traitsIcESaIcEE16_M_get_allocatorEv
FNDA:0,_ZNSt7__cxx1112basic_stringIcSt11char_traitsIcESaIcEE16_M_get_allocatorEv
FN:298,_ZNKSt7__cxx1112basic_stringIcSt11char_traitsIcESaIcEE16_M_get_allocatorEv
FNDA:0,_ZNKSt7__cxx1112basic_stringIcSt11char_traitsIcESaIcEE16_M_get_allocatorEv
FN:354,_ZNSt7__cxx1112basic_stringIcSt11char_traitsIcESaIcEE7_S_copyEPcPKcm
FNDA:0,_ZNSt7__cxx1112basic_stringIcSt11char_traitsIcESaIcEE7_S_copyEPcPKcm
FN:400,_ZNSt7__cxx1112basic_stringIcSt11char_traitsIcESaIcEE13_S_copy_charsEPcS5_S5_
FNDA:0,_ZNSt7__cxx1112basic_stringIcSt11char_traitsIcESaIcEE13_S_copy_charsEPcS5_S5_
FN:404,_ZNSt7__cxx1112basic_stringIcSt11char_traitsIcESaIcEE13_S_copy_charsEPcPKcS7_
FNDA:0,_ZNSt7__cxx1112basic_stringIcSt11char_traitsIcESaIcEE13_S_copy_charsEPcPKcS7_
FN:456,_ZNSt7__cxx1112basic_stringIcSt11char_traitsIcESaIcEEC2ERKS4_
FNDA:0,_ZNSt7__cxx1112basic_stringIcSt11char_traitsIcESaIcEEC2ERKS4_
FN:533,_ZNSt7__cxx1112basic_stringIcSt11char_traitsIcESaIcEEC2IS3_EEPKcRKS3_
FNDA:0,_ZNSt7__cxx1112basic_stringIcSt11char_traitsIcESaIcEEC2IS3_EEPKcRKS3_
FN:671,_ZNSt7__cxx1112basic_stringIcSt11char_traitsIcESaIcEED2Ev
FNDA:0,_ZNSt7__cxx1112basic_stringIcSt11char_traitsIcESaIcEED2Ev
FN:926,_ZNKSt7__cxx1112basic_stringIcSt11char_traitsIcESaIcEE6lengthEv
FNDA:0,_ZNKSt7__cxx1112basic_stringIcSt11char_traitsIcESaIcEE6lengthEv
FN:931,_ZNKSt7__cxx1112basic_stringIcSt11char_traitsIcESaIcEE8max_sizeEv
FNDA:0,_ZNKSt7__cxx1112basic_stringIcSt11char_traitsIcESaIcEE8max_sizeEv
FN:2320,_ZNKSt7__cxx1112basic_stringIcSt11char_traitsIcESaIcEE5c_strEv
FNDA:0,_ZNKSt7__cxx1112basic_stringIcSt11char_traitsIcESaIcEE5c_strEv
DA:164,0
DA:165,0
DA:167,0
DA:168,0
DA:186,0
DA:187,0
DA:190,0
DA:191,0
DA:194,0
DA:195,0
DA:198,0
DA:201,0
DA:208,0
DA:211,0
DA:218,0
DA:219,0
DA:222,0
DA:224,0
DA:225,0
DA:226,0
DA:229,0
DA:230,0
DA:237,0
DA:239,0
DA:240,0
DA:241,0
DA:244,0
DA:245,0
DA:251,0
DA:255,0
DA:256,0
DA:271,0
DA:274,0
DA:275,0
DA:294,0
DA:295,0
DA:298,0
DA:299,0
DA:354,0
DA:356,0
DA:357,0
DA:359,0
DA:360,0
DA:400,0
DA:401,0
DA:404,0
DA:406,0
DA:456,0
DA:457,0
DA:458,0
DA:459,0
DA:533,0
DA:534,0
DA:536,0
DA:539,0
DA:540,0
DA:671,0
DA:672,0
DA:926,0
DA:927,0
DA:931,0
DA:932,0
DA:2320,0
DA:2321,0
end_of_record
SF:/usr/include/c++/11/typeinfo
FN:120,_ZNKSt9type_infoeqERKS_
FNDA:0,_ZNKSt9type_infoeqERKS_
DA:120,0
DA:122,0
DA:123,0
DA:124,0
end_of_record
SF:/usr/include/c++/11/tuple
FN:80,_ZNSt10_Head_baseILm1ESt14default_deleteI15waitable_threadELb1EEC2Ev
FNDA:3,_ZNSt10_Head_baseILm1ESt14default_deleteI15waitable_threadELb1EEC2Ev
FN:83,_ZNSt10_Head_baseILm1ESt12_PlaceholderILi1EELb1EEC2ERKS1_
FNDA:0,_ZNSt10_Head_baseILm1ESt12_PlaceholderILi1EELb1EEC2ERKS1_
FN:83,_ZNSt10_Head_baseILm2ESt12_PlaceholderILi2EELb1EEC2ERKS1_
FNDA:0,_ZNSt10_Head_baseILm2ESt12_PlaceholderILi2EELb1EEC2ERKS1_
FN:124,_ZNSt10_Head_baseILm2ESt12_PlaceholderILi2EELb1EE7_M_headERS2_
FNDA:0,_ZNSt10_Head_baseILm2ESt12_PlaceholderILi2EELb1EE7_M_headERS2_
FN:124,_ZNSt10_Head_baseILm1ESt12_PlaceholderILi1EELb1EE7_M_headERS2_
FNDA:0,_ZNSt10_Head_baseILm1ESt12_PlaceholderILi1EELb1EE7_M_headERS2_
FN:124,_ZNSt10_Head_baseILm1ESt14default_deleteI15waitable_threadELb1EE7_M_headERS3_
FNDA:0,_ZNSt10_Head_baseILm1ESt14default_deleteI15waitable_threadELb1EE7_M_headERS3_
FN:189,_ZNSt10_Head_baseILm0EP15waitable_threadLb0EEC2Ev
FNDA:3,_ZNSt10_Head_baseILm0EP15waitable_threadLb0EEC2Ev
FN:192,_ZNSt10_Head_baseILm1ERNSt7__cxx1112basic_stringIcSt11char_traitsIcESaIcEEELb0EEC2ES6_
FNDA:0,_ZNSt10_Head_baseILm1ERNSt7__cxx1112basic_stringIcSt11char_traitsIcESaIcEEELb0EEC2ES6_
FN:199,_ZNSt10_Head_baseILm0EP6vpgnixLb0EEC2IS1_EEOT_
FNDA:0,_ZNSt10_Head_baseILm0EP6vpgnixLb0EEC2IS1_EEOT_
FN:199,_ZNSt10_Head_baseILm0EOiLb0EEC2IiEEOT_
FNDA:0,_ZNSt10_Head_baseILm0EOiLb0EEC2IiEEOT_
FN:233,_ZNSt10_Head_baseILm0EOiLb0EE7_M_headERS1_
FNDA:0,_ZNSt10_Head_baseILm0EOiLb0EE7_M_headERS1_
FN:233,_ZNSt10_Head_baseILm0EP15waitable_threadLb0EE7_M_headERS2_
FNDA:3,_ZNSt10_Head_baseILm0EP15waitable_threadLb0EE7_M_headERS2_
FN:233,_ZNSt10_Head_baseILm1ERNSt7__cxx1112basic_stringIcSt11char_traitsIcESaIcEEELb0EE7_M_headERS7_
FNDA:0,_ZNSt10_Head_baseILm1ERNSt7__cxx1112basic_stringIcSt11char_traitsIcESaIcEEELb0EE7_M_headERS7_
FN:233,_ZNSt10_Head_baseILm0EP6vpgnixLb0EE7_M_headERS2_
FNDA:0,_ZNSt10_Head_baseILm0EP6vpgnixLb0EE7_M_headERS2_
FN:236,_ZNSt10_Head_baseILm0EP15waitable_threadLb0EE7_M_headERKS2_
FNDA:0,_ZNSt10_Head_baseILm0EP15waitable_threadLb0EE7_M_headERKS2_
FN:268,_ZNSt11_Tuple_implILm1EJSt12_PlaceholderILi1EES0_ILi2EEEE7_M_headERS3_
FNDA:0,_ZNSt11_Tuple_implILm1EJSt12_PlaceholderILi1EES0_ILi2EEEE7_M_headERS3_
FN:268,_ZNSt11_Tuple_implILm0EJOiRNSt7__cxx1112basic_stringIcSt11char_traitsIcESaIcEEEEE7_M_headERS8_
FNDA:0,_ZNSt11_Tuple_implILm0EJOiRNSt7__cxx1112basic_stringIcSt11char_traitsIcESaIcEEEEE7_M_headERS8_
FN:268,_ZNSt11_Tuple_implILm0EJP15waitable_threadSt14default_deleteIS0_EEE7_M_headERS4_
FNDA:3,_ZNSt11_Tuple_implILm0EJP15waitable_threadSt14default_deleteIS0_EEE7_M_headERS4_
FN:268,_ZNSt11_Tuple_implILm0EJP6vpgnixSt12_PlaceholderILi1EES2_ILi2EEEE7_M_headERS5_
FNDA:0,_ZNSt11_Tuple_implILm0EJP6vpgnixSt12_PlaceholderILi1EES2_ILi2EEEE7_M_headERS5_
FN:271,_ZNSt11_Tuple_implILm0EJP15waitable_threadSt14default_deleteIS0_EEE7_M_headERKS4_
FNDA:0,_ZNSt11_Tuple_implILm0EJP15waitable_threadSt14default_deleteIS0_EEE7_M_headERKS4_
FN:279,_ZNSt11_Tuple_implILm0EJP15waitable_threadSt14default_deleteIS0_EEEC2Ev
FNDA:3,_ZNSt11_Tuple_implILm0EJP15waitable_threadSt14default_deleteIS0_EEEC2Ev
FN:283,_ZNSt11_Tuple_implILm1EJSt12_PlaceholderILi1EES0_ILi2EEEEC2ERKS1_RKS2_
FNDA:0,_ZNSt11_Tuple_implILm1EJSt12_PlaceholderILi1EES0_ILi2EEEEC2ERKS1_RKS2_
FN:290,_ZNSt11_Tuple_implILm0EJOiRNSt7__cxx1112basic_stringIcSt11char_traitsIcESaIcEEEEEC2IiJS7_EvEEOT_DpOT0_
FNDA:0,_ZNSt11_Tuple_implILm0EJOiRNSt7__cxx1112basic_stringIcSt11char_traitsIcESaIcEEEEEC2IiJS7_EvEEOT_DpOT0_
FN:290,_ZNSt11_Tuple_implILm0EJP6vpgnixSt12_PlaceholderILi1EES2_ILi2EEEEC2IS1_JRKS3_RKS4_EvEEOT_DpOT0_
FNDA:0,_ZNSt11_Tuple_implILm0EJP6vpgnixSt12_PlaceholderILi1EES2_ILi2EEEEC2IS1_JRKS3_RKS4_EvEEOT_DpOT0_
FN:301,_ZNSt11_Tuple_implILm1EJSt12_PlaceholderILi1EES0_ILi2EEEEC2EOS3_
FNDA:0,_ZNSt11_Tuple_implILm1EJSt12_PlaceholderILi1EES0_ILi2EEEEC2EOS3_
FN:301,_ZNSt11_Tuple_implILm0EJP6vpgnixSt12_PlaceholderILi1EES2_ILi2EEEEC2EOS5_
FNDA:0,_ZNSt11_Tuple_implILm0EJP6vpgnixSt12_PlaceholderILi1EES2_ILi2EEEEC2EOS5_
FN:424,_ZNSt11_Tuple_implILm2EJSt12_PlaceholderILi2EEEE7_M_headERS2_
FNDA:0,_ZNSt11_Tuple_implILm2EJSt12_PlaceholderILi2EEEE7_M_headERS2_
FN:424,_ZNSt11_Tuple_implILm1EJRNSt7__cxx1112basic_stringIcSt11char_traitsIcESaIcEEEEE7_M_headERS7_
FNDA:0,_ZNSt11_Tuple_implILm1EJRNSt7__cxx1112basic_stringIcSt11char_traitsIcESaIcEEEEE7_M_headERS7_
FN:424,_ZNSt11_Tuple_implILm1EJSt14default_deleteI15waitable_threadEEE7_M_headERS3_
FNDA:0,_ZNSt11_Tuple_implILm1EJSt14default_deleteI15waitable_threadEEE7_M_headERS3_
FN:430,_ZNSt11_Tuple_implILm1EJSt14default_deleteI15waitable_threadEEEC2Ev
FNDA:3,_ZNSt11_Tuple_implILm1EJSt14default_deleteI15waitable_threadEEEC2Ev
FN:434,_ZNSt11_Tuple_implILm1EJRNSt7__cxx1112basic_stringIcSt11char_traitsIcESaIcEEEEEC2ES6_
FNDA:0,_ZNSt11_Tuple_implILm1EJRNSt7__cxx1112basic_stringIcSt11char_traitsIcESaIcEEEEEC2ES6_
FN:434,_ZNSt11_Tuple_implILm2EJSt12_PlaceholderILi2EEEEC2ERKS1_
FNDA:0,_ZNSt11_Tuple_implILm2EJSt12_PlaceholderILi2EEEEC2ERKS1_
FN:454,_ZNSt11_Tuple_implILm2EJSt12_PlaceholderILi2EEEEC2EOS2_
FNDA:0,_ZNSt11_Tuple_implILm2EJSt12_PlaceholderILi2EEEEC2EOS2_
FN:746,_ZNSt5tupleIJP6vpgnixSt12_PlaceholderILi1EES2_ILi2EEEEC2IJS1_RKS3_RKS4_ELb1ELb1EEEDpOT_
FNDA:0,_ZNSt5tupleIJP6vpgnixSt12_PlaceholderILi1EES2_ILi2EEEEC2IJS1_RKS3_RKS4_ELb1ELb1EEEDpOT_
FN:760,_ZNSt5tupleIJP6vpgnixSt12_PlaceholderILi1EES2_ILi2EEEEC2EOS5_
FNDA:0,_ZNSt5tupleIJP6vpgnixSt12_PlaceholderILi1EES2_ILi2EEEEC2EOS5_
FN:1053,_ZNSt5tupleIJP15waitable_threadSt14default_deleteIS0_EEEC2ILb1ELb1EEEv
FNDA:3,_ZNSt5tupleIJP15waitable_threadSt14default_deleteIS0_EEEC2ILb1ELb1EEEv
FN:1081,_ZNSt5tupleIJOiRNSt7__cxx1112basic_stringIcSt11char_traitsIcESaIcEEEEEC2IiS7_Lb1EEEOT_OT0_
FNDA:0,_ZNSt5tupleIJOiRNSt7__cxx1112basic_stringIcSt11char_traitsIcESaIcEEEEEC2IiS7_Lb1EEEOT_OT0_
FN:1381,_ZSt12__get_helperILm0EP15waitable_threadJSt14default_deleteIS0_EEERT0_RSt11_Tuple_implIXT_EJS4_DpT1_EE
FNDA:3,_ZSt12__get_helperILm0EP15waitable_threadJSt14default_deleteIS0_EEERT0_RSt11_Tuple_implIXT_EJS4_DpT1_EE
FN:1381,_ZSt12__get_helperILm0EP6vpgnixJSt12_PlaceholderILi1EES2_ILi2EEEERT0_RSt11_Tuple_implIXT_EJS5_DpT1_EE
FNDA:0,_ZSt12__get_helperILm0EP6vpgnixJSt12_PlaceholderILi1EES2_ILi2EEEERT0_RSt11_Tuple_implIXT_EJS5_DpT1_EE
FN:1381,_ZSt12__get_helperILm1ESt14default_deleteI15waitable_threadEJEERT0_RSt11_Tuple_implIXT_EJS3_DpT1_EE
FNDA:0,_ZSt12__get_helperILm1ESt14default_deleteI15waitable_threadEJEERT0_RSt11_Tuple_implIXT_EJS3_DpT1_EE
FN:1381,_ZSt12__get_helperILm2ESt12_PlaceholderILi2EEJEERT0_RSt11_Tuple_implIXT_EJS2_DpT1_EE
FNDA:0,_ZSt12__get_helperILm2ESt12_PlaceholderILi2EEJEERT0_RSt11_Tuple_implIXT_EJS2_DpT1_EE
FN:1381,_ZSt12__get_helperILm1ERNSt7__cxx1112basic_stringIcSt11char_traitsIcESaIcEEEJEERT0_RSt11_Tuple_implIXT_EJS7_DpT1_EE
FNDA:0,_ZSt12__get_helperILm1ERNSt7__cxx1112basic_stringIcSt11char_traitsIcESaIcEEEJEERT0_RSt11_Tuple_implIXT_EJS7_DpT1_EE
FN:1381,_ZSt12__get_helperILm0EOiJRNSt7__cxx1112basic_stringIcSt11char_traitsIcESaIcEEEEERT0_RSt11_Tuple_implIXT_EJS8_DpT1_EE
FNDA:0,_ZSt12__get_helperILm0EOiJRNSt7__cxx1112basic_stringIcSt11char_traitsIcESaIcEEEEERT0_RSt11_Tuple_implIXT_EJS8_DpT1_EE
FN:1381,_ZSt12__get_helperILm1ESt12_PlaceholderILi1EEJS0_ILi2EEEERT0_RSt11_Tuple_implIXT_EJS3_DpT1_EE
FNDA:0,_ZSt12__get_helperILm1ESt12_PlaceholderILi1EEJS0_ILi2EEEERT0_RSt11_Tuple_implIXT_EJS3_DpT1_EE
FN:1386,_ZSt12__get_helperILm0EP15waitable_threadJSt14default_deleteIS0_EEERKT0_RKSt11_Tuple_implIXT_EJS4_DpT1_EE
FNDA:0,_ZSt12__get_helperILm0EP15waitable_threadJSt14default_deleteIS0_EEERKT0_RKSt11_Tuple_implIXT_EJS4_DpT1_EE
FN:1397,_ZSt3getILm1EJP15waitable_threadSt14default_deleteIS0_EEERNSt13tuple_elementIXT_ESt5tupleIJDpT0_EEE4typeERS8_
FNDA:0,_ZSt3getILm1EJP15waitable_threadSt14default_deleteIS0_EEERNSt13tuple_elementIXT_ESt5tupleIJDpT0_EEE4typeERS8_
FN:1397,_ZSt3getILm0EJP15waitable_threadSt14default_deleteIS0_EEERNSt13tuple_elementIXT_ESt5tupleIJDpT0_EEE4typeERS8_
FNDA:3,_ZSt3getILm0EJP15waitable_threadSt14default_deleteIS0_EEERNSt13tuple_elementIXT_ESt5tupleIJDpT0_EEE4typeERS8_
FN:1397,_ZSt3getILm0EJP6vpgnixSt12_PlaceholderILi1EES2_ILi2EEEERNSt13tuple_elementIXT_ESt5tupleIJDpT0_EEE4typeERS9_
FNDA:0,_ZSt3getILm0EJP6vpgnixSt12_PlaceholderILi1EES2_ILi2EEEERNSt13tuple_elementIXT_ESt5tupleIJDpT0_EEE4typeERS9_
FN:1397,_ZSt3getILm1EJP6vpgnixSt12_PlaceholderILi1EES2_ILi2EEEERNSt13tuple_elementIXT_ESt5tupleIJDpT0_EEE4typeERS9_
FNDA:0,_ZSt3getILm1EJP6vpgnixSt12_PlaceholderILi1EES2_ILi2EEEERNSt13tuple_elementIXT_ESt5tupleIJDpT0_EEE4typeERS9_
FN:1397,_ZSt3getILm2EJP6vpgnixSt12_PlaceholderILi1EES2_ILi2EEEERNSt13tuple_elementIXT_ESt5tupleIJDpT0_EEE4typeERS9_
FNDA:0,_ZSt3getILm2EJP6vpgnixSt12_PlaceholderILi1EES2_ILi2EEEERNSt13tuple_elementIXT_ESt5tupleIJDpT0_EEE4typeERS9_
FN:1403,_ZSt3getILm0EJP15waitable_threadSt14default_deleteIS0_EEERKNSt13tuple_elementIXT_ESt5tupleIJDpT0_EEE4typeERKS8_
FNDA:0,_ZSt3getILm0EJP15waitable_threadSt14default_deleteIS0_EEERKNSt13tuple_elementIXT_ESt5tupleIJDpT0_EEE4typeERKS8_
FN:1409,_ZSt3getILm1EJOiRNSt7__cxx1112basic_stringIcSt11char_traitsIcESaIcEEEEEONSt13tuple_elementIXT_ESt5tupleIJDpT0_EEE4typeEOSC_
FNDA:0,_ZSt3getILm1EJOiRNSt7__cxx1112basic_stringIcSt11char_traitsIcESaIcEEEEEONSt13tuple_elementIXT_ESt5tupleIJDpT0_EEE4typeEOSC_
FN:1409,_ZSt3getILm0EJOiRNSt7__cxx1112basic_stringIcSt11char_traitsIcESaIcEEEEEONSt13tuple_elementIXT_ESt5tupleIJDpT0_EEE4typeEOSC_
FNDA:0,_ZSt3getILm0EJOiRNSt7__cxx1112basic_stringIcSt11char_traitsIcESaIcEEEEEONSt13tuple_elementIXT_ESt5tupleIJDpT0_EEE4typeEOSC_
FN:1621,_ZSt16forward_as_tupleIJiRNSt7__cxx1112basic_stringIcSt11char_traitsIcESaIcEEEEESt5tupleIJDpOT_EESA_
FNDA:0,_ZSt16forward_as_tupleIJiRNSt7__cxx1112basic_stringIcSt11char_traitsIcESaIcEEEEESt5tupleIJDpOT_EESA_
DA:80,3
DA:81,3
DA:83,0
DA:84,0
DA:83,0
DA:84,0
DA:124,0
DA:124,0
DA:124,0
DA:189,3
DA:190,3
DA:192,0
DA:193,0
DA:199,0
DA:200,0
DA:199,0
DA:200,0
DA:233,0
DA:233,0
DA:233,0
DA:233,3
DA:236,0
DA:268,0
DA:268,0
DA:268,0
DA:268,3
DA:271,0
DA:279,3
DA:280,3
DA:283,0
DA:284,0
DA:285,0
DA:290,0
DA:292,0
DA:293,0
DA:290,0
DA:292,0
DA:293,0
DA:301,0
DA:301,0
DA:424,0
DA:424,0
DA:424,0
DA:430,3
DA:431,3
DA:434,0
DA:435,0
DA:436,0
DA:434,0
DA:435,0
DA:436,0
DA:454,0
DA:457,0
DA:746,0
DA:748,0
DA:760,0
DA:1053,3
DA:1055,3
DA:1081,0
DA:1083,0
DA:1381,0
DA:1382,0
DA:1381,0
DA:1382,0
DA:1381,0
DA:1382,0
DA:1381,0
DA:1382,0
DA:1381,0
DA:1382,0
DA:1381,0
DA:1382,0
DA:1381,3
DA:1382,3
DA:1386,0
DA:1387,0
DA:1397,0
DA:1398,0
DA:1397,0
DA:1398,0
DA:1397,0
DA:1398,0
DA:1397,0
DA:1398,0
DA:1397,3
DA:1398,3
DA:1403,0
DA:1404,0
DA:1409,0
DA:1412,0
DA:1409,0
DA:1412,0
DA:1621,0
DA:1622,0
end_of_record
SF:/home/yackey/projects/waitables/vpgnixApp/src/vpgnix.cpp
FN:12,_ZN6vpgnixC2ESt10shared_ptrI14waitable_eventES0_I10corethreadES2_S0_I7ILoggerE
FNDA:1,_ZN6vpgnixC2ESt10shared_ptrI14waitable_eventES0_I10corethreadES2_S0_I7ILoggerE
FN:22,_ZN6vpgnix5startEv
FNDA:0,_ZN6vpgnix5startEv
FN:36,_ZN6vpgnix3runEiRNSt7__cxx1112basic_stringIcSt11char_traitsIcESaIcEEE
FNDA:0,_ZN6vpgnix3runEiRNSt7__cxx1112basic_stringIcSt11char_traitsIcESaIcEEE
FN:78,_ZN6vpgnix13handleMessageEi
FNDA:0,_ZN6vpgnix13handleMessageEi
FN:86,_ZN6vpgnix4stopEv
FNDA:0,_ZN6vpgnix4stopEv
DA:12,1
DA:15,1
DA:16,1
DA:17,1
DA:18,1
DA:19,1
DA:20,1
DA:22,0
DA:23,0
DA:24,0
DA:25,0
DA:26,0
DA:28,0
DA:29,0
DA:30,0
DA:31,0
DA:33,0
DA:34,0
DA:36,0
DA:37,0
DA:40,0
DA:41,0
DA:42,0
DA:43,0
DA:44,0
DA:46,0
DA:47,0
DA:48,0
DA:49,0
DA:51,0
DA:52,0
DA:54,0
DA:55,0
DA:56,0
DA:57,0
DA:59,0
DA:60,0
DA:61,0
DA:62,0
DA:63,0
DA:64,0
DA:66,0
DA:68,0
DA:71,0
DA:72,0
DA:73,0
DA:75,0
DA:76,0
DA:78,0
DA:81,0
DA:82,0
DA:84,0
DA:86,0
DA:87,0
DA:88,0
DA:89,0
DA:90,0
DA:91,0
DA:93,0
DA:94,0
DA:96,0
DA:97,0
DA:99,0
DA:102,0
DA:104,0
DA:105,0
DA:106,0
DA:107,0
DA:109,0
DA:110,0
DA:111,0
DA:112,0
DA:113,0
DA:115,0
DA:117,0
DA:120,0
DA:121,0
DA:122,0
DA:123,0
end_of_record
SF:/usr/include/c++/11/bits/move.h
FN:49,_ZSt11__addressofISaISt23_Sp_counted_ptr_inplaceI4wfmoSaIS1_ELN9__gnu_cxx12_Lock_policyE2EEEEPT_RS7_
FNDA:0,_ZSt11__addressofISaISt23_Sp_counted_ptr_inplaceI4wfmoSaIS1_ELN9__gnu_cxx12_Lock_policyE2EEEEPT_RS7_
FN:49,_ZSt11__addressofISaISt23_Sp_counted_ptr_inplaceI19waitableMessageSinkSaIS1_ELN9__gnu_cxx12_Lock_policyE2EEEEPT_RS7_
FNDA:0,_ZSt11__addressofISaISt23_Sp_counted_ptr_inplaceI19waitableMessageSinkSaIS1_ELN9__gnu_cxx12_Lock_policyE2EEEEPT_RS7_
FN:49,_ZSt11__addressofIKcEPT_RS1_
FNDA:0,_ZSt11__addressofIKcEPT_RS1_
FN:49,_ZSt11__addressofIcEPT_RS0_
FNDA:0,_ZSt11__addressofIcEPT_RS0_
FN:77,_ZSt7forwardIRKSt12_PlaceholderILi2EEEOT_RNSt16remove_referenceIS4_E4typeE
FNDA:0,_ZSt7forwardIRKSt12_PlaceholderILi2EEEOT_RNSt16remove_referenceIS4_E4typeE
FN:77,_ZSt7forwardIRSt3mapIiiSt4lessIiESaISt4pairIKiiEEEEOT_RNSt16remove_referenceIS9_E4typeE
FNDA:0,_ZSt7forwardIRSt3mapIiiSt4lessIiESaISt4pairIKiiEEEEOT_RNSt16remove_referenceIS9_E4typeE
FN:77,_ZSt7forwardISt4pairIiiEEOT_RNSt16remove_referenceIS2_E4typeE
FNDA:0,_ZSt7forwardISt4pairIiiEEOT_RNSt16remove_referenceIS2_E4typeE
FN:77,_ZSt7forwardIRSt10shared_ptrI7ILoggerEEOT_RNSt16remove_referenceIS4_E4typeE
FNDA:0,_ZSt7forwardIRSt10shared_ptrI7ILoggerEEOT_RNSt16remove_referenceIS4_E4typeE
FN:77,_ZSt7forwardISt14default_deleteI15waitable_threadEEOT_RNSt16remove_referenceIS3_E4typeE
FNDA:0,_ZSt7forwardISt14default_deleteI15waitable_threadEEOT_RNSt16remove_referenceIS3_E4typeE
FN:77,_ZSt7forwardIRSt8functionIFviRNSt7__cxx1112basic_stringIcSt11char_traitsIcESaIcEEEEEEOT_RNSt16remove_referenceISB_E4typeE
FNDA:0,_ZSt7forwardIRSt8functionIFviRNSt7__cxx1112basic_stringIcSt11char_traitsIcESaIcEEEEEEOT_RNSt16remove_referenceISB_E4typeE
FN:77,_ZSt7forwardIRKiEOT_RNSt16remove_referenceIS2_E4typeE
FNDA:0,_ZSt7forwardIRKiEOT_RNSt16remove_referenceIS2_E4typeE
FN:77,_ZSt7forwardIRNSt7__cxx1112basic_stringIcSt11char_traitsIcESaIcEEEEOT_RNSt16remove_referenceIS7_E4typeE
FNDA:0,_ZSt7forwardIRNSt7__cxx1112basic_stringIcSt11char_traitsIcESaIcEEEEOT_RNSt16remove_referenceIS7_E4typeE
FN:77,_ZSt7forwardISt5_BindIFM6vpgnixFviRNSt7__cxx1112basic_stringIcSt11char_traitsIcESaIcEEEEPS1_St12_PlaceholderILi1EESC_ILi2EEEEEOT_RNSt16remove_referenceISH_E4typeE
FNDA:0,_ZSt7forwardISt5_BindIFM6vpgnixFviRNSt7__cxx1112basic_stringIcSt11char_traitsIcESaIcEEEEPS1_St12_PlaceholderILi1EESC_ILi2EEEEEOT_RNSt16remove_referenceISH_E4typeE
FN:77,_ZSt7forwardIOiEOT_RNSt16remove_referenceIS1_E4typeE
FNDA:0,_ZSt7forwardIOiEOT_RNSt16remove_referenceIS1_E4typeE
FN:77,_ZSt7forwardIRKSt12_PlaceholderILi1EEEOT_RNSt16remove_referenceIS4_E4typeE
FNDA:0,_ZSt7forwardIRKSt12_PlaceholderILi1EEEOT_RNSt16remove_referenceIS4_E4typeE
FN:77,_ZSt7forwardIP6vpgnixEOT_RNSt16remove_referenceIS2_E4typeE
FNDA:0,_ZSt7forwardIP6vpgnixEOT_RNSt16remove_referenceIS2_E4typeE
FN:77,_ZSt7forwardIM6vpgnixFviRNSt7__cxx1112basic_stringIcSt11char_traitsIcESaIcEEEEEOT_RNSt16remove_referenceISA_E4typeE
FNDA:0,_ZSt7forwardIM6vpgnixFviRNSt7__cxx1112basic_stringIcSt11char_traitsIcESaIcEEEEEOT_RNSt16remove_referenceISA_E4typeE
FN:77,_ZSt7forwardIbEOT_RNSt16remove_referenceIS0_E4typeE
FNDA:0,_ZSt7forwardIbEOT_RNSt16remove_referenceIS0_E4typeE
FN:77,_ZSt7forwardIiEOT_RNSt16remove_referenceIS0_E4typeE
FNDA:8,_ZSt7forwardIiEOT_RNSt16remove_referenceIS0_E4typeE
FN:77,_ZSt7forwardIRKSt4pairIKiiEEOT_RNSt16remove_referenceIS5_E4typeE
FNDA:0,_ZSt7forwardIRKSt4pairIKiiEEOT_RNSt16remove_referenceIS5_E4typeE
FN:77,_ZSt7forwardIRM6vpgnixFviRNSt7__cxx1112basic_stringIcSt11char_traitsIcESaIcEEEEEOT_RNSt16remove_referenceISB_E4typeE
FNDA:0,_ZSt7forwardIRM6vpgnixFviRNSt7__cxx1112basic_stringIcSt11char_traitsIcESaIcEEEEEOT_RNSt16remove_referenceISB_E4typeE
FN:77,_ZSt7forwardIRSt5_BindIFM6vpgnixFviRNSt7__cxx1112basic_stringIcSt11char_traitsIcESaIcEEEEPS1_St12_PlaceholderILi1EESC_ILi2EEEEEOT_RNSt16remove_referenceISI_E4typeE
FNDA:0,_ZSt7forwardIRSt5_BindIFM6vpgnixFviRNSt7__cxx1112basic_stringIcSt11char_traitsIcESaIcEEEEPS1_St12_PlaceholderILi1EESC_ILi2EEEEEOT_RNSt16remove_referenceISI_E4typeE
FN:77,_ZSt7forwardISt17_Rb_tree_iteratorISt4pairIKiiEEEOT_RNSt16remove_referenceIS5_E4typeE
FNDA:0,_ZSt7forwardISt17_Rb_tree_iteratorISt4pairIKiiEEEOT_RNSt16remove_referenceIS5_E4typeE
FN:77,_ZSt7forwardIRKSt5_BindIFM6vpgnixFviRNSt7__cxx1112basic_stringIcSt11char_traitsIcESaIcEEEEPS1_St12_PlaceholderILi1EESC_ILi2EEEEEOT_RNSt16remove_referenceISJ_E4typeE
FNDA:0,_ZSt7forwardIRKSt5_BindIFM6vpgnixFviRNSt7__cxx1112basic_stringIcSt11char_traitsIcESaIcEEEEPS1_St12_PlaceholderILi1EESC_ILi2EEEEEOT_RNSt16remove_referenceISJ_E4typeE
FN:77,_ZSt7forwardIRP6vpgnixEOT_RNSt16remove_referenceIS3_E4typeE
FNDA:0,_ZSt7forwardIRP6vpgnixEOT_RNSt16remove_referenceIS3_E4typeE
FN:77,_ZSt7forwardIRPSt13_Rb_tree_nodeISt4pairIKiiEEEOT_RNSt16remove_referenceIS7_E4typeE
FNDA:0,_ZSt7forwardIRPSt13_Rb_tree_nodeISt4pairIKiiEEEOT_RNSt16remove_referenceIS7_E4typeE
FN:77,_ZSt7forwardIRPSt18_Rb_tree_node_baseEOT_RNSt16remove_referenceIS3_E4typeE
FNDA:0,_ZSt7forwardIRPSt18_Rb_tree_node_baseEOT_RNSt16remove_referenceIS3_E4typeE
FN:104,_ZSt4moveIRP20IWaitableMessageSinkEONSt16remove_referenceIT_E4typeEOS4_
FNDA:0,_ZSt4moveIRP20IWaitableMessageSinkEONSt16remove_referenceIT_E4typeEOS4_
FN:104,_ZSt4moveIRSaIcEEONSt16remove_referenceIT_E4typeEOS3_
FNDA:0,_ZSt4moveIRSaIcEEONSt16remove_referenceIT_E4typeEOS3_
FN:104,_ZSt4moveIRP15waitable_threadEONSt16remove_referenceIT_E4typeEOS4_
FNDA:0,_ZSt4moveIRP15waitable_threadEONSt16remove_referenceIT_E4typeEOS4_
FN:104,_ZSt4moveIRSt5tupleIJOiRNSt7__cxx1112basic_stringIcSt11char_traitsIcESaIcEEEEEEONSt16remove_referenceIT_E4typeEOSC_
FNDA:0,_ZSt4moveIRSt5tupleIJOiRNSt7__cxx1112basic_stringIcSt11char_traitsIcESaIcEEEEEEONSt16remove_referenceIT_E4typeEOSC_
FN:104,_ZSt4moveIRM6vpgnixFviRNSt7__cxx1112basic_stringIcSt11char_traitsIcESaIcEEEEEONSt16remove_referenceIT_E4typeEOSC_
FNDA:0,_ZSt4moveIRM6vpgnixFviRNSt7__cxx1112basic_stringIcSt11char_traitsIcESaIcEEEEEONSt16remove_referenceIT_E4typeEOSC_
FN:104,_ZSt4moveIRSt10shared_ptrI19waitableMessageSinkEEONSt16remove_referenceIT_E4typeEOS5_
FNDA:0,_ZSt4moveIRSt10shared_ptrI19waitableMessageSinkEEONSt16remove_referenceIT_E4typeEOS5_
FN:104,_ZSt4moveIRSt12__shared_ptrI19waitableMessageSinkLN9__gnu_cxx12_Lock_policyE2EEEONSt16remove_referenceIT_E4typeEOS7_
FNDA:0,_ZSt4moveIRSt12__shared_ptrI19waitableMessageSinkLN9__gnu_cxx12_Lock_policyE2EEEONSt16remove_referenceIT_E4typeEOS7_
FN:145,_ZSt9addressofIKcEPT_RS1_
FNDA:0,_ZSt9addressofIKcEPT_RS1_
FN:145,_ZSt9addressofIcEPT_RS0_
FNDA:0,_ZSt9addressofIcEPT_RS0_
FN:196,_ZSt4swapIP20IWaitableMessageSinkENSt9enable_ifIXsrSt6__and_IJSt6__not_ISt15__is_tuple_likeIT_EESt21is_move_constructibleIS6_ESt18is_move_assignableIS6_EEE5valueEvE4typeERS6_SG_
FNDA:0,_ZSt4swapIP20IWaitableMessageSinkENSt9enable_ifIXsrSt6__and_IJSt6__not_ISt15__is_tuple_likeIT_EESt21is_move_constructibleIS6_ESt18is_move_assignableIS6_EEE5valueEvE4typeERS6_SG_
DA:49,0
DA:50,0
DA:49,0
DA:50,0
DA:49,0
DA:50,0
DA:49,0
DA:50,0
DA:77,0
DA:78,0
DA:77,8
DA:78,8
DA:77,0
DA:78,0
DA:77,0
DA:78,0
DA:77,0
DA:78,0
DA:77,0
DA:78,0
DA:77,0
DA:78,0
DA:77,0
DA:78,0
DA:77,0
DA:78,0
DA:77,0
DA:78,0
DA:77,0
DA:78,0
DA:77,0
DA:78,0
DA:77,0
DA:78,0
DA:77,0
DA:78,0
DA:77,0
DA:78,0
DA:77,0
DA:78,0
DA:77,0
DA:78,0
DA:77,0
DA:78,0
DA:77,0
DA:78,0
DA:77,0
DA:78,0
DA:77,0
DA:78,0
DA:77,0
DA:78,0
DA:77,0
DA:78,0
DA:104,0
DA:105,0
DA:104,0
DA:105,0
DA:104,0
DA:105,0
DA:104,0
DA:105,0
DA:104,0
DA:105,0
DA:104,0
DA:105,0
DA:104,0
DA:105,0
DA:145,0
DA:146,0
DA:145,0
DA:146,0
DA:196,0
DA:204,0
DA:205,0
DA:206,0
DA:207,0
end_of_record
SF:/usr/include/c++/11/bits/shared_ptr_base.h
FN:126,_ZNSt16_Sp_counted_baseILN9__gnu_cxx12_Lock_policyE2EEC2Ev
FNDA:0,_ZNSt16_Sp_counted_baseILN9__gnu_cxx12_Lock_policyE2EEC2Ev
FN:130,_ZNSt16_Sp_counted_baseILN9__gnu_cxx12_Lock_policyE2EED2Ev
FNDA:0,_ZNSt16_Sp_counted_baseILN9__gnu_cxx12_Lock_policyE2EED2Ev
FN:130,_ZNSt16_Sp_counted_baseILN9__gnu_cxx12_Lock_policyE2EED0Ev
FNDA:0,_ZNSt16_Sp_counted_baseILN9__gnu_cxx12_Lock_policyE2EED0Ev
FN:140,_ZNSt16_Sp_counted_baseILN9__gnu_cxx12_Lock_policyE2EE10_M_destroyEv
FNDA:0,_ZNSt16_Sp_counted_baseILN9__gnu_cxx12_Lock_policyE2EE10_M_destroyEv
FN:147,_ZNSt16_Sp_counted_baseILN9__gnu_cxx12_Lock_policyE2EE15_M_add_ref_copyEv
FNDA:0,_ZNSt16_Sp_counted_baseILN9__gnu_cxx12_Lock_policyE2EE15_M_add_ref_copyEv
FN:161,_ZNSt16_Sp_counted_baseILN9__gnu_cxx12_Lock_policyE2EE10_M_releaseEv
FNDA:0,_ZNSt16_Sp_counted_baseILN9__gnu_cxx12_Lock_policyE2EE10_M_releaseEv
FN:385,_ZNSt14_Sp_ebo_helperILi0ESaI19waitableMessageSinkELb1EEC2ERKS1_
FNDA:0,_ZNSt14_Sp_ebo_helperILi0ESaI19waitableMessageSinkELb1EEC2ERKS1_
FN:385,_ZNSt14_Sp_ebo_helperILi0ESaI4wfmoELb1EEC2ERKS1_
FNDA:0,_ZNSt14_Sp_ebo_helperILi0ESaI4wfmoELb1EEC2ERKS1_
FN:389,_ZNSt14_Sp_ebo_helperILi0ESaI4wfmoELb1EE6_S_getERS2_
FNDA:0,_ZNSt14_Sp_ebo_helperILi0ESaI4wfmoELb1EE6_S_getERS2_
FN:389,_ZNSt14_Sp_ebo_helperILi0ESaI19waitableMessageSinkELb1EE6_S_getERS2_
FNDA:0,_ZNSt14_Sp_ebo_helperILi0ESaI19waitableMessageSinkELb1EE6_S_getERS2_
FN:479,_ZNSt19_Sp_make_shared_tag5_S_tiEv
FNDA:0,_ZNSt19_Sp_make_shared_tag5_S_tiEv
FN:502,_ZNSt23_Sp_counted_ptr_inplaceI4wfmoSaIS0_ELN9__gnu_cxx12_Lock_policyE2EE5_ImplC2ES1_
FNDA:0,_ZNSt23_Sp_counted_ptr_inplaceI4wfmoSaIS0_ELN9__gnu_cxx12_Lock_policyE2EE5_ImplC2ES1_
FN:502,_ZNSt23_Sp_counted_ptr_inplaceI19waitableMessageSinkSaIS0_ELN9__gnu_cxx12_Lock_policyE2EE5_ImplC2ES1_
FNDA:0,_ZNSt23_Sp_counted_ptr_inplaceI19waitableMessageSinkSaIS0_ELN9__gnu_cxx12_Lock_policyE2EE5_ImplC2ES1_
FN:504,_ZNSt23_Sp_counted_ptr_inplaceI19waitableMessageSinkSaIS0_ELN9__gnu_cxx12_Lock_policyE2EE5_Impl8_M_allocEv
FNDA:0,_ZNSt23_Sp_counted_ptr_inplaceI19waitableMessageSinkSaIS0_ELN9__gnu_cxx12_Lock_policyE2EE5_Impl8_M_allocEv
FN:504,_ZNSt23_Sp_counted_ptr_inplaceI4wfmoSaIS0_ELN9__gnu_cxx12_Lock_policyE2EE5_Impl8_M_allocEv
FNDA:0,_ZNSt23_Sp_counted_ptr_inplaceI4wfmoSaIS0_ELN9__gnu_cxx12_Lock_policyE2EE5_Impl8_M_allocEv
FN:514,_ZNSt23_Sp_counted_ptr_inplaceI19waitableMessageSinkSaIS0_ELN9__gnu_cxx12_Lock_policyE2EEC2IJRNSt7__cxx1112basic_stringIcSt11char_traitsIcESaIcEEERKiRSt10shared_ptrI7ILoggerEEEES1_DpOT_
FNDA:0,_ZNSt23_Sp_counted_ptr_inplaceI19waitableMessageSinkSaIS0_ELN9__gnu_cxx12_Lock_policyE2EEC2IJRNSt7__cxx1112basic_stringIcSt11char_traitsIcESaIcEEERKiRSt10shared_ptrI7ILoggerEEEES1_DpOT_
FN:514,_ZNSt23_Sp_counted_ptr_inplaceI4wfmoSaIS0_ELN9__gnu_cxx12_Lock_policyE2EEC2IJRSt3mapIiiSt4lessIiESaISt4pairIKiiEEEEEES1_DpOT_
FNDA:0,_ZNSt23_Sp_counted_ptr_inplaceI4wfmoSaIS0_ELN9__gnu_cxx12_Lock_policyE2EEC2IJRSt3mapIiiSt4lessIiESaISt4pairIKiiEEEEEES1_DpOT_
FN:523,_ZNSt23_Sp_counted_ptr_inplaceI4wfmoSaIS0_ELN9__gnu_cxx12_Lock_policyE2EED0Ev
FNDA:0,_ZNSt23_Sp_counted_ptr_inplaceI4wfmoSaIS0_ELN9__gnu_cxx12_Lock_policyE2EED0Ev
FN:523,_ZNSt23_Sp_counted_ptr_inplaceI19waitableMessageSinkSaIS0_ELN9__gnu_cxx12_Lock_policyE2EED0Ev
FNDA:0,_ZNSt23_Sp_counted_ptr_inplaceI19waitableMessageSinkSaIS0_ELN9__gnu_cxx12_Lock_policyE2EED0Ev
FN:523,_ZNSt23_Sp_counted_ptr_inplaceI19waitableMessageSinkSaIS0_ELN9__gnu_cxx12_Lock_policyE2EED2Ev
FNDA:0,_ZNSt23_Sp_counted_ptr_inplaceI19waitableMessageSinkSaIS0_ELN9__gnu_cxx12_Lock_policyE2EED2Ev
FN:523,_ZNSt23_Sp_counted_ptr_inplaceI4wfmoSaIS0_ELN9__gnu_cxx12_Lock_policyE2EED2Ev
FNDA:0,_ZNSt23_Sp_counted_ptr_inplaceI4wfmoSaIS0_ELN9__gnu_cxx12_Lock_policyE2EED2Ev
FN:526,_ZNSt23_Sp_counted_ptr_inplaceI4wfmoSaIS0_ELN9__gnu_cxx12_Lock_policyE2EE10_M_disposeEv
FNDA:0,_ZNSt23_Sp_counted_ptr_inplaceI4wfmoSaIS0_ELN9__gnu_cxx12_Lock_policyE2EE10_M_disposeEv
FN:526,_ZNSt23_Sp_counted_ptr_inplaceI19waitableMessageSinkSaIS0_ELN9__gnu_cxx12_Lock_policyE2EE10_M_disposeEv
FNDA:0,_ZNSt23_Sp_counted_ptr_inplaceI19waitableMessageSinkSaIS0_ELN9__gnu_cxx12_Lock_policyE2EE10_M_disposeEv
FN:533,_ZNSt23_Sp_counted_ptr_inplaceI19waitableMessageSinkSaIS0_ELN9__gnu_cxx12_Lock_policyE2EE10_M_destroyEv
FNDA:0,_ZNSt23_Sp_counted_ptr_inplaceI19waitableMessageSinkSaIS0_ELN9__gnu_cxx12_Lock_policyE2EE10_M_destroyEv
FN:533,_ZNSt23_Sp_counted_ptr_inplaceI4wfmoSaIS0_ELN9__gnu_cxx12_Lock_policyE2EE10_M_destroyEv
FNDA:0,_ZNSt23_Sp_counted_ptr_inplaceI4wfmoSaIS0_ELN9__gnu_cxx12_Lock_policyE2EE10_M_destroyEv
FN:546,_ZNSt23_Sp_counted_ptr_inplaceI4wfmoSaIS0_ELN9__gnu_cxx12_Lock_policyE2EE14_M_get_deleterERKSt9type_info
FNDA:0,_ZNSt23_Sp_counted_ptr_inplaceI4wfmoSaIS0_ELN9__gnu_cxx12_Lock_policyE2EE14_M_get_deleterERKSt9type_info
FN:546,_ZNSt23_Sp_counted_ptr_inplaceI19waitableMessageSinkSaIS0_ELN9__gnu_cxx12_Lock_policyE2EE14_M_get_deleterERKSt9type_info
FNDA:0,_ZNSt23_Sp_counted_ptr_inplaceI19waitableMessageSinkSaIS0_ELN9__gnu_cxx12_Lock_policyE2EE14_M_get_deleterERKSt9type_info
FN:565,_ZNSt23_Sp_counted_ptr_inplaceI4wfmoSaIS0_ELN9__gnu_cxx12_Lock_policyE2EE6_M_ptrEv
FNDA:0,_ZNSt23_Sp_counted_ptr_inplaceI4wfmoSaIS0_ELN9__gnu_cxx12_Lock_policyE2EE6_M_ptrEv
FN:565,_ZNSt23_Sp_counted_ptr_inplaceI19waitableMessageSinkSaIS0_ELN9__gnu_cxx12_Lock_policyE2EE6_M_ptrEv
FNDA:0,_ZNSt23_Sp_counted_ptr_inplaceI19waitableMessageSinkSaIS0_ELN9__gnu_cxx12_Lock_policyE2EE6_M_ptrEv
FN:587,_ZNSt14__shared_countILN9__gnu_cxx12_Lock_policyE2EEC2Ev
FNDA:0,_ZNSt14__shared_countILN9__gnu_cxx12_Lock_policyE2EEC2Ev
FN:643,_ZNSt14__shared_countILN9__gnu_cxx12_Lock_policyE2EEC2I19waitableMessageSinkSaIS4_EJRNSt7__cxx1112basic_stringIcSt11char_traitsIcESaIcEEERKiRSt10shared_ptrI7ILoggerEEEERPT_St20_Sp_alloc_shared_tagIT0_EDpOT1_
FNDA:0,_ZNSt14__shared_countILN9__gnu_cxx12_Lock_policyE2EEC2I19waitableMessageSinkSaIS4_EJRNSt7__cxx1112basic_stringIcSt11char_traitsIcESaIcEEERKiRSt10shared_ptrI7ILoggerEEEERPT_St20_Sp_alloc_shared_tagIT0_EDpOT1_
FN:643,_ZNSt14__shared_countILN9__gnu_cxx12_Lock_policyE2EEC2I4wfmoSaIS4_EJRSt3mapIiiSt4lessIiESaISt4pairIKiiEEEEEERPT_St20_Sp_alloc_shared_tagIT0_EDpOT1_
FNDA:0,_ZNSt14__shared_countILN9__gnu_cxx12_Lock_policyE2EEC2I4wfmoSaIS4_EJRSt3mapIiiSt4lessIiESaISt4pairIKiiEEEEEERPT_St20_Sp_alloc_shared_tagIT0_EDpOT1_
FN:702,_ZNSt14__shared_countILN9__gnu_cxx12_Lock_policyE2EED2Ev
FNDA:0,_ZNSt14__shared_countILN9__gnu_cxx12_Lock_policyE2EED2Ev
FN:708,_ZNSt14__shared_countILN9__gnu_cxx12_Lock_policyE2EEC2ERKS2_
FNDA:0,_ZNSt14__shared_countILN9__gnu_cxx12_Lock_policyE2EEC2ERKS2_
FN:716,_ZNSt14__shared_countILN9__gnu_cxx12_Lock_policyE2EEaSERKS2_
FNDA:0,_ZNSt14__shared_countILN9__gnu_cxx12_Lock_policyE2EEaSERKS2_
FN:731,_ZNSt14__shared_countILN9__gnu_cxx12_Lock_policyE2EE7_M_swapERS2_
FNDA:0,_ZNSt14__shared_countILN9__gnu_cxx12_Lock_policyE2EE7_M_swapERS2_
FN:984,_ZNKSt19__shared_ptr_accessI7ILoggerLN9__gnu_cxx12_Lock_policyE2ELb0ELb0EEptEv
FNDA:0,_ZNKSt19__shared_ptr_accessI7ILoggerLN9__gnu_cxx12_Lock_policyE2ELb0ELb0EEptEv
FN:984,_ZNKSt19__shared_ptr_accessI20IWaitableMessageSinkLN9__gnu_cxx12_Lock_policyE2ELb0ELb0EEptEv
FNDA:0,_ZNKSt19__shared_ptr_accessI20IWaitableMessageSinkLN9__gnu_cxx12_Lock_policyE2ELb0ELb0EEptEv
FN:984,_ZNKSt19__shared_ptr_accessI10corethreadLN9__gnu_cxx12_Lock_policyE2ELb0ELb0EEptEv
FNDA:0,_ZNKSt19__shared_ptr_accessI10corethreadLN9__gnu_cxx12_Lock_policyE2ELb0ELb0EEptEv
FN:984,_ZNKSt19__shared_ptr_accessI14waitable_eventLN9__gnu_cxx12_Lock_policyE2ELb0ELb0EEptEv
FNDA:0,_ZNKSt19__shared_ptr_accessI14waitable_eventLN9__gnu_cxx12_Lock_policyE2ELb0ELb0EEptEv
FN:984,_ZNKSt19__shared_ptr_accessI4wfmoLN9__gnu_cxx12_Lock_policyE2ELb0ELb0EEptEv
FNDA:0,_ZNKSt19__shared_ptr_accessI4wfmoLN9__gnu_cxx12_Lock_policyE2ELb0ELb0EEptEv
FN:992,_ZNKSt19__shared_ptr_accessI7ILoggerLN9__gnu_cxx12_Lock_policyE2ELb0ELb0EE6_M_getEv
FNDA:0,_ZNKSt19__shared_ptr_accessI7ILoggerLN9__gnu_cxx12_Lock_policyE2ELb0ELb0EE6_M_getEv
FN:992,_ZNKSt19__shared_ptr_accessI4wfmoLN9__gnu_cxx12_Lock_policyE2ELb0ELb0EE6_M_getEv
FNDA:0,_ZNKSt19__shared_ptr_accessI4wfmoLN9__gnu_cxx12_Lock_policyE2ELb0ELb0EE6_M_getEv
FN:992,_ZNKSt19__shared_ptr_accessI14waitable_eventLN9__gnu_cxx12_Lock_policyE2ELb0ELb0EE6_M_getEv
FNDA:0,_ZNKSt19__shared_ptr_accessI14waitable_eventLN9__gnu_cxx12_Lock_policyE2ELb0ELb0EE6_M_getEv
FN:992,_ZNKSt19__shared_ptr_accessI10corethreadLN9__gnu_cxx12_Lock_policyE2ELb0ELb0EE6_M_getEv
FNDA:0,_ZNKSt19__shared_ptr_accessI10corethreadLN9__gnu_cxx12_Lock_policyE2ELb0ELb0EE6_M_getEv
FN:992,_ZNKSt19__shared_ptr_accessI20IWaitableMessageSinkLN9__gnu_cxx12_Lock_policyE2ELb0ELb0EE6_M_getEv
FNDA:0,_ZNKSt19__shared_ptr_accessI20IWaitableMessageSinkLN9__gnu_cxx12_Lock_policyE2ELb0ELb0EE6_M_getEv
FN:1092,_ZNSt12__shared_ptrI20IWaitableMessageSinkLN9__gnu_cxx12_Lock_policyE2EEC2Ev
FNDA:2,_ZNSt12__shared_ptrI20IWaitableMessageSinkLN9__gnu_cxx12_Lock_policyE2EEC2Ev
FN:1092,_ZNSt12__shared_ptrI7ILoggerLN9__gnu_cxx12_Lock_policyE2EEC2Ev
FNDA:0,_ZNSt12__shared_ptrI7ILoggerLN9__gnu_cxx12_Lock_policyE2EEC2Ev
FN:1092,_ZNSt12__shared_ptrI14waitable_eventLN9__gnu_cxx12_Lock_policyE2EEC2Ev
FNDA:0,_ZNSt12__shared_ptrI14waitable_eventLN9__gnu_cxx12_Lock_policyE2EEC2Ev
FN:1092,_ZNSt12__shared_ptrI10corethreadLN9__gnu_cxx12_Lock_policyE2EEC2Ev
FNDA:0,_ZNSt12__shared_ptrI10corethreadLN9__gnu_cxx12_Lock_policyE2EEC2Ev
FN:1152,_ZNSt12__shared_ptrI7ILoggerLN9__gnu_cxx12_Lock_policyE2EEC2ERKS3_
FNDA:0,_ZNSt12__shared_ptrI7ILoggerLN9__gnu_cxx12_Lock_policyE2EEC2ERKS3_
FN:1153,_ZNSt12__shared_ptrI14waitable_eventLN9__gnu_cxx12_Lock_policyE2EEaSERKS3_
FNDA:5,_ZNSt12__shared_ptrI14waitable_eventLN9__gnu_cxx12_Lock_policyE2EEaSERKS3_
FN:1153,_ZNSt12__shared_ptrI10corethreadLN9__gnu_cxx12_Lock_policyE2EEaSERKS3_
FNDA:1,_ZNSt12__shared_ptrI10corethreadLN9__gnu_cxx12_Lock_policyE2EEaSERKS3_
FN:1153,_ZNSt12__shared_ptrI7ILoggerLN9__gnu_cxx12_Lock_policyE2EEaSERKS3_
FNDA:0,_ZNSt12__shared_ptrI7ILoggerLN9__gnu_cxx12_Lock_policyE2EEaSERKS3_
FN:1154,_ZNSt12__shared_ptrI10corethreadLN9__gnu_cxx12_Lock_policyE2EED2Ev
FNDA:0,_ZNSt12__shared_ptrI10corethreadLN9__gnu_cxx12_Lock_policyE2EED2Ev
FN:1154,_ZNSt12__shared_ptrI14waitable_eventLN9__gnu_cxx12_Lock_policyE2EED2Ev
FNDA:0,_ZNSt12__shared_ptrI14waitable_eventLN9__gnu_cxx12_Lock_policyE2EED2Ev
FN:1154,_ZNSt12__shared_ptrI7ILoggerLN9__gnu_cxx12_Lock_policyE2EED2Ev
FNDA:0,_ZNSt12__shared_ptrI7ILoggerLN9__gnu_cxx12_Lock_policyE2EED2Ev
FN:1154,_ZNSt12__shared_ptrI20IWaitableMessageSinkLN9__gnu_cxx12_Lock_policyE2EED2Ev
FNDA:2,_ZNSt12__shared_ptrI20IWaitableMessageSinkLN9__gnu_cxx12_Lock_policyE2EED2Ev
FN:1154,_ZNSt12__shared_ptrI19waitableMessageSinkLN9__gnu_cxx12_Lock_policyE2EED2Ev
FNDA:0,_ZNSt12__shared_ptrI19waitableMessageSinkLN9__gnu_cxx12_Lock_policyE2EED2Ev
FN:1154,_ZNSt12__shared_ptrI4wfmoLN9__gnu_cxx12_Lock_policyE2EED2Ev
FNDA:0,_ZNSt12__shared_ptrI4wfmoLN9__gnu_cxx12_Lock_policyE2EED2Ev
FN:1169,_ZNSt12__shared_ptrI20IWaitableMessageSinkLN9__gnu_cxx12_Lock_policyE2EEC2I19waitableMessageSinkvEEOS_IT_LS2_2EE
FNDA:0,_ZNSt12__shared_ptrI20IWaitableMessageSinkLN9__gnu_cxx12_Lock_policyE2EEC2I19waitableMessageSinkvEEOS_IT_LS2_2EE
FN:1256,_ZNSt12__shared_ptrI20IWaitableMessageSinkLN9__gnu_cxx12_Lock_policyE2EEaSI19waitableMessageSinkEENSt9enable_ifIXsrSt20__sp_compatible_withIPT_PS0_E5valueERS3_E4typeEOS_IS8_LS2_2EE
FNDA:0,_ZNSt12__shared_ptrI20IWaitableMessageSinkLN9__gnu_cxx12_Lock_policyE2EEaSI19waitableMessageSinkEENSt9enable_ifIXsrSt20__sp_compatible_withIPT_PS0_E5valueERS3_E4typeEOS_IS8_LS2_2EE
FN:1295,_ZNKSt12__shared_ptrI4wfmoLN9__gnu_cxx12_Lock_policyE2EE3getEv
FNDA:0,_ZNKSt12__shared_ptrI4wfmoLN9__gnu_cxx12_Lock_policyE2EE3getEv
FN:1295,_ZNKSt12__shared_ptrI14waitable_eventLN9__gnu_cxx12_Lock_policyE2EE3getEv
FNDA:0,_ZNKSt12__shared_ptrI14waitable_eventLN9__gnu_cxx12_Lock_policyE2EE3getEv
FN:1295,_ZNKSt12__shared_ptrI10corethreadLN9__gnu_cxx12_Lock_policyE2EE3getEv
FNDA:0,_ZNKSt12__shared_ptrI10corethreadLN9__gnu_cxx12_Lock_policyE2EE3getEv
FN:1295,_ZNKSt12__shared_ptrI20IWaitableMessageSinkLN9__gnu_cxx12_Lock_policyE2EE3getEv
FNDA:0,_ZNKSt12__shared_ptrI20IWaitableMessageSinkLN9__gnu_cxx12_Lock_policyE2EE3getEv
FN:1295,_ZNKSt12__shared_ptrI7ILoggerLN9__gnu_cxx12_Lock_policyE2EE3getEv
FNDA:0,_ZNKSt12__shared_ptrI7ILoggerLN9__gnu_cxx12_Lock_policyE2EE3getEv
FN:1314,_ZNSt12__shared_ptrI20IWaitableMessageSinkLN9__gnu_cxx12_Lock_policyE2EE4swapERS3_
FNDA:0,_ZNSt12__shared_ptrI20IWaitableMessageSinkLN9__gnu_cxx12_Lock_policyE2EE4swapERS3_
FN:1341,_ZNSt12__shared_ptrI19waitableMessageSinkLN9__gnu_cxx12_Lock_policyE2EEC2ISaIS0_EJRNSt7__cxx1112basic_stringIcSt11char_traitsIcESaIcEEERKiRSt10shared_ptrI7ILoggerEEEESt20_Sp_alloc_shared_tagIT_EDpOT0_
FNDA:0,_ZNSt12__shared_ptrI19waitableMessageSinkLN9__gnu_cxx12_Lock_policyE2EEC2ISaIS0_EJRNSt7__cxx1112basic_stringIcSt11char_traitsIcESaIcEEERKiRSt10shared_ptrI7ILoggerEEEESt20_Sp_alloc_shared_tagIT_EDpOT0_
FN:1341,_ZNSt12__shared_ptrI4wfmoLN9__gnu_cxx12_Lock_policyE2EEC2ISaIS0_EJRSt3mapIiiSt4lessIiESaISt4pairIKiiEEEEEESt20_Sp_alloc_shared_tagIT_EDpOT0_
FNDA:0,_ZNSt12__shared_ptrI4wfmoLN9__gnu_cxx12_Lock_policyE2EEC2ISaIS0_EJRSt3mapIiiSt4lessIiESaISt4pairIKiiEEEEEESt20_Sp_alloc_shared_tagIT_EDpOT0_
FN:1386,_ZNSt12__shared_ptrI19waitableMessageSinkLN9__gnu_cxx12_Lock_policyE2EE31_M_enable_shared_from_this_withIS0_S0_EENSt9enable_ifIXntsrNS3_15__has_esft_baseIT0_vEE5valueEvE4typeEPT_
FNDA:0,_ZNSt12__shared_ptrI19waitableMessageSinkLN9__gnu_cxx12_Lock_policyE2EE31_M_enable_shared_from_this_withIS0_S0_EENSt9enable_ifIXntsrNS3_15__has_esft_baseIT0_vEE5valueEvE4typeEPT_
FN:1386,_ZNSt12__shared_ptrI4wfmoLN9__gnu_cxx12_Lock_policyE2EE31_M_enable_shared_from_this_withIS0_S0_EENSt9enable_ifIXntsrNS3_15__has_esft_baseIT0_vEE5valueEvE4typeEPT_
FNDA:0,_ZNSt12__shared_ptrI4wfmoLN9__gnu_cxx12_Lock_policyE2EE31_M_enable_shared_from_this_withIS0_S0_EENSt9enable_ifIXntsrNS3_15__has_esft_baseIT0_vEE5valueEvE4typeEPT_
DA:126,0
DA:127,0
DA:130,0
DA:131,0
DA:130,0
DA:131,0
DA:140,0
DA:141,0
DA:147,0
DA:148,0
DA:161,0
DA:165,0
DA:168,0
DA:180,0
DA:181,0
DA:184,0
DA:187,0
DA:385,0
DA:385,0
DA:389,0
DA:389,0
DA:479,0
DA:482,0
DA:502,0
DA:502,0
DA:504,0
DA:504,0
DA:514,0
DA:515,0
DA:519,0
DA:521,0
DA:514,0
DA:515,0
DA:519,0
DA:521,0
DA:523,0
DA:523,0
DA:523,0
DA:523,0
DA:526,0
DA:528,0
DA:529,0
DA:526,0
DA:528,0
DA:529,0
DA:533,0
DA:535,0
DA:536,0
DA:537,0
DA:538,0
DA:533,0
DA:535,0
DA:536,0
DA:537,0
DA:538,0
DA:546,0
DA:548,0
DA:553,0
DA:554,0
DA:556,0
DA:561,0
DA:562,0
DA:546,0
DA:548,0
DA:553,0
DA:554,0
DA:556,0
DA:561,0
DA:562,0
DA:565,0
DA:565,0
DA:587,0
DA:588,0
DA:643,0
DA:647,0
DA:648,0
DA:649,0
DA:650,0
DA:651,0
DA:652,0
DA:653,0
DA:654,0
DA:655,0
DA:643,0
DA:647,0
DA:648,0
DA:649,0
DA:650,0
DA:651,0
DA:652,0
DA:653,0
DA:654,0
DA:655,0
DA:702,0
DA:704,0
DA:705,0
DA:706,0
DA:708,0
DA:709,0
DA:711,0
DA:712,0
DA:713,0
DA:716,0
DA:718,0
DA:719,0
DA:721,0
DA:722,0
DA:723,0
DA:724,0
DA:725,0
DA:727,0
DA:731,0
DA:733,0
DA:734,0
DA:735,0
DA:736,0
DA:984,0
DA:987,0
DA:984,0
DA:987,0
DA:984,0
DA:987,0
DA:984,0
DA:987,0
DA:984,0
DA:987,0
DA:992,0
DA:993,0
DA:992,0
DA:993,0
DA:992,0
DA:993,0
DA:992,0
DA:993,0
DA:992,0
DA:993,0
DA:1092,2
DA:1093,2
DA:1094,2
DA:1092,0
DA:1093,0
DA:1094,0
DA:1092,0
DA:1093,0
DA:1094,0
DA:1092,0
DA:1093,0
DA:1094,0
DA:1152,0
DA:1153,0
DA:1153,1
DA:1153,5
DA:1154,0
DA:1154,0
DA:1154,2
DA:1154,0
DA:1154,0
DA:1154,0
DA:1169,0
DA:1170,0
DA:1172,0
DA:1173,0
DA:1174,0
DA:1256,0
DA:1258,0
DA:1259,0
DA:1295,0
DA:1296,0
DA:1295,0
DA:1296,0
DA:1295,0
DA:1296,0
DA:1295,0
DA:1296,0
DA:1295,0
DA:1296,0
DA:1314,0
DA:1316,0
DA:1317,0
DA:1318,0
DA:1341,0
DA:1342,0
DA:1343,0
DA:1341,0
DA:1342,0
DA:1343,0
DA:1386,0
DA:1387,0
DA:1386,0
DA:1387,0
end_of_record
SF:/usr/include/c++/11/bits/ptr_traits.h
FN:149,_ZNSt14pointer_traitsIPKcE10pointer_toERS0_
FNDA:0,_ZNSt14pointer_traitsIPKcE10pointer_toERS0_
FN:149,_ZNSt14pointer_traitsIPcE10pointer_toERc
FNDA:0,_ZNSt14pointer_traitsIPcE10pointer_toERc
FN:159,_ZSt12__to_addressISt23_Sp_counted_ptr_inplaceI4wfmoSaIS1_ELN9__gnu_cxx12_Lock_policyE2EEEPT_S7_
FNDA:0,_ZSt12__to_addressISt23_Sp_counted_ptr_inplaceI4wfmoSaIS1_ELN9__gnu_cxx12_Lock_policyE2EEEPT_S7_
FN:159,_ZSt12__to_addressISt23_Sp_counted_ptr_inplaceI19waitableMessageSinkSaIS1_ELN9__gnu_cxx12_Lock_policyE2EEEPT_S7_
FNDA:0,_ZSt12__to_addressISt23_Sp_counted_ptr_inplaceI19waitableMessageSinkSaIS1_ELN9__gnu_cxx12_Lock_policyE2EEEPT_S7_
DA:149,0
DA:150,0
DA:149,0
DA:150,0
DA:159,0
DA:162,0
DA:159,0
DA:162,0
end_of_record
SF:/usr/include/c++/11/bits/unique_ptr.h
FN:79,_ZNKSt14default_deleteI15waitable_threadEclEPS0_
FNDA:0,_ZNKSt14default_deleteI15waitable_threadEclEPS0_
FN:154,_ZNSt15__uniq_ptr_implI15waitable_threadSt14default_deleteIS0_EEC2Ev
FNDA:3,_ZNSt15__uniq_ptr_implI15waitable_threadSt14default_deleteIS0_EEC2Ev
FN:155,_ZNSt15__uniq_ptr_implI15waitable_threadSt14default_deleteIS0_EEC2EPS0_
FNDA:0,_ZNSt15__uniq_ptr_implI15waitable_threadSt14default_deleteIS0_EEC2EPS0_
FN:165,_ZNSt15__uniq_ptr_implI15waitable_threadSt14default_deleteIS0_EEaSEOS3_
FNDA:0,_ZNSt15__uniq_ptr_implI15waitable_threadSt14default_deleteIS0_EEaSEOS3_
FN:172,_ZNSt15__uniq_ptr_implI15waitable_threadSt14default_deleteIS0_EE6_M_ptrEv
FNDA:3,_ZNSt15__uniq_ptr_implI15waitable_threadSt14default_deleteIS0_EE6_M_ptrEv
FN:173,_ZNKSt15__uniq_ptr_implI15waitable_threadSt14default_deleteIS0_EE6_M_ptrEv
FNDA:0,_ZNKSt15__uniq_ptr_implI15waitable_threadSt14default_deleteIS0_EE6_M_ptrEv
FN:174,_ZNSt15__uniq_ptr_implI15waitable_threadSt14default_deleteIS0_EE10_M_deleterEv
FNDA:0,_ZNSt15__uniq_ptr_implI15waitable_threadSt14default_deleteIS0_EE10_M_deleterEv
FN:177,_ZNSt15__uniq_ptr_implI15waitable_threadSt14default_deleteIS0_EE5resetEPS0_
FNDA:0,_ZNSt15__uniq_ptr_implI15waitable_threadSt14default_deleteIS0_EE5resetEPS0_
FN:185,_ZNSt15__uniq_ptr_implI15waitable_threadSt14default_deleteIS0_EE7releaseEv
FNDA:0,_ZNSt15__uniq_ptr_implI15waitable_threadSt14default_deleteIS0_EE7releaseEv
FN:212,_ZNSt15__uniq_ptr_dataI15waitable_threadSt14default_deleteIS0_ELb1ELb1EEaSEOS3_
FNDA:0,_ZNSt15__uniq_ptr_dataI15waitable_threadSt14default_deleteIS0_ELb1ELb1EEaSEOS3_
FN:269,_ZNSt10unique_ptrI15waitable_threadSt14default_deleteIS0_EEC2IS2_vEEv
FNDA:3,_ZNSt10unique_ptrI15waitable_threadSt14default_deleteIS0_EEC2IS2_vEEv
FN:281,_ZNSt10unique_ptrI15waitable_threadSt14default_deleteIS0_EEC2IS2_vEEPS0_
FNDA:0,_ZNSt10unique_ptrI15waitable_threadSt14default_deleteIS0_EEC2IS2_vEEPS0_
FN:355,_ZNSt10unique_ptrI15waitable_threadSt14default_deleteIS0_EED2Ev
FNDA:3,_ZNSt10unique_ptrI15waitable_threadSt14default_deleteIS0_EED2Ev
FN:371,_ZNSt10unique_ptrI15waitable_threadSt14default_deleteIS0_EEaSEOS3_
FNDA:0,_ZNSt10unique_ptrI15waitable_threadSt14default_deleteIS0_EEaSEOS3_
FN:413,_ZNKSt10unique_ptrI15waitable_threadSt14default_deleteIS0_EEptEv
FNDA:0,_ZNKSt10unique_ptrI15waitable_threadSt14default_deleteIS0_EEptEv
FN:421,_ZNKSt10unique_ptrI15waitable_threadSt14default_deleteIS0_EE3getEv
FNDA:0,_ZNKSt10unique_ptrI15waitable_threadSt14default_deleteIS0_EE3getEv
FN:426,_ZNSt10unique_ptrI15waitable_threadSt14default_deleteIS0_EE11get_deleterEv
FNDA:0,_ZNSt10unique_ptrI15waitable_threadSt14default_deleteIS0_EE11get_deleterEv
FN:961,_ZSt11make_uniqueI15waitable_threadJRNSt7__cxx1112basic_stringIcSt11char_traitsIcESaIcEEERKiRSt8functionIFviS7_EEEENSt9_MakeUniqIT_E15__single_objectEDpOT0_
FNDA:0,_ZSt11make_uniqueI15waitable_threadJRNSt7__cxx1112basic_stringIcSt11char_traitsIcESaIcEEERKiRSt8functionIFviS7_EEEENSt9_MakeUniqIT_E15__single_objectEDpOT0_
DA:79,0
DA:85,0
DA:86,0
DA:154,3
DA:155,0
DA:165,0
DA:167,0
DA:168,0
DA:169,0
DA:172,3
DA:173,0
DA:174,0
DA:177,0
DA:179,0
DA:180,0
DA:181,0
DA:182,0
DA:183,0
DA:185,0
DA:187,0
DA:188,0
DA:189,0
DA:212,0
DA:269,3
DA:270,3
DA:271,3
DA:281,0
DA:282,0
DA:283,0
DA:355,3
DA:359,3
DA:360,3
DA:361,0
DA:362,3
DA:363,3
DA:371,0
DA:413,0
DA:416,0
DA:421,0
DA:422,0
DA:426,0
DA:427,0
DA:961,0
DA:962,0
end_of_record
SF:/usr/include/c++/11/ext/alloc_traits.h
FN:97,_ZN9__gnu_cxx14__alloc_traitsISaISt13_Rb_tree_nodeISt4pairIKiiEEES5_E17_S_select_on_copyERKS6_
FNDA:0,_ZN9__gnu_cxx14__alloc_traitsISaISt13_Rb_tree_nodeISt4pairIKiiEEES5_E17_S_select_on_copyERKS6_
FN:97,_ZN9__gnu_cxx14__alloc_traitsISaIcEcE17_S_select_on_copyERKS1_
FNDA:0,_ZN9__gnu_cxx14__alloc_traitsISaIcEcE17_S_select_on_copyERKS1_
DA:97,0
DA:98,0
DA:97,0
DA:98,0
end_of_record
SF:/usr/include/c++/11/ext/aligned_buffer.h
FN:64,_ZN9__gnu_cxx16__aligned_membufISt4pairIKiiEE7_M_addrEv
FNDA:0,_ZN9__gnu_cxx16__aligned_membufISt4pairIKiiEE7_M_addrEv
FN:68,_ZNK9__gnu_cxx16__aligned_membufISt4pairIKiiEE7_M_addrEv
FNDA:0,_ZNK9__gnu_cxx16__aligned_membufISt4pairIKiiEE7_M_addrEv
FN:72,_ZN9__gnu_cxx16__aligned_membufISt4pairIKiiEE6_M_ptrEv
FNDA:0,_ZN9__gnu_cxx16__aligned_membufISt4pairIKiiEE6_M_ptrEv
FN:76,_ZNK9__gnu_cxx16__aligned_membufISt4pairIKiiEE6_M_ptrEv
FNDA:0,_ZNK9__gnu_cxx16__aligned_membufISt4pairIKiiEE6_M_ptrEv
FN:102,_ZN9__gnu_cxx16__aligned_bufferI4wfmoE7_M_addrEv
FNDA:0,_ZN9__gnu_cxx16__aligned_bufferI4wfmoE7_M_addrEv
FN:102,_ZN9__gnu_cxx16__aligned_bufferI19waitableMessageSinkE7_M_addrEv
FNDA:0,_ZN9__gnu_cxx16__aligned_bufferI19waitableMessageSinkE7_M_addrEv
FN:114,_ZN9__gnu_cxx16__aligned_bufferI4wfmoE6_M_ptrEv
FNDA:0,_ZN9__gnu_cxx16__aligned_bufferI4wfmoE6_M_ptrEv
FN:114,_ZN9__gnu_cxx16__aligned_bufferI19waitableMessageSinkE6_M_ptrEv
FNDA:0,_ZN9__gnu_cxx16__aligned_bufferI19waitableMessageSinkE6_M_ptrEv
DA:64,0
DA:65,0
DA:68,0
DA:69,0
DA:72,0
DA:73,0
DA:76,0
DA:77,0
DA:102,0
DA:104,0
DA:102,0
DA:104,0
DA:114,0
DA:115,0
DA:114,0
DA:115,0
end_of_record
SF:/usr/include/c++/11/bits/stl_construct.h
FN:80,_ZSt10destroy_atI19waitableMessageSinkEvPT_
FNDA:0,_ZSt10destroy_atI19waitableMessageSinkEvPT_
FN:80,_ZSt10destroy_atI4wfmoEvPT_
FNDA:0,_ZSt10destroy_atI4wfmoEvPT_
FN:80,_ZSt10destroy_atISt4pairIKiiEEvPT_
FNDA:0,_ZSt10destroy_atISt4pairIKiiEEvPT_
FN:94,_ZSt12construct_atISt4pairIKiiEJRKS2_EEDTgsnwcvPvLi0E_T_pispcl7declvalIT0_EEEEPS6_DpOS7_
FNDA:0,_ZSt12construct_atISt4pairIKiiEJRKS2_EEDTgsnwcvPvLi0E_T_pispcl7declvalIT0_EEEEPS6_DpOS7_
FN:94,_ZSt12construct_atI4wfmoJRSt3mapIiiSt4lessIiESaISt4pairIKiiEEEEEDTgsnwcvPvLi0E_T_pispcl7declvalIT0_EEEEPSB_DpOSC_
FNDA:0,_ZSt12construct_atI4wfmoJRSt3mapIiiSt4lessIiESaISt4pairIKiiEEEEEDTgsnwcvPvLi0E_T_pispcl7declvalIT0_EEEEPSB_DpOSC_
FN:94,_ZSt12construct_atI19waitableMessageSinkJRNSt7__cxx1112basic_stringIcSt11char_traitsIcESaIcEEERKiRSt10shared_ptrI7ILoggerEEEDTgsnwcvPvLi0E_T_pispcl7declvalIT0_EEEEPSF_DpOSG_
FNDA:0,_ZSt12construct_atI19waitableMessageSinkJRNSt7__cxx1112basic_stringIcSt11char_traitsIcESaIcEEERKiRSt10shared_ptrI7ILoggerEEEDTgsnwcvPvLi0E_T_pispcl7declvalIT0_EEEEPSF_DpOSG_
FN:94,_ZSt12construct_atISt4pairIKiiEJS0_IiiEEEDTgsnwcvPvLi0E_T_pispcl7declvalIT0_EEEEPS5_DpOS6_
FNDA:0,_ZSt12construct_atISt4pairIKiiEJS0_IiiEEEDTgsnwcvPvLi0E_T_pispcl7declvalIT0_EEEEPS5_DpOS6_
DA:80,0
DA:88,0
DA:89,0
DA:80,0
DA:88,0
DA:89,0
DA:80,0
DA:88,0
DA:89,0
DA:94,0
DA:97,0
DA:94,0
DA:97,0
DA:94,0
DA:97,0
DA:94,0
DA:97,0
end_of_record
SF:/usr/include/c++/11/bits/stl_iterator_base_types.h
FN:238,_ZSt19__iterator_categoryIPKcENSt15iterator_traitsIT_E17iterator_categoryERKS3_
FNDA:0,_ZSt19__iterator_categoryIPKcENSt15iterator_traitsIT_E17iterator_categoryERKS3_
FN:238,_ZSt19__iterator_categoryIPcENSt15iterator_traitsIT_E17iterator_categoryERKS2_
FNDA:0,_ZSt19__iterator_categoryIPcENSt15iterator_traitsIT_E17iterator_categoryERKS2_
DA:238,0
DA:239,0
DA:238,0
DA:239,0
end_of_record
SF:/usr/include/c++/11/bits/stl_iterator_base_funcs.h
FN:98,_ZSt10__distanceIPcENSt15iterator_traitsIT_E15difference_typeES2_S2_St26random_access_iterator_tag
FNDA:0,_ZSt10__distanceIPcENSt15iterator_traitsIT_E15difference_typeES2_S2_St26random_access_iterator_tag
FN:98,_ZSt10__distanceIPKcENSt15iterator_traitsIT_E15difference_typeES3_S3_St26random_access_iterator_tag
FNDA:0,_ZSt10__distanceIPKcENSt15iterator_traitsIT_E15difference_typeES3_S3_St26random_access_iterator_tag
FN:138,_ZSt8distanceIPcENSt15iterator_traitsIT_E15difference_typeES2_S2_
FNDA:0,_ZSt8distanceIPcENSt15iterator_traitsIT_E15difference_typeES2_S2_
FN:138,_ZSt8distanceIPKcENSt15iterator_traitsIT_E15difference_typeES3_S3_
FNDA:0,_ZSt8distanceIPKcENSt15iterator_traitsIT_E15difference_typeES3_S3_
DA:98,0
DA:104,0
DA:98,0
DA:104,0
DA:138,0
DA:141,0
DA:142,0
DA:138,0
DA:141,0
DA:142,0
end_of_record
SF:/usr/include/c++/11/bits/alloc_traits.h
FN:463,_ZNSt16allocator_traitsISaIcEE8allocateERS0_m
FNDA:0,_ZNSt16allocator_traitsISaIcEE8allocateERS0_m
FN:463,_ZNSt16allocator_traitsISaISt13_Rb_tree_nodeISt4pairIKiiEEEE8allocateERS5_m
FNDA:0,_ZNSt16allocator_traitsISaISt13_Rb_tree_nodeISt4pairIKiiEEEE8allocateERS5_m
FN:463,_ZNSt16allocator_traitsISaISt23_Sp_counted_ptr_inplaceI19waitableMessageSinkSaIS1_ELN9__gnu_cxx12_Lock_policyE2EEEE8allocateERS6_m
FNDA:0,_ZNSt16allocator_traitsISaISt23_Sp_counted_ptr_inplaceI19waitableMessageSinkSaIS1_ELN9__gnu_cxx12_Lock_policyE2EEEE8allocateERS6_m
FN:463,_ZNSt16allocator_traitsISaISt23_Sp_counted_ptr_inplaceI4wfmoSaIS1_ELN9__gnu_cxx12_Lock_policyE2EEEE8allocateERS6_m
FNDA:0,_ZNSt16allocator_traitsISaISt23_Sp_counted_ptr_inplaceI4wfmoSaIS1_ELN9__gnu_cxx12_Lock_policyE2EEEE8allocateERS6_m
FN:495,_ZNSt16allocator_traitsISaIcEE10deallocateERS0_Pcm
FNDA:0,_ZNSt16allocator_traitsISaIcEE10deallocateERS0_Pcm
FN:495,_ZNSt16allocator_traitsISaISt13_Rb_tree_nodeISt4pairIKiiEEEE10deallocateERS5_PS4_m
FNDA:0,_ZNSt16allocator_traitsISaISt13_Rb_tree_nodeISt4pairIKiiEEEE10deallocateERS5_PS4_m
FN:495,_ZNSt16allocator_traitsISaISt23_Sp_counted_ptr_inplaceI19waitableMessageSinkSaIS1_ELN9__gnu_cxx12_Lock_policyE2EEEE10deallocateERS6_PS5_m
FNDA:0,_ZNSt16allocator_traitsISaISt23_Sp_counted_ptr_inplaceI19waitableMessageSinkSaIS1_ELN9__gnu_cxx12_Lock_policyE2EEEE10deallocateERS6_PS5_m
FN:495,_ZNSt16allocator_traitsISaISt23_Sp_counted_ptr_inplaceI4wfmoSaIS1_ELN9__gnu_cxx12_Lock_policyE2EEEE10deallocateERS6_PS5_m
FNDA:0,_ZNSt16allocator_traitsISaISt23_Sp_counted_ptr_inplaceI4wfmoSaIS1_ELN9__gnu_cxx12_Lock_policyE2EEEE10deallocateERS6_PS5_m
FN:511,_ZNSt16allocator_traitsISaI19waitableMessageSinkEE9constructIS0_JRNSt7__cxx1112basic_stringIcSt11char_traitsIcESaIcEEERKiRSt10shared_ptrI7ILoggerEEEEvRS1_PT_DpOT0_
FNDA:0,_ZNSt16allocator_traitsISaI19waitableMessageSinkEE9constructIS0_JRNSt7__cxx1112basic_stringIcSt11char_traitsIcESaIcEEERKiRSt10shared_ptrI7ILoggerEEEEvRS1_PT_DpOT0_
FN:511,_ZNSt16allocator_traitsISaI4wfmoEE9constructIS0_JRSt3mapIiiSt4lessIiESaISt4pairIKiiEEEEEEvRS1_PT_DpOT0_
FNDA:0,_ZNSt16allocator_traitsISaI4wfmoEE9constructIS0_JRSt3mapIiiSt4lessIiESaISt4pairIKiiEEEEEEvRS1_PT_DpOT0_
FN:511,_ZNSt16allocator_traitsISaISt13_Rb_tree_nodeISt4pairIKiiEEEE9constructIS3_JS1_IiiEEEEvRS5_PT_DpOT0_
FNDA:0,_ZNSt16allocator_traitsISaISt13_Rb_tree_nodeISt4pairIKiiEEEE9constructIS3_JS1_IiiEEEEvRS5_PT_DpOT0_
FN:511,_ZNSt16allocator_traitsISaISt13_Rb_tree_nodeISt4pairIKiiEEEE9constructIS3_JRKS3_EEEvRS5_PT_DpOT0_
FNDA:0,_ZNSt16allocator_traitsISaISt13_Rb_tree_nodeISt4pairIKiiEEEE9constructIS3_JRKS3_EEEvRS5_PT_DpOT0_
FN:531,_ZNSt16allocator_traitsISaISt13_Rb_tree_nodeISt4pairIKiiEEEE7destroyIS3_EEvRS5_PT_
FNDA:0,_ZNSt16allocator_traitsISaISt13_Rb_tree_nodeISt4pairIKiiEEEE7destroyIS3_EEvRS5_PT_
FN:531,_ZNSt16allocator_traitsISaI4wfmoEE7destroyIS0_EEvRS1_PT_
FNDA:0,_ZNSt16allocator_traitsISaI4wfmoEE7destroyIS0_EEvRS1_PT_
FN:531,_ZNSt16allocator_traitsISaI19waitableMessageSinkEE7destroyIS0_EEvRS1_PT_
FNDA:0,_ZNSt16allocator_traitsISaI19waitableMessageSinkEE7destroyIS0_EEvRS1_PT_
FN:547,_ZNSt16allocator_traitsISaIcEE8max_sizeERKS0_
FNDA:0,_ZNSt16allocator_traitsISaIcEE8max_sizeERKS0_
FN:562,_ZNSt16allocator_traitsISaISt13_Rb_tree_nodeISt4pairIKiiEEEE37select_on_container_copy_constructionERKS5_
FNDA:0,_ZNSt16allocator_traitsISaISt13_Rb_tree_nodeISt4pairIKiiEEEE37select_on_container_copy_constructionERKS5_
FN:562,_ZNSt16allocator_traitsISaIcEE37select_on_container_copy_constructionERKS0_
FNDA:0,_ZNSt16allocator_traitsISaIcEE37select_on_container_copy_constructionERKS0_
DA:463,0
DA:464,0
DA:463,0
DA:464,0
DA:463,0
DA:464,0
DA:463,0
DA:464,0
DA:495,0
DA:496,0
DA:495,0
DA:496,0
DA:495,0
DA:496,0
DA:495,0
DA:496,0
DA:511,0
DA:518,0
DA:520,0
DA:511,0
DA:518,0
DA:520,0
DA:511,0
DA:518,0
DA:520,0
DA:511,0
DA:518,0
DA:520,0
DA:531,0
DA:537,0
DA:539,0
DA:531,0
DA:537,0
DA:539,0
DA:531,0
DA:537,0
DA:539,0
DA:547,0
DA:552,0
DA:562,0
DA:563,0
DA:562,0
DA:563,0
end_of_record
SF:/usr/include/c++/11/bits/basic_string.tcc
FN:132,_ZNSt7__cxx1112basic_stringIcSt11char_traitsIcESaIcEE9_M_createERmm
FNDA:0,_ZNSt7__cxx1112basic_stringIcSt11char_traitsIcESaIcEE9_M_createERmm
FN:206,_ZNSt7__cxx1112basic_stringIcSt11char_traitsIcESaIcEE12_M_constructIPcEEvT_S7_St20forward_iterator_tag
FNDA:0,_ZNSt7__cxx1112basic_stringIcSt11char_traitsIcESaIcEE12_M_constructIPcEEvT_S7_St20forward_iterator_tag
FN:206,_ZNSt7__cxx1112basic_stringIcSt11char_traitsIcESaIcEE12_M_constructIPKcEEvT_S8_St20forward_iterator_tag
FNDA:0,_ZNSt7__cxx1112basic_stringIcSt11char_traitsIcESaIcEE12_M_constructIPKcEEvT_S8_St20forward_iterator_tag
DA:132,0
DA:137,0
DA:138,0
DA:143,0
DA:145,0
DA:147,0
DA:148,0
DA:153,0
DA:206,0
DA:211,0
DA:212,0
DA:215,0
DA:217,0
DA:219,0
DA:220,0
DA:225,0
DA:232,0
DA:233,0
DA:206,0
DA:211,0
DA:212,0
DA:215,0
DA:217,0
DA:219,0
DA:220,0
DA:225,0
DA:232,0
DA:233,0
end_of_record
SF:/usr/include/c++/11/bits/stl_pair.h
FN:322,_ZNSt4pairIPSt18_Rb_tree_node_baseS1_EC2IRS1_Lb1EEEOT_RKS1_
FNDA:0,_ZNSt4pairIPSt18_Rb_tree_node_baseS1_EC2IRS1_Lb1EEEOT_RKS1_
FN:322,_ZNSt4pairIiiEC2IiLb1EEEOT_RKi
FNDA:0,_ZNSt4pairIiiEC2IiLb1EEEOT_RKi
FN:352,_ZNSt4pairIPSt18_Rb_tree_node_baseS1_EC2IRPSt13_Rb_tree_nodeIS_IKiiEERS1_Lb1EEEOT_OT0_
FNDA:0,_ZNSt4pairIPSt18_Rb_tree_node_baseS1_EC2IRPSt13_Rb_tree_nodeIS_IKiiEERS1_Lb1EEEOT_OT0_
FN:352,_ZNSt4pairISt17_Rb_tree_iteratorIS_IKiiEEbEC2IS3_bLb1EEEOT_OT0_
FNDA:0,_ZNSt4pairISt17_Rb_tree_iteratorIS_IKiiEEbEC2IS3_bLb1EEEOT_OT0_
FN:352,_ZNSt4pairIiiEC2IiiLb1EEEOT_OT0_
FNDA:0,_ZNSt4pairIiiEC2IiiLb1EEEOT_OT0_
FN:371,_ZNSt4pairIKiiEC2IiiLb1EEEOS_IT_T0_E
FNDA:0,_ZNSt4pairIKiiEC2IiiLb1EEEOS_IT_T0_E
DA:322,0
DA:323,0
DA:322,0
DA:323,0
DA:352,0
DA:353,0
DA:352,0
DA:353,0
DA:352,0
DA:353,0
DA:371,0
DA:372,0
DA:373,0
end_of_record
SF:/usr/include/c++/11/ext/type_traits.h
FN:152,_ZN9__gnu_cxx17__is_null_pointerIcEEbPT_
FNDA:0,_ZN9__gnu_cxx17__is_null_pointerIcEEbPT_
FN:152,_ZN9__gnu_cxx17__is_null_pointerIKcEEbPT_
FNDA:0,_ZN9__gnu_cxx17__is_null_pointerIKcEEbPT_
DA:152,0
DA:153,0
DA:152,0
DA:153,0
end_of_record
SF:/usr/include/c++/11/bits/stl_map.h
FN:185,_ZNSt3mapIiiSt4lessIiESaISt4pairIKiiEEEC2Ev
FNDA:0,_ZNSt3mapIiiSt4lessIiESaISt4pairIKiiEEEC2Ev
FN:207,_ZNSt3mapIiiSt4lessIiESaISt4pairIKiiEEEC2ERKS6_
FNDA:0,_ZNSt3mapIiiSt4lessIiESaISt4pairIKiiEEEC2ERKS6_
FN:302,_ZNSt3mapIiiSt4lessIiESaISt4pairIKiiEEED2Ev
FNDA:0,_ZNSt3mapIiiSt4lessIiESaISt4pairIKiiEEED2Ev
FN:816,_ZNSt3mapIiiSt4lessIiESaISt4pairIKiiEEE6insertIS2_IiiEEENSt9enable_ifIXsrSt16is_constructibleIS4_JT_EE5valueES2_ISt17_Rb_tree_iteratorIS4_EbEE4typeEOSB_
FNDA:0,_ZNSt3mapIiiSt4lessIiESaISt4pairIKiiEEE6insertIS2_IiiEEENSt9enable_ifIXsrSt16is_constructibleIS4_JT_EE5valueES2_ISt17_Rb_tree_iteratorIS4_EbEE4typeEOSB_
FN:1133,_ZNSt3mapIiiSt4lessIiESaISt4pairIKiiEEE5clearEv
FNDA:0,_ZNSt3mapIiiSt4lessIiESaISt4pairIKiiEEE5clearEv
DA:185,0
DA:207,0
DA:302,0
DA:816,0
DA:817,0
DA:1133,0
DA:1134,0
end_of_record
SF:/usr/include/c++/11/bits/stl_tree.h
FN:112,_ZNSt18_Rb_tree_node_base10_S_minimumEPS_
FNDA:0,_ZNSt18_Rb_tree_node_base10_S_minimumEPS_
FN:126,_ZNSt18_Rb_tree_node_base10_S_maximumEPS_
FNDA:0,_ZNSt18_Rb_tree_node_base10_S_maximumEPS_
FN:146,_ZNSt20_Rb_tree_key_compareISt4lessIiEEC2Ev
FNDA:0,_ZNSt20_Rb_tree_key_compareISt4lessIiEEC2Ev
FN:152,_ZNSt20_Rb_tree_key_compareISt4lessIiEEC2ERKS1_
FNDA:0,_ZNSt20_Rb_tree_key_compareISt4lessIiEEC2ERKS1_
FN:173,_ZNSt15_Rb_tree_headerC2Ev
FNDA:3,_ZNSt15_Rb_tree_headerC2Ev
FN:206,_ZNSt15_Rb_tree_header8_M_resetEv
FNDA:3,_ZNSt15_Rb_tree_header8_M_resetEv
FN:234,_ZNSt13_Rb_tree_nodeISt4pairIKiiEE9_M_valptrEv
FNDA:0,_ZNSt13_Rb_tree_nodeISt4pairIKiiEE9_M_valptrEv
FN:238,_ZNKSt13_Rb_tree_nodeISt4pairIKiiEE9_M_valptrEv
FNDA:0,_ZNKSt13_Rb_tree_nodeISt4pairIKiiEE9_M_valptrEv
FN:273,_ZNSt17_Rb_tree_iteratorISt4pairIKiiEEC2EPSt18_Rb_tree_node_base
FNDA:0,_ZNSt17_Rb_tree_iteratorISt4pairIKiiEEC2EPSt18_Rb_tree_node_base
FN:300,_ZNSt17_Rb_tree_iteratorISt4pairIKiiEEmmEv
FNDA:0,_ZNSt17_Rb_tree_iteratorISt4pairIKiiEEmmEv
FN:315,_ZSteqRKSt17_Rb_tree_iteratorISt4pairIKiiEES5_
FNDA:0,_ZSteqRKSt17_Rb_tree_iteratorISt4pairIKiiEES5_
FN:523,_ZNSt8_Rb_treeIiSt4pairIKiiESt10_Select1stIS2_ESt4lessIiESaIS2_EE11_Alloc_nodeC2ERS8_
FNDA:0,_ZNSt8_Rb_treeIiSt4pairIKiiESt10_Select1stIS2_ESt4lessIiESaIS2_EE11_Alloc_nodeC2ERS8_
FN:528,_ZNKSt8_Rb_treeIiSt4pairIKiiESt10_Select1stIS2_ESt4lessIiESaIS2_EE11_Alloc_nodeclIRKS2_EEPSt13_Rb_tree_nodeIS2_EOT_
FNDA:0,_ZNKSt8_Rb_treeIiSt4pairIKiiESt10_Select1stIS2_ESt4lessIiESaIS2_EE11_Alloc_nodeclIRKS2_EEPSt13_Rb_tree_nodeIS2_EOT_
FN:547,_ZNSt8_Rb_treeIiSt4pairIKiiESt10_Select1stIS2_ESt4lessIiESaIS2_EE21_M_get_Node_allocatorEv
FNDA:0,_ZNSt8_Rb_treeIiSt4pairIKiiESt10_Select1stIS2_ESt4lessIiESaIS2_EE21_M_get_Node_allocatorEv
FN:560,_ZNSt8_Rb_treeIiSt4pairIKiiESt10_Select1stIS2_ESt4lessIiESaIS2_EE11_M_get_nodeEv
FNDA:0,_ZNSt8_Rb_treeIiSt4pairIKiiESt10_Select1stIS2_ESt4lessIiESaIS2_EE11_M_get_nodeEv
FN:564,_ZNSt8_Rb_treeIiSt4pairIKiiESt10_Select1stIS2_ESt4lessIiESaIS2_EE11_M_put_nodeEPSt13_Rb_tree_nodeIS2_E
FNDA:0,_ZNSt8_Rb_treeIiSt4pairIKiiESt10_Select1stIS2_ESt4lessIiESaIS2_EE11_M_put_nodeEPSt13_Rb_tree_nodeIS2_E
FN:590,_ZNSt8_Rb_treeIiSt4pairIKiiESt10_Select1stIS2_ESt4lessIiESaIS2_EE17_M_construct_nodeIJRKS2_EEEvPSt13_Rb_tree_nodeIS2_EDpOT_
FNDA:0,_ZNSt8_Rb_treeIiSt4pairIKiiESt10_Select1stIS2_ESt4lessIiESaIS2_EE17_M_construct_nodeIJRKS2_EEEvPSt13_Rb_tree_nodeIS2_EDpOT_
FN:590,_ZNSt8_Rb_treeIiSt4pairIKiiESt10_Select1stIS2_ESt4lessIiESaIS2_EE17_M_construct_nodeIJS0_IiiEEEEvPSt13_Rb_tree_nodeIS2_EDpOT_
FNDA:0,_ZNSt8_Rb_treeIiSt4pairIKiiESt10_Select1stIS2_ESt4lessIiESaIS2_EE17_M_construct_nodeIJS0_IiiEEEEvPSt13_Rb_tree_nodeIS2_EDpOT_
FN:609,_ZNSt8_Rb_treeIiSt4pairIKiiESt10_Select1stIS2_ESt4lessIiESaIS2_EE14_M_create_nodeIJRKS2_EEEPSt13_Rb_tree_nodeIS2_EDpOT_
FNDA:0,_ZNSt8_Rb_treeIiSt4pairIKiiESt10_Select1stIS2_ESt4lessIiESaIS2_EE14_M_create_nodeIJRKS2_EEEPSt13_Rb_tree_nodeIS2_EDpOT_
FN:609,_ZNSt8_Rb_treeIiSt4pairIKiiESt10_Select1stIS2_ESt4lessIiESaIS2_EE14_M_create_nodeIJS0_IiiEEEEPSt13_Rb_tree_nodeIS2_EDpOT_
FNDA:0,_ZNSt8_Rb_treeIiSt4pairIKiiESt10_Select1stIS2_ESt4lessIiESaIS2_EE14_M_create_nodeIJS0_IiiEEEEPSt13_Rb_tree_nodeIS2_EDpOT_
FN:618,_ZNSt8_Rb_treeIiSt4pairIKiiESt10_Select1stIS2_ESt4lessIiESaIS2_EE15_M_destroy_nodeEPSt13_Rb_tree_nodeIS2_E
FNDA:0,_ZNSt8_Rb_treeIiSt4pairIKiiESt10_Select1stIS2_ESt4lessIiESaIS2_EE15_M_destroy_nodeEPSt13_Rb_tree_nodeIS2_E
FN:629,_ZNSt8_Rb_treeIiSt4pairIKiiESt10_Select1stIS2_ESt4lessIiESaIS2_EE12_M_drop_nodeEPSt13_Rb_tree_nodeIS2_E
FNDA:0,_ZNSt8_Rb_treeIiSt4pairIKiiESt10_Select1stIS2_ESt4lessIiESaIS2_EE12_M_drop_nodeEPSt13_Rb_tree_nodeIS2_E
FN:637,_ZNSt8_Rb_treeIiSt4pairIKiiESt10_Select1stIS2_ESt4lessIiESaIS2_EE13_M_clone_nodeILb0ENS8_11_Alloc_nodeEEEPSt13_Rb_tree_nodeIS2_ESD_RT0_
FNDA:0,_ZNSt8_Rb_treeIiSt4pairIKiiESt10_Select1stIS2_ESt4lessIiESaIS2_EE13_M_clone_nodeILb0ENS8_11_Alloc_nodeEEEPSt13_Rb_tree_nodeIS2_ESD_RT0_
FN:667,_ZNSt8_Rb_treeIiSt4pairIKiiESt10_Select1stIS2_ESt4lessIiESaIS2_EE13_Rb_tree_implIS6_Lb1EEC2Ev
FNDA:0,_ZNSt8_Rb_treeIiSt4pairIKiiESt10_Select1stIS2_ESt4lessIiESaIS2_EE13_Rb_tree_implIS6_Lb1EEC2Ev
FN:674,_ZNSt8_Rb_treeIiSt4pairIKiiESt10_Select1stIS2_ESt4lessIiESaIS2_EE13_Rb_tree_implIS6_Lb1EEC2ERKSA_
FNDA:0,_ZNSt8_Rb_treeIiSt4pairIKiiESt10_Select1stIS2_ESt4lessIiESaIS2_EE13_Rb_tree_implIS6_Lb1EEC2ERKSA_
FN:710,_ZNSt8_Rb_treeIiSt4pairIKiiESt10_Select1stIS2_ESt4lessIiESaIS2_EE7_M_rootEv
FNDA:0,_ZNSt8_Rb_treeIiSt4pairIKiiESt10_Select1stIS2_ESt4lessIiESaIS2_EE7_M_rootEv
FN:714,_ZNKSt8_Rb_treeIiSt4pairIKiiESt10_Select1stIS2_ESt4lessIiESaIS2_EE7_M_rootEv
FNDA:0,_ZNKSt8_Rb_treeIiSt4pairIKiiESt10_Select1stIS2_ESt4lessIiESaIS2_EE7_M_rootEv
FN:718,_ZNSt8_Rb_treeIiSt4pairIKiiESt10_Select1stIS2_ESt4lessIiESaIS2_EE11_M_leftmostEv
FNDA:0,_ZNSt8_Rb_treeIiSt4pairIKiiESt10_Select1stIS2_ESt4lessIiESaIS2_EE11_M_leftmostEv
FN:726,_ZNSt8_Rb_treeIiSt4pairIKiiESt10_Select1stIS2_ESt4lessIiESaIS2_EE12_M_rightmostEv
FNDA:0,_ZNSt8_Rb_treeIiSt4pairIKiiESt10_Select1stIS2_ESt4lessIiESaIS2_EE12_M_rightmostEv
FN:734,_ZNKSt8_Rb_treeIiSt4pairIKiiESt10_Select1stIS2_ESt4lessIiESaIS2_EE9_M_mbeginEv
FNDA:0,_ZNKSt8_Rb_treeIiSt4pairIKiiESt10_Select1stIS2_ESt4lessIiESaIS2_EE9_M_mbeginEv
FN:738,_ZNSt8_Rb_treeIiSt4pairIKiiESt10_Select1stIS2_ESt4lessIiESaIS2_EE8_M_beginEv
FNDA:0,_ZNSt8_Rb_treeIiSt4pairIKiiESt10_Select1stIS2_ESt4lessIiESaIS2_EE8_M_beginEv
FN:749,_ZNSt8_Rb_treeIiSt4pairIKiiESt10_Select1stIS2_ESt4lessIiESaIS2_EE6_M_endEv
FNDA:0,_ZNSt8_Rb_treeIiSt4pairIKiiESt10_Select1stIS2_ESt4lessIiESaIS2_EE6_M_endEv
FN:757,_ZNSt8_Rb_treeIiSt4pairIKiiESt10_Select1stIS2_ESt4lessIiESaIS2_EE6_S_keyEPKSt13_Rb_tree_nodeIS2_E
FNDA:0,_ZNSt8_Rb_treeIiSt4pairIKiiESt10_Select1stIS2_ESt4lessIiESaIS2_EE6_S_keyEPKSt13_Rb_tree_nodeIS2_E
FN:779,_ZNSt8_Rb_treeIiSt4pairIKiiESt10_Select1stIS2_ESt4lessIiESaIS2_EE7_S_leftEPSt18_Rb_tree_node_base
FNDA:0,_ZNSt8_Rb_treeIiSt4pairIKiiESt10_Select1stIS2_ESt4lessIiESaIS2_EE7_S_leftEPSt18_Rb_tree_node_base
FN:787,_ZNSt8_Rb_treeIiSt4pairIKiiESt10_Select1stIS2_ESt4lessIiESaIS2_EE8_S_rightEPSt18_Rb_tree_node_base
FNDA:0,_ZNSt8_Rb_treeIiSt4pairIKiiESt10_Select1stIS2_ESt4lessIiESaIS2_EE8_S_rightEPSt18_Rb_tree_node_base
FN:795,_ZNSt8_Rb_treeIiSt4pairIKiiESt10_Select1stIS2_ESt4lessIiESaIS2_EE6_S_keyEPKSt18_Rb_tree_node_base
FNDA:0,_ZNSt8_Rb_treeIiSt4pairIKiiESt10_Select1stIS2_ESt4lessIiESaIS2_EE6_S_keyEPKSt18_Rb_tree_node_base
FN:799,_ZNSt8_Rb_treeIiSt4pairIKiiESt10_Select1stIS2_ESt4lessIiESaIS2_EE10_S_minimumEPSt18_Rb_tree_node_base
FNDA:0,_ZNSt8_Rb_treeIiSt4pairIKiiESt10_Select1stIS2_ESt4lessIiESaIS2_EE10_S_minimumEPSt18_Rb_tree_node_base
FN:807,_ZNSt8_Rb_treeIiSt4pairIKiiESt10_Select1stIS2_ESt4lessIiESaIS2_EE10_S_maximumEPSt18_Rb_tree_node_base
FNDA:0,_ZNSt8_Rb_treeIiSt4pairIKiiESt10_Select1stIS2_ESt4lessIiESaIS2_EE10_S_maximumEPSt18_Rb_tree_node_base
FN:887,_ZNSt8_Rb_treeIiSt4pairIKiiESt10_Select1stIS2_ESt4lessIiESaIS2_EE7_M_copyILb0ENS8_11_Alloc_nodeEEEPSt13_Rb_tree_nodeIS2_ERKS8_RT0_
FNDA:0,_ZNSt8_Rb_treeIiSt4pairIKiiESt10_Select1stIS2_ESt4lessIiESaIS2_EE7_M_copyILb0ENS8_11_Alloc_nodeEEEPSt13_Rb_tree_nodeIS2_ERKS8_RT0_
FN:898,_ZNSt8_Rb_treeIiSt4pairIKiiESt10_Select1stIS2_ESt4lessIiESaIS2_EE7_M_copyERKS8_
FNDA:0,_ZNSt8_Rb_treeIiSt4pairIKiiESt10_Select1stIS2_ESt4lessIiESaIS2_EE7_M_copyERKS8_
FN:928,_ZNSt8_Rb_treeIiSt4pairIKiiESt10_Select1stIS2_ESt4lessIiESaIS2_EEC2Ev
FNDA:0,_ZNSt8_Rb_treeIiSt4pairIKiiESt10_Select1stIS2_ESt4lessIiESaIS2_EEC2Ev
FN:935,_ZNSt8_Rb_treeIiSt4pairIKiiESt10_Select1stIS2_ESt4lessIiESaIS2_EEC2ERKS8_
FNDA:0,_ZNSt8_Rb_treeIiSt4pairIKiiESt10_Select1stIS2_ESt4lessIiESaIS2_EEC2ERKS8_
FN:983,_ZNSt8_Rb_treeIiSt4pairIKiiESt10_Select1stIS2_ESt4lessIiESaIS2_EED2Ev
FNDA:0,_ZNSt8_Rb_treeIiSt4pairIKiiESt10_Select1stIS2_ESt4lessIiESaIS2_EED2Ev
FN:995,_ZNSt8_Rb_treeIiSt4pairIKiiESt10_Select1stIS2_ESt4lessIiESaIS2_EE5beginEv
FNDA:0,_ZNSt8_Rb_treeIiSt4pairIKiiESt10_Select1stIS2_ESt4lessIiESaIS2_EE5beginEv
FN:1252,_ZNSt8_Rb_treeIiSt4pairIKiiESt10_Select1stIS2_ESt4lessIiESaIS2_EE5clearEv
FNDA:0,_ZNSt8_Rb_treeIiSt4pairIKiiESt10_Select1stIS2_ESt4lessIiESaIS2_EE5clearEv
FN:1845,_ZNSt8_Rb_treeIiSt4pairIKiiESt10_Select1stIS2_ESt4lessIiESaIS2_EE7_M_copyILb0ENS8_11_Alloc_nodeEEEPSt13_Rb_tree_nodeIS2_ESD_PSt18_Rb_tree_node_baseRT0_
FNDA:0,_ZNSt8_Rb_treeIiSt4pairIKiiESt10_Select1stIS2_ESt4lessIiESaIS2_EE7_M_copyILb0ENS8_11_Alloc_nodeEEEPSt13_Rb_tree_nodeIS2_ESD_PSt18_Rb_tree_node_baseRT0_
FN:1883,_ZNSt8_Rb_treeIiSt4pairIKiiESt10_Select1stIS2_ESt4lessIiESaIS2_EE8_M_eraseEPSt13_Rb_tree_nodeIS2_E
FNDA:0,_ZNSt8_Rb_treeIiSt4pairIKiiESt10_Select1stIS2_ESt4lessIiESaIS2_EE8_M_eraseEPSt13_Rb_tree_nodeIS2_E
FN:2061,_ZNSt8_Rb_treeIiSt4pairIKiiESt10_Select1stIS2_ESt4lessIiESaIS2_EE24_M_get_insert_unique_posERS1_
FNDA:0,_ZNSt8_Rb_treeIiSt4pairIKiiESt10_Select1stIS2_ESt4lessIiESaIS2_EE24_M_get_insert_unique_posERS1_
FN:2330,_ZNSt8_Rb_treeIiSt4pairIKiiESt10_Select1stIS2_ESt4lessIiESaIS2_EE14_M_insert_nodeEPSt18_Rb_tree_node_baseSA_PSt13_Rb_tree_nodeIS2_E
FNDA:0,_ZNSt8_Rb_treeIiSt4pairIKiiESt10_Select1stIS2_ESt4lessIiESaIS2_EE14_M_insert_nodeEPSt18_Rb_tree_node_baseSA_PSt13_Rb_tree_nodeIS2_E
FN:2381,_ZNSt8_Rb_treeIiSt4pairIKiiESt10_Select1stIS2_ESt4lessIiESaIS2_EE17_M_emplace_uniqueIJS0_IiiEEEES0_ISt17_Rb_tree_iteratorIS2_EbEDpOT_
FNDA:0,_ZNSt8_Rb_treeIiSt4pairIKiiESt10_Select1stIS2_ESt4lessIiESaIS2_EE17_M_emplace_uniqueIJS0_IiiEEEES0_ISt17_Rb_tree_iteratorIS2_EbEDpOT_
DA:112,0
DA:114,0
DA:115,0
DA:126,0
DA:128,0
DA:129,0
DA:146,0
DA:150,0
DA:152,0
DA:154,0
DA:173,3
DA:174,3
DA:175,3
DA:176,3
DA:177,3
DA:206,3
DA:208,3
DA:209,3
DA:210,3
DA:211,3
DA:212,3
DA:234,0
DA:235,0
DA:238,0
DA:239,0
DA:273,0
DA:274,0
DA:300,0
DA:302,0
DA:303,0
DA:315,0
DA:316,0
DA:523,0
DA:524,0
DA:528,0
DA:529,0
DA:547,0
DA:548,0
DA:560,0
DA:561,0
DA:564,0
DA:565,0
DA:590,0
DA:594,0
DA:595,0
DA:605,0
DA:590,0
DA:594,0
DA:595,0
DA:599,0
DA:601,0
DA:602,0
DA:603,0
DA:605,0
DA:609,0
DA:611,0
DA:612,0
DA:613,0
DA:609,0
DA:611,0
DA:612,0
DA:613,0
DA:618,0
DA:623,0
DA:624,0
DA:626,0
DA:629,0
DA:631,0
DA:632,0
DA:633,0
DA:637,0
DA:645,0
DA:646,0
DA:647,0
DA:648,0
DA:649,0
DA:667,0
DA:671,0
DA:672,0
DA:674,0
DA:676,0
DA:677,0
DA:678,0
DA:710,0
DA:711,0
DA:714,0
DA:715,0
DA:718,0
DA:719,0
DA:726,0
DA:727,0
DA:734,0
DA:735,0
DA:738,0
DA:739,0
DA:749,0
DA:750,0
DA:757,0
DA:775,0
DA:779,0
DA:780,0
DA:787,0
DA:788,0
DA:795,0
DA:796,0
DA:799,0
DA:800,0
DA:807,0
DA:808,0
DA:887,0
DA:890,0
DA:891,0
DA:892,0
DA:893,0
DA:894,0
DA:898,0
DA:900,0
DA:901,0
DA:928,0
DA:935,0
DA:936,0
DA:938,0
DA:939,0
DA:940,0
DA:983,0
DA:984,0
DA:995,0
DA:996,0
DA:1252,0
DA:1254,0
DA:1255,0
DA:1256,0
DA:1845,0
DA:1849,0
DA:1850,0
DA:1854,0
DA:1855,0
DA:1856,0
DA:1857,0
DA:1858,0
DA:1860,0
DA:1862,0
DA:1863,0
DA:1864,0
DA:1865,0
DA:1866,0
DA:1868,0
DA:1869,0
DA:1872,0
DA:1874,0
DA:1875,0
DA:1877,0
DA:1883,0
DA:1887,0
DA:1889,0
DA:1890,0
DA:1891,0
DA:1892,0
DA:1894,0
DA:2061,0
DA:2065,0
DA:2066,0
DA:2067,0
DA:2068,0
DA:2070,0
DA:2071,0
DA:2072,0
DA:2074,0
DA:2075,0
DA:2077,0
DA:2078,0
DA:2080,0
DA:2082,0
DA:2083,0
DA:2084,0
DA:2330,0
DA:2333,0
DA:2334,0
DA:2337,0
DA:2338,0
DA:2339,0
DA:2340,0
DA:2381,0
DA:2384,0
DA:2389,0
DA:2390,0
DA:2391,0
DA:2393,0
DA:2394,0
DA:2396,0
DA:2398,0
DA:2399,0
end_of_record
SF:/usr/include/c++/11/bits/stl_algobase.h
FN:313,_ZSt12__niter_baseIPcET_S1_
FNDA:0,_ZSt12__niter_baseIPcET_S1_
FN:313,_ZSt12__niter_baseIPKcET_S2_
FNDA:0,_ZSt12__niter_baseIPKcET_S2_
FN:335,_ZSt12__niter_wrapIPcET_RKS1_S1_
FNDA:0,_ZSt12__niter_wrapIPcET_RKS1_S1_
FN:380,_ZNSt11__copy_moveILb0ELb0ESt26random_access_iterator_tagE8__copy_mIPKcPcEET0_T_S7_S6_
FNDA:0,_ZNSt11__copy_moveILb0ELb0ESt26random_access_iterator_tagE8__copy_mIPKcPcEET0_T_S7_S6_
FN:420,_ZNSt11__copy_moveILb0ELb1ESt26random_access_iterator_tagE8__copy_mIcEEPT_PKS3_S6_S4_
FNDA:0,_ZNSt11__copy_moveILb0ELb1ESt26random_access_iterator_tagE8__copy_mIcEEPT_PKS3_S6_S4_
FN:486,_ZSt14__copy_move_a2ILb0EPKcPcET1_T0_S4_S3_
FNDA:0,_ZSt14__copy_move_a2ILb0EPKcPcET1_T0_S4_S3_
FN:521,_ZSt14__copy_move_a1ILb0EPKcPcET1_T0_S4_S3_
FNDA:0,_ZSt14__copy_move_a1ILb0EPKcPcET1_T0_S4_S3_
FN:527,_ZSt13__copy_move_aILb0EPKcPcET1_T0_S4_S3_
FNDA:0,_ZSt13__copy_move_aILb0EPKcPcET1_T0_S4_S3_
FN:611,_ZSt4copyIPKcPcET0_T_S4_S3_
FNDA:0,_ZSt4copyIPKcPcET0_T_S4_S3_
DA:313,0
DA:315,0
DA:313,0
DA:315,0
DA:335,0
DA:336,0
DA:380,0
DA:383,0
DA:385,0
DA:386,0
DA:387,0
DA:389,0
DA:420,0
DA:429,0
DA:430,0
DA:431,0
DA:432,0
DA:486,0
DA:490,0
DA:492,0
DA:495,0
DA:521,0
DA:522,0
DA:527,0
DA:529,0
DA:532,0
DA:611,0
DA:620,0
end_of_record
SF:/usr/include/c++/11/bits/shared_ptr.h
FN:148,_ZNSt10shared_ptrI20IWaitableMessageSinkEC2Ev
FNDA:2,_ZNSt10shared_ptrI20IWaitableMessageSinkEC2Ev
FN:148,_ZNSt10shared_ptrI7ILoggerEC2Ev
FNDA:0,_ZNSt10shared_ptrI7ILoggerEC2Ev
FN:148,_ZNSt10shared_ptrI14waitable_eventEC2Ev
FNDA:0,_ZNSt10shared_ptrI14waitable_eventEC2Ev
FN:148,_ZNSt10shared_ptrI10corethreadEC2Ev
FNDA:0,_ZNSt10shared_ptrI10corethreadEC2Ev
FN:150,_ZNSt10shared_ptrI7ILoggerEC2ERKS1_
FNDA:0,_ZNSt10shared_ptrI7ILoggerEC2ERKS1_
FN:359,_ZNSt10shared_ptrI7ILoggerEaSERKS1_
FNDA:0,_ZNSt10shared_ptrI7ILoggerEaSERKS1_
FN:359,_ZNSt10shared_ptrI10corethreadEaSERKS1_
FNDA:1,_ZNSt10shared_ptrI10corethreadEaSERKS1_
FN:359,_ZNSt10shared_ptrI14waitable_eventEaSERKS1_
FNDA:5,_ZNSt10shared_ptrI14waitable_eventEaSERKS1_
FN:391,_ZNSt10shared_ptrI20IWaitableMessageSinkEaSI19waitableMessageSinkEENSt9enable_ifIXsrSt13is_assignableIRSt12__shared_ptrIS0_LN9__gnu_cxx12_Lock_policyE2EES_IT_EE5valueERS1_E4typeEOSC_
FNDA:0,_ZNSt10shared_ptrI20IWaitableMessageSinkEaSI19waitableMessageSinkEENSt9enable_ifIXsrSt13is_assignableIRSt12__shared_ptrIS0_LN9__gnu_cxx12_Lock_policyE2EES_IT_EE5valueERS1_E4typeEOSC_
FN:408,_ZNSt10shared_ptrI4wfmoEC2ISaIS0_EJRSt3mapIiiSt4lessIiESaISt4pairIKiiEEEEEESt20_Sp_alloc_shared_tagIT_EDpOT0_
FNDA:0,_ZNSt10shared_ptrI4wfmoEC2ISaIS0_EJRSt3mapIiiSt4lessIiESaISt4pairIKiiEEEEEESt20_Sp_alloc_shared_tagIT_EDpOT0_
FN:408,_ZNSt10shared_ptrI19waitableMessageSinkEC2ISaIS0_EJRNSt7__cxx1112basic_stringIcSt11char_traitsIcESaIcEEERKiRS_I7ILoggerEEEESt20_Sp_alloc_shared_tagIT_EDpOT0_
FNDA:0,_ZNSt10shared_ptrI19waitableMessageSinkEC2ISaIS0_EJRNSt7__cxx1112basic_stringIcSt11char_traitsIcESaIcEEERKiRS_I7ILoggerEEEESt20_Sp_alloc_shared_tagIT_EDpOT0_
FN:858,_ZSt15allocate_sharedI4wfmoSaIS0_EJRSt3mapIiiSt4lessIiESaISt4pairIKiiEEEEESt10shared_ptrIT_ERKT0_DpOT1_
FNDA:0,_ZSt15allocate_sharedI4wfmoSaIS0_EJRSt3mapIiiSt4lessIiESaISt4pairIKiiEEEEESt10shared_ptrIT_ERKT0_DpOT1_
FN:858,_ZSt15allocate_sharedI19waitableMessageSinkSaIS0_EJRNSt7__cxx1112basic_stringIcSt11char_traitsIcESaIcEEERKiRSt10shared_ptrI7ILoggerEEESB_IT_ERKT0_DpOT1_
FNDA:0,_ZSt15allocate_sharedI19waitableMessageSinkSaIS0_EJRNSt7__cxx1112basic_stringIcSt11char_traitsIcESaIcEEERKiRSt10shared_ptrI7ILoggerEEESB_IT_ERKT0_DpOT1_
FN:875,_ZSt11make_sharedI4wfmoJRSt3mapIiiSt4lessIiESaISt4pairIKiiEEEEESt10shared_ptrIT_EDpOT0_
FNDA:0,_ZSt11make_sharedI4wfmoJRSt3mapIiiSt4lessIiESaISt4pairIKiiEEEEESt10shared_ptrIT_EDpOT0_
FN:875,_ZSt11make_sharedI19waitableMessageSinkJRNSt7__cxx1112basic_stringIcSt11char_traitsIcESaIcEEERKiRSt10shared_ptrI7ILoggerEEESA_IT_EDpOT0_
FNDA:0,_ZSt11make_sharedI19waitableMessageSinkJRNSt7__cxx1112basic_stringIcSt11char_traitsIcESaIcEEERKiRSt10shared_ptrI7ILoggerEEESA_IT_EDpOT0_
DA:148,2
DA:148,0
DA:148,0
DA:148,0
DA:150,0
DA:359,0
DA:359,1
DA:359,5
DA:391,0
DA:393,0
DA:394,0
DA:408,0
DA:409,0
DA:410,0
DA:408,0
DA:409,0
DA:410,0
DA:858,0
DA:863,0
DA:858,0
DA:863,0
DA:875,0
DA:878,0
DA:879,0
DA:875,0
DA:878,0
DA:879,0
end_of_record
SF:/usr/include/c++/11/new
FN:174,_ZnwmPv
FNDA:0,_ZnwmPv
FN:180,_ZdlPvS_
FNDA:0,_ZdlPvS_
DA:174,0
DA:175,0
DA:180,0
end_of_record
SF:/usr/include/c++/11/bits/allocated_ptr.h
FN:53,_ZNSt15__allocated_ptrISaISt23_Sp_counted_ptr_inplaceI4wfmoSaIS1_ELN9__gnu_cxx12_Lock_policyE2EEEEC2ERS6_PS5_
FNDA:0,_ZNSt15__allocated_ptrISaISt23_Sp_counted_ptr_inplaceI4wfmoSaIS1_ELN9__gnu_cxx12_Lock_policyE2EEEEC2ERS6_PS5_
FN:53,_ZNSt15__allocated_ptrISaISt23_Sp_counted_ptr_inplaceI19waitableMessageSinkSaIS1_ELN9__gnu_cxx12_Lock_policyE2EEEEC2ERS6_PS5_
FNDA:0,_ZNSt15__allocated_ptrISaISt23_Sp_counted_ptr_inplaceI19waitableMessageSinkSaIS1_ELN9__gnu_cxx12_Lock_policyE2EEEEC2ERS6_PS5_
FN:71,_ZNSt15__allocated_ptrISaISt23_Sp_counted_ptr_inplaceI4wfmoSaIS1_ELN9__gnu_cxx12_Lock_policyE2EEEED2Ev
FNDA:0,_ZNSt15__allocated_ptrISaISt23_Sp_counted_ptr_inplaceI4wfmoSaIS1_ELN9__gnu_cxx12_Lock_policyE2EEEED2Ev
FN:71,_ZNSt15__allocated_ptrISaISt23_Sp_counted_ptr_inplaceI19waitableMessageSinkSaIS1_ELN9__gnu_cxx12_Lock_policyE2EEEED2Ev
FNDA:0,_ZNSt15__allocated_ptrISaISt23_Sp_counted_ptr_inplaceI19waitableMessageSinkSaIS1_ELN9__gnu_cxx12_Lock_policyE2EEEED2Ev
FN:79,_ZNSt15__allocated_ptrISaISt23_Sp_counted_ptr_inplaceI4wfmoSaIS1_ELN9__gnu_cxx12_Lock_policyE2EEEEaSEDn
FNDA:0,_ZNSt15__allocated_ptrISaISt23_Sp_counted_ptr_inplaceI4wfmoSaIS1_ELN9__gnu_cxx12_Lock_policyE2EEEEaSEDn
FN:79,_ZNSt15__allocated_ptrISaISt23_Sp_counted_ptr_inplaceI19waitableMessageSinkSaIS1_ELN9__gnu_cxx12_Lock_policyE2EEEEaSEDn
FNDA:0,_ZNSt15__allocated_ptrISaISt23_Sp_counted_ptr_inplaceI19waitableMessageSinkSaIS1_ELN9__gnu_cxx12_Lock_policyE2EEEEaSEDn
FN:86,_ZNSt15__allocated_ptrISaISt23_Sp_counted_ptr_inplaceI4wfmoSaIS1_ELN9__gnu_cxx12_Lock_policyE2EEEE3getEv
FNDA:0,_ZNSt15__allocated_ptrISaISt23_Sp_counted_ptr_inplaceI4wfmoSaIS1_ELN9__gnu_cxx12_Lock_policyE2EEEE3getEv
FN:86,_ZNSt15__allocated_ptrISaISt23_Sp_counted_ptr_inplaceI19waitableMessageSinkSaIS1_ELN9__gnu_cxx12_Lock_policyE2EEEE3getEv
FNDA:0,_ZNSt15__allocated_ptrISaISt23_Sp_counted_ptr_inplaceI19waitableMessageSinkSaIS1_ELN9__gnu_cxx12_Lock_policyE2EEEE3getEv
FN:96,_ZSt18__allocate_guardedISaISt23_Sp_counted_ptr_inplaceI4wfmoSaIS1_ELN9__gnu_cxx12_Lock_policyE2EEEESt15__allocated_ptrIT_ERS8_
FNDA:0,_ZSt18__allocate_guardedISaISt23_Sp_counted_ptr_inplaceI4wfmoSaIS1_ELN9__gnu_cxx12_Lock_policyE2EEEESt15__allocated_ptrIT_ERS8_
FN:96,_ZSt18__allocate_guardedISaISt23_Sp_counted_ptr_inplaceI19waitableMessageSinkSaIS1_ELN9__gnu_cxx12_Lock_policyE2EEEESt15__allocated_ptrIT_ERS8_
FNDA:0,_ZSt18__allocate_guardedISaISt23_Sp_counted_ptr_inplaceI19waitableMessageSinkSaIS1_ELN9__gnu_cxx12_Lock_policyE2EEEESt15__allocated_ptrIT_ERS8_
DA:53,0
DA:54,0
DA:55,0
DA:53,0
DA:54,0
DA:55,0
DA:71,0
DA:73,0
DA:74,0
DA:75,0
DA:71,0
DA:73,0
DA:74,0
DA:75,0
DA:79,0
DA:81,0
DA:82,0
DA:79,0
DA:81,0
DA:82,0
DA:86,0
DA:86,0
DA:96,0
DA:98,0
DA:96,0
DA:98,0
end_of_record
SF:/home/yackey/projects/waitables/vpgnixApp/include/IRunnable.h
FN:8,_ZN9IRunnableD0Ev
FNDA:0,_ZN9IRunnableD0Ev
FN:8,_ZN9IRunnableD2Ev
FNDA:3,_ZN9IRunnableD2Ev
DA:8,0
DA:8,3
end_of_record
SF:/usr/include/c++/11/bits/std_function.h
FN:85,_ZNSt9_Any_data9_M_accessEv
FNDA:0,_ZNSt9_Any_data9_M_accessEv
FN:86,_ZNKSt9_Any_data9_M_accessEv
FNDA:0,_ZNKSt9_Any_data9_M_accessEv
FN:90,_ZNSt9_Any_data9_M_accessIPSt5_BindIFM6vpgnixFviRNSt7__cxx1112basic_stringIcSt11char_traitsIcESaIcEEEEPS2_St12_PlaceholderILi1EESD_ILi2EEEEEERT_v
FNDA:0,_ZNSt9_Any_data9_M_accessIPSt5_BindIFM6vpgnixFviRNSt7__cxx1112basic_stringIcSt11char_traitsIcESaIcEEEEPS2_St12_PlaceholderILi1EESD_ILi2EEEEEERT_v
FN:90,_ZNSt9_Any_data9_M_accessIPKSt9type_infoEERT_v
FNDA:0,_ZNSt9_Any_data9_M_accessIPKSt9type_infoEERT_v
FN:95,_ZNKSt9_Any_data9_M_accessIPSt5_BindIFM6vpgnixFviRNSt7__cxx1112basic_stringIcSt11char_traitsIcESaIcEEEEPS2_St12_PlaceholderILi1EESD_ILi2EEEEEERKT_v
FNDA:0,_ZNKSt9_Any_data9_M_accessIPSt5_BindIFM6vpgnixFviRNSt7__cxx1112basic_stringIcSt11char_traitsIcESaIcEEEEPS2_St12_PlaceholderILi1EESD_ILi2EEEEEERKT_v
FN:134,_ZNSt14_Function_base13_Base_managerISt5_BindIFM6vpgnixFviRNSt7__cxx1112basic_stringIcSt11char_traitsIcESaIcEEEEPS2_St12_PlaceholderILi1EESD_ILi2EEEEE14_M_get_pointerERKSt9_Any_data
FNDA:0,_ZNSt14_Function_base13_Base_managerISt5_BindIFM6vpgnixFviRNSt7__cxx1112basic_stringIcSt11char_traitsIcESaIcEEEEPS2_St12_PlaceholderILi1EESD_ILi2EEEEE14_M_get_pointerERKSt9_Any_data
FN:158,_ZNSt14_Function_base13_Base_managerISt5_BindIFM6vpgnixFviRNSt7__cxx1112basic_stringIcSt11char_traitsIcESaIcEEEEPS2_St12_PlaceholderILi1EESD_ILi2EEEEE9_M_createIRKSH_EEvRSt9_Any_dataOT_St17integral_constantIbLb0EE
FNDA:0,_ZNSt14_Function_base13_Base_managerISt5_BindIFM6vpgnixFviRNSt7__cxx1112basic_stringIcSt11char_traitsIcESaIcEEEEPS2_St12_PlaceholderILi1EESD_ILi2EEEEE9_M_createIRKSH_EEvRSt9_Any_dataOT_St17integral_constantIbLb0EE
FN:158,_ZNSt14_Function_base13_Base_managerISt5_BindIFM6vpgnixFviRNSt7__cxx1112basic_stringIcSt11char_traitsIcESaIcEEEEPS2_St12_PlaceholderILi1EESD_ILi2EEEEE9_M_createISH_EEvRSt9_Any_dataOT_St17integral_constantIbLb0EE
FNDA:0,_ZNSt14_Function_base13_Base_managerISt5_BindIFM6vpgnixFviRNSt7__cxx1112basic_stringIcSt11char_traitsIcESaIcEEEEPS2_St12_PlaceholderILi1EESD_ILi2EEEEE9_M_createISH_EEvRSt9_Any_dataOT_St17integral_constantIbLb0EE
FN:173,_ZNSt14_Function_base13_Base_managerISt5_BindIFM6vpgnixFviRNSt7__cxx1112basic_stringIcSt11char_traitsIcESaIcEEEEPS2_St12_PlaceholderILi1EESD_ILi2EEEEE10_M_destroyERSt9_Any_dataSt17integral_constantIbLb0EE
FNDA:0,_ZNSt14_Function_base13_Base_managerISt5_BindIFM6vpgnixFviRNSt7__cxx1112basic_stringIcSt11char_traitsIcESaIcEEEEPS2_St12_PlaceholderILi1EESD_ILi2EEEEE10_M_destroyERSt9_Any_dataSt17integral_constantIbLb0EE
FN:180,_ZNSt14_Function_base13_Base_managerISt5_BindIFM6vpgnixFviRNSt7__cxx1112basic_stringIcSt11char_traitsIcESaIcEEEEPS2_St12_PlaceholderILi1EESD_ILi2EEEEE10_M_managerERSt9_Any_dataRKSJ_St18_Manager_operation
FNDA:0,_ZNSt14_Function_base13_Base_managerISt5_BindIFM6vpgnixFviRNSt7__cxx1112basic_stringIcSt11char_traitsIcESaIcEEEEPS2_St12_PlaceholderILi1EESD_ILi2EEEEE10_M_managerERSt9_Any_dataRKSJ_St18_Manager_operation
FN:211,_ZNSt14_Function_base13_Base_managerISt5_BindIFM6vpgnixFviRNSt7__cxx1112basic_stringIcSt11char_traitsIcESaIcEEEEPS2_St12_PlaceholderILi1EESD_ILi2EEEEE15_M_init_functorISH_EEvRSt9_Any_dataOT_
FNDA:0,_ZNSt14_Function_base13_Base_managerISt5_BindIFM6vpgnixFviRNSt7__cxx1112basic_stringIcSt11char_traitsIcESaIcEEEEPS2_St12_PlaceholderILi1EESD_ILi2EEEEE15_M_init_functorISH_EEvRSt9_Any_dataOT_
FN:211,_ZNSt14_Function_base13_Base_managerISt5_BindIFM6vpgnixFviRNSt7__cxx1112basic_stringIcSt11char_traitsIcESaIcEEEEPS2_St12_PlaceholderILi1EESD_ILi2EEEEE15_M_init_functorIRKSH_EEvRSt9_Any_dataOT_
FNDA:0,_ZNSt14_Function_base13_Base_managerISt5_BindIFM6vpgnixFviRNSt7__cxx1112basic_stringIcSt11char_traitsIcESaIcEEEEPS2_St12_PlaceholderILi1EESD_ILi2EEEEE15_M_init_functorIRKSH_EEvRSt9_Any_dataOT_
FN:235,_ZNSt14_Function_base13_Base_managerISt5_BindIFM6vpgnixFviRNSt7__cxx1112basic_stringIcSt11char_traitsIcESaIcEEEEPS2_St12_PlaceholderILi1EESD_ILi2EEEEE21_M_not_empty_functionISH_EEbRKT_
FNDA:0,_ZNSt14_Function_base13_Base_managerISt5_BindIFM6vpgnixFviRNSt7__cxx1112basic_stringIcSt11char_traitsIcESaIcEEEEPS2_St12_PlaceholderILi1EESD_ILi2EEEEE21_M_not_empty_functionISH_EEbRKT_
FN:239,_ZNSt14_Function_baseC2Ev
FNDA:0,_ZNSt14_Function_baseC2Ev
FN:241,_ZNSt14_Function_baseD2Ev
FNDA:0,_ZNSt14_Function_baseD2Ev
FN:247,_ZNKSt14_Function_base8_M_emptyEv
FNDA:0,_ZNKSt14_Function_base8_M_emptyEv
FN:267,_ZNSt17_Function_handlerIFviRNSt7__cxx1112basic_stringIcSt11char_traitsIcESaIcEEEESt5_BindIFM6vpgnixFviS6_EPS9_St12_PlaceholderILi1EESD_ILi2EEEEE10_M_managerERSt9_Any_dataRKSJ_St18_Manager_operation
FNDA:0,_ZNSt17_Function_handlerIFviRNSt7__cxx1112basic_stringIcSt11char_traitsIcESaIcEEEESt5_BindIFM6vpgnixFviS6_EPS9_St12_PlaceholderILi1EESD_ILi2EEEEE10_M_managerERSt9_Any_dataRKSJ_St18_Manager_operation
FN:288,_ZNSt17_Function_handlerIFviRNSt7__cxx1112basic_stringIcSt11char_traitsIcESaIcEEEESt5_BindIFM6vpgnixFviS6_EPS9_St12_PlaceholderILi1EESD_ILi2EEEEE9_M_invokeERKSt9_Any_dataOiS6_
FNDA:0,_ZNSt17_Function_handlerIFviRNSt7__cxx1112basic_stringIcSt11char_traitsIcESaIcEEEESt5_BindIFM6vpgnixFviS6_EPS9_St12_PlaceholderILi1EESD_ILi2EEEEE9_M_invokeERKSt9_Any_dataOiS6_
FN:386,_ZNSt8functionIFviRNSt7__cxx1112basic_stringIcSt11char_traitsIcESaIcEEEEEC2ERKS8_
FNDA:0,_ZNSt8functionIFviRNSt7__cxx1112basic_stringIcSt11char_traitsIcESaIcEEEEEC2ERKS8_
FN:435,_ZNSt8functionIFviRNSt7__cxx1112basic_stringIcSt11char_traitsIcESaIcEEEEEC2ISt5_BindIFM6vpgnixFviS6_EPSB_St12_PlaceholderILi1EESF_ILi2EEEEvEEOT_
FNDA:0,_ZNSt8functionIFviRNSt7__cxx1112basic_stringIcSt11char_traitsIcESaIcEEEEEC2ISt5_BindIFM6vpgnixFviS6_EPSB_St12_PlaceholderILi1EESF_ILi2EEEEvEEOT_
FN:572,_ZNKSt8functionIFviRNSt7__cxx1112basic_stringIcSt11char_traitsIcESaIcEEEEEcvbEv
FNDA:0,_ZNKSt8functionIFviRNSt7__cxx1112basic_stringIcSt11char_traitsIcESaIcEEEEEcvbEv
DA:85,0
DA:86,0
DA:90,0
DA:91,0
DA:90,0
DA:91,0
DA:95,0
DA:96,0
DA:134,0
DA:142,0
DA:158,0
DA:160,0
DA:161,0
DA:162,0
DA:158,0
DA:160,0
DA:161,0
DA:162,0
DA:173,0
DA:175,0
DA:176,0
DA:180,0
DA:183,0
DA:185,0
DA:187,0
DA:191,0
DA:193,0
DA:194,0
DA:195,0
DA:197,0
DA:198,0
DA:199,0
DA:200,0
DA:202,0
DA:203,0
DA:204,0
DA:206,0
DA:211,0
DA:215,0
DA:216,0
DA:211,0
DA:215,0
DA:216,0
DA:235,0
DA:236,0
DA:239,0
DA:241,0
DA:243,0
DA:244,0
DA:245,0
DA:247,0
DA:267,0
DA:270,0
DA:273,0
DA:274,0
DA:275,0
DA:277,0
DA:278,0
DA:279,0
DA:281,0
DA:282,0
DA:284,0
DA:288,0
DA:290,0
DA:291,0
DA:386,0
DA:387,0
DA:389,0
DA:391,0
DA:392,0
DA:393,0
DA:395,0
DA:435,0
DA:437,0
DA:447,0
DA:449,0
DA:451,0
DA:452,0
DA:454,0
DA:572,0
DA:573,0
end_of_record
SF:/usr/include/c++/11/ext/atomicity.h
DA:52,0
DA:66,0
DA:71,0
DA:84,0
DA:85,0
DA:86,0
DA:92,0
DA:98,0
DA:99,0
DA:101,0
DA:108,0
DA:112,0
end_of_record
SF:/usr/include/c++/11/ext/new_allocator.h
FN:79,_ZN9__gnu_cxx13new_allocatorIcEC2Ev
FNDA:0,_ZN9__gnu_cxx13new_allocatorIcEC2Ev
FN:79,_ZN9__gnu_cxx13new_allocatorI19waitableMessageSinkEC2Ev
FNDA:0,_ZN9__gnu_cxx13new_allocatorI19waitableMessageSinkEC2Ev
FN:79,_ZN9__gnu_cxx13new_allocatorISt13_Rb_tree_nodeISt4pairIKiiEEEC2Ev
FNDA:0,_ZN9__gnu_cxx13new_allocatorISt13_Rb_tree_nodeISt4pairIKiiEEEC2Ev
FN:79,_ZN9__gnu_cxx13new_allocatorI4wfmoEC2Ev
FNDA:0,_ZN9__gnu_cxx13new_allocatorI4wfmoEC2Ev
FN:79,_ZN9__gnu_cxx13new_allocatorISt23_Sp_counted_ptr_inplaceI19waitableMessageSinkSaIS2_ELNS_12_Lock_policyE2EEEC2Ev
FNDA:0,_ZN9__gnu_cxx13new_allocatorISt23_Sp_counted_ptr_inplaceI19waitableMessageSinkSaIS2_ELNS_12_Lock_policyE2EEEC2Ev
FN:79,_ZN9__gnu_cxx13new_allocatorISt23_Sp_counted_ptr_inplaceI4wfmoSaIS2_ELNS_12_Lock_policyE2EEEC2Ev
FNDA:0,_ZN9__gnu_cxx13new_allocatorISt23_Sp_counted_ptr_inplaceI4wfmoSaIS2_ELNS_12_Lock_policyE2EEEC2Ev
FN:82,_ZN9__gnu_cxx13new_allocatorI19waitableMessageSinkEC2ERKS2_
FNDA:0,_ZN9__gnu_cxx13new_allocatorI19waitableMessageSinkEC2ERKS2_
FN:82,_ZN9__gnu_cxx13new_allocatorIcEC2ERKS1_
FNDA:0,_ZN9__gnu_cxx13new_allocatorIcEC2ERKS1_
FN:82,_ZN9__gnu_cxx13new_allocatorISt13_Rb_tree_nodeISt4pairIKiiEEEC2ERKS6_
FNDA:0,_ZN9__gnu_cxx13new_allocatorISt13_Rb_tree_nodeISt4pairIKiiEEEC2ERKS6_
FN:82,_ZN9__gnu_cxx13new_allocatorI4wfmoEC2ERKS2_
FNDA:0,_ZN9__gnu_cxx13new_allocatorI4wfmoEC2ERKS2_
FN:103,_ZN9__gnu_cxx13new_allocatorISt13_Rb_tree_nodeISt4pairIKiiEEE8allocateEmPKv
FNDA:0,_ZN9__gnu_cxx13new_allocatorISt13_Rb_tree_nodeISt4pairIKiiEEE8allocateEmPKv
FN:103,_ZN9__gnu_cxx13new_allocatorIcE8allocateEmPKv
FNDA:0,_ZN9__gnu_cxx13new_allocatorIcE8allocateEmPKv
FN:103,_ZN9__gnu_cxx13new_allocatorISt23_Sp_counted_ptr_inplaceI19waitableMessageSinkSaIS2_ELNS_12_Lock_policyE2EEE8allocateEmPKv
FNDA:0,_ZN9__gnu_cxx13new_allocatorISt23_Sp_counted_ptr_inplaceI19waitableMessageSinkSaIS2_ELNS_12_Lock_policyE2EEE8allocateEmPKv
FN:103,_ZN9__gnu_cxx13new_allocatorISt23_Sp_counted_ptr_inplaceI4wfmoSaIS2_ELNS_12_Lock_policyE2EEE8allocateEmPKv
FNDA:0,_ZN9__gnu_cxx13new_allocatorISt23_Sp_counted_ptr_inplaceI4wfmoSaIS2_ELNS_12_Lock_policyE2EEE8allocateEmPKv
FN:132,_ZN9__gnu_cxx13new_allocatorISt13_Rb_tree_nodeISt4pairIKiiEEE10deallocateEPS5_m
FNDA:0,_ZN9__gnu_cxx13new_allocatorISt13_Rb_tree_nodeISt4pairIKiiEEE10deallocateEPS5_m
FN:132,_ZN9__gnu_cxx13new_allocatorIcE10deallocateEPcm
FNDA:0,_ZN9__gnu_cxx13new_allocatorIcE10deallocateEPcm
FN:132,_ZN9__gnu_cxx13new_allocatorISt23_Sp_counted_ptr_inplaceI19waitableMessageSinkSaIS2_ELNS_12_Lock_policyE2EEE10deallocateEPS5_m
FNDA:0,_ZN9__gnu_cxx13new_allocatorISt23_Sp_counted_ptr_inplaceI19waitableMessageSinkSaIS2_ELNS_12_Lock_policyE2EEE10deallocateEPS5_m
FN:132,_ZN9__gnu_cxx13new_allocatorISt23_Sp_counted_ptr_inplaceI4wfmoSaIS2_ELNS_12_Lock_policyE2EEE10deallocateEPS5_m
FNDA:0,_ZN9__gnu_cxx13new_allocatorISt23_Sp_counted_ptr_inplaceI4wfmoSaIS2_ELNS_12_Lock_policyE2EEE10deallocateEPS5_m
FN:197,_ZNK9__gnu_cxx13new_allocatorISt13_Rb_tree_nodeISt4pairIKiiEEE11_M_max_sizeEv
FNDA:0,_ZNK9__gnu_cxx13new_allocatorISt13_Rb_tree_nodeISt4pairIKiiEEE11_M_max_sizeEv
FN:197,_ZNK9__gnu_cxx13new_allocatorISt23_Sp_counted_ptr_inplaceI19waitableMessageSinkSaIS2_ELNS_12_Lock_policyE2EEE11_M_max_sizeEv
FNDA:0,_ZNK9__gnu_cxx13new_allocatorISt23_Sp_counted_ptr_inplaceI19waitableMessageSinkSaIS2_ELNS_12_Lock_policyE2EEE11_M_max_sizeEv
FN:197,_ZNK9__gnu_cxx13new_allocatorIcE11_M_max_sizeEv
FNDA:0,_ZNK9__gnu_cxx13new_allocatorIcE11_M_max_sizeEv
FN:197,_ZNK9__gnu_cxx13new_allocatorISt23_Sp_counted_ptr_inplaceI4wfmoSaIS2_ELNS_12_Lock_policyE2EEE11_M_max_sizeEv
FNDA:0,_ZNK9__gnu_cxx13new_allocatorISt23_Sp_counted_ptr_inplaceI4wfmoSaIS2_ELNS_12_Lock_policyE2EEE11_M_max_sizeEv
DA:79,0
DA:79,0
DA:79,0
DA:79,0
DA:79,0
DA:79,0
DA:82,0
DA:82,0
DA:82,0
DA:82,0
DA:103,0
DA:111,0
DA:115,0
DA:116,0
DA:117,0
DA:127,0
DA:103,0
DA:111,0
DA:115,0
DA:116,0
DA:117,0
DA:127,0
DA:103,0
DA:111,0
DA:115,0
DA:116,0
DA:117,0
DA:127,0
DA:103,0
DA:111,0
DA:117,0
DA:127,0
DA:132,0
DA:145,0
DA:132,0
DA:145,0
DA:132,0
DA:145,0
DA:132,0
DA:145,0
DA:197,0
DA:200,0
DA:197,0
DA:200,0
DA:197,0
DA:200,0
DA:197,0
DA:200,0
end_of_record
TN:
SF:/home/yackey/projects/waitables/vpgnixApp/src/corethread.cpp
FN:14,_ZN10corethreadC2ESt10shared_ptrI14waitable_eventES0_I9aspthreadES2_S0_I7ILoggerE
FNDA:1,_ZN10corethreadC2ESt10shared_ptrI14waitable_eventES0_I9aspthreadES2_S0_I7ILoggerE
FN:24,_ZN10corethread5startEv
FNDA:0,_ZN10corethread5startEv
FN:38,_ZN10corethread3runEiRNSt7__cxx1112basic_stringIcSt11char_traitsIcESaIcEEE
FNDA:0,_ZN10corethread3runEiRNSt7__cxx1112basic_stringIcSt11char_traitsIcESaIcEEE
FN:100,_ZN10corethread20handleCoreAspMessageEmm
FNDA:0,_ZN10corethread20handleCoreAspMessageEmm
FN:105,_ZN10corethread7timeoutEmm
FNDA:0,_ZN10corethread7timeoutEmm
FN:109,_ZN10corethread4stopEv
FNDA:0,_ZN10corethread4stopEv
FN:147,_ZN10corethread26startCoreProcessingThreadsEv
FNDA:0,_ZN10corethread26startCoreProcessingThreadsEv
FN:149,_ZN10corethread14startAspThreadEv
FNDA:0,_ZN10corethread14startAspThreadEv
DA:14,1
DA:17,1
DA:18,1
DA:19,1
DA:20,1
DA:21,1
DA:22,1
DA:24,0
DA:25,0
DA:26,0
DA:27,0
DA:28,0
DA:30,0
DA:31,0
DA:32,0
DA:33,0
DA:34,0
DA:35,0
DA:36,0
DA:38,0
DA:39,0
DA:42,0
DA:43,0
DA:44,0
DA:46,0
DA:48,0
DA:49,0
DA:50,0
DA:51,0
DA:53,0
DA:54,0
DA:57,0
DA:58,0
DA:59,0
DA:60,0
DA:61,0
DA:62,0
DA:63,0
DA:65,0
DA:66,0
DA:67,0
DA:69,0
DA:70,0
DA:72,0
DA:76,0
DA:77,0
DA:80,0
DA:81,0
DA:82,0
DA:83,0
DA:84,0
DA:85,0
DA:87,0
DA:89,0
DA:93,0
DA:95,0
DA:96,0
DA:97,0
DA:98,0
DA:100,0
DA:101,0
DA:103,0
DA:105,0
DA:106,0
DA:107,0
DA:109,0
DA:110,0
DA:111,0
DA:112,0
DA:113,0
DA:115,0
DA:116,0
DA:118,0
DA:119,0
DA:121,0
DA:124,0
DA:126,0
DA:127,0
DA:128,0
DA:129,0
DA:131,0
DA:132,0
DA:133,0
DA:134,0
DA:135,0
DA:137,0
DA:139,0
DA:142,0
DA:143,0
DA:144,0
DA:145,0
DA:147,0
DA:149,0
DA:150,0
DA:151,0
end_of_record
SF:/usr/include/c++/11/type_traits
FN:3418,_ZSt21is_constant_evaluatedv
FNDA:0,_ZSt21is_constant_evaluatedv
DA:3418,0
DA:3419,0
end_of_record
SF:/usr/include/c++/11/bits/cpp_type_traits.h
FN:560,_ZSt12__miter_baseIPKcET_S2_
FNDA:0,_ZSt12__miter_baseIPKcET_S2_
DA:560,0
DA:561,0
end_of_record
SF:/usr/include/c++/11/bits/allocator.h
FN:156,_ZNSaI4wfmoEC2Ev
FNDA:0,_ZNSaI4wfmoEC2Ev
FN:156,_ZNSaISt13_Rb_tree_nodeISt4pairIKiiEEEC2Ev
FNDA:0,_ZNSaISt13_Rb_tree_nodeISt4pairIKiiEEEC2Ev
FN:156,_ZNSaI19waitableMessageSinkEC2Ev
FNDA:0,_ZNSaI19waitableMessageSinkEC2Ev
FN:159,_ZNSaISt13_Rb_tree_nodeISt4pairIKiiEEEC2ERKS4_
FNDA:0,_ZNSaISt13_Rb_tree_nodeISt4pairIKiiEEEC2ERKS4_
FN:159,_ZNSaI4wfmoEC2ERKS0_
FNDA:0,_ZNSaI4wfmoEC2ERKS0_
FN:159,_ZNSaI19waitableMessageSinkEC2ERKS0_
FNDA:0,_ZNSaI19waitableMessageSinkEC2ERKS0_
FN:169,_ZNSaISt23_Sp_counted_ptr_inplaceI4wfmoSaIS0_ELN9__gnu_cxx12_Lock_policyE2EEEC2IS0_EERKSaIT_E
FNDA:0,_ZNSaISt23_Sp_counted_ptr_inplaceI4wfmoSaIS0_ELN9__gnu_cxx12_Lock_policyE2EEEC2IS0_EERKSaIT_E
FN:169,_ZNSaISt23_Sp_counted_ptr_inplaceI19waitableMessageSinkSaIS0_ELN9__gnu_cxx12_Lock_policyE2EEEC2IS0_EERKSaIT_E
FNDA:0,_ZNSaISt23_Sp_counted_ptr_inplaceI19waitableMessageSinkSaIS0_ELN9__gnu_cxx12_Lock_policyE2EEEC2IS0_EERKSaIT_E
FN:174,_ZNSaISt23_Sp_counted_ptr_inplaceI4wfmoSaIS0_ELN9__gnu_cxx12_Lock_policyE2EEED2Ev
FNDA:0,_ZNSaISt23_Sp_counted_ptr_inplaceI4wfmoSaIS0_ELN9__gnu_cxx12_Lock_policyE2EEED2Ev
FN:174,_ZNSaISt23_Sp_counted_ptr_inplaceI19waitableMessageSinkSaIS0_ELN9__gnu_cxx12_Lock_policyE2EEED2Ev
FNDA:0,_ZNSaISt23_Sp_counted_ptr_inplaceI19waitableMessageSinkSaIS0_ELN9__gnu_cxx12_Lock_policyE2EEED2Ev
FN:174,_ZNSaI4wfmoED2Ev
FNDA:0,_ZNSaI4wfmoED2Ev
FN:174,_ZNSaI19waitableMessageSinkED2Ev
FNDA:0,_ZNSaI19waitableMessageSinkED2Ev
FN:174,_ZNSaISt13_Rb_tree_nodeISt4pairIKiiEEED2Ev
FNDA:0,_ZNSaISt13_Rb_tree_nodeISt4pairIKiiEEED2Ev
DA:156,0
DA:156,0
DA:156,0
DA:159,0
DA:160,0
DA:159,0
DA:160,0
DA:159,0
DA:160,0
DA:169,0
DA:169,0
DA:174,0
DA:174,0
DA:174,0
DA:174,0
DA:174,0
DA:182,0
DA:183,0
DA:185,0
DA:193,0
DA:195,0
DA:196,0
DA:199,0
end_of_record
SF:/usr/include/c++/11/functional
FN:363,_ZNVKSt3_MuISt12_PlaceholderILi2EELb0ELb1EEclISt5tupleIJOiRNSt7__cxx1112basic_stringIcSt11char_traitsIcESaIcEEEEEEEONSt9enable_ifIXltLm1EsrSt10tuple_sizeIT_E5valueESt13tuple_elementILm1ESG_EE4type4typeERVKS1_RSG_
FNDA:0,_ZNVKSt3_MuISt12_PlaceholderILi2EELb0ELb1EEclISt5tupleIJOiRNSt7__cxx1112basic_stringIcSt11char_traitsIcESaIcEEEEEEEONSt9enable_ifIXltLm1EsrSt10tuple_sizeIT_E5valueESt13tuple_elementILm1ESG_EE4type4typeERVKS1_RSG_
FN:363,_ZNVKSt3_MuISt12_PlaceholderILi1EELb0ELb1EEclISt5tupleIJOiRNSt7__cxx1112basic_stringIcSt11char_traitsIcESaIcEEEEEEEONSt9enable_ifIXltLm0EsrSt10tuple_sizeIT_E5valueESt13tuple_elementILm0ESG_EE4type4typeERVKS1_RSG_
FNDA:0,_ZNVKSt3_MuISt12_PlaceholderILi1EELb0ELb1EEclISt5tupleIJOiRNSt7__cxx1112basic_stringIcSt11char_traitsIcESaIcEEEEEEEONSt9enable_ifIXltLm0EsrSt10tuple_sizeIT_E5valueESt13tuple_elementILm0ESG_EE4type4typeERVKS1_RSG_
FN:382,_ZNVKSt3_MuIP10corethreadLb0ELb0EEclIRS1_St5tupleIJOiRNSt7__cxx1112basic_stringIcSt11char_traitsIcESaIcEEEEEEEOT_SG_RT0_
FNDA:0,_ZNVKSt3_MuIP10corethreadLb0ELb0EEclIRS1_St5tupleIJOiRNSt7__cxx1112basic_stringIcSt11char_traitsIcESaIcEEEEEEEOT_SG_RT0_
FN:418,_ZNSt5_BindIFM10corethreadFviRNSt7__cxx1112basic_stringIcSt11char_traitsIcESaIcEEEEPS0_St12_PlaceholderILi1EESB_ILi2EEEE6__callIvJOiS7_EJLm0ELm1ELm2EEEET_OSt5tupleIJDpT0_EESt12_Index_tupleIJXspT1_EEE
FNDA:0,_ZNSt5_BindIFM10corethreadFviRNSt7__cxx1112basic_stringIcSt11char_traitsIcESaIcEEEEPS0_St12_PlaceholderILi1EESB_ILi2EEEE6__callIvJOiS7_EJLm0ELm1ELm2EEEET_OSt5tupleIJDpT0_EESt12_Index_tupleIJXspT1_EEE
FN:489,_ZNSt5_BindIFM10corethreadFviRNSt7__cxx1112basic_stringIcSt11char_traitsIcESaIcEEEEPS0_St12_PlaceholderILi1EESB_ILi2EEEEC2IJSA_RKSC_RKSD_EEEOS9_DpOT_
FNDA:0,_ZNSt5_BindIFM10corethreadFviRNSt7__cxx1112basic_stringIcSt11char_traitsIcESaIcEEEEPS0_St12_PlaceholderILi1EESB_ILi2EEEEC2IJSA_RKSC_RKSD_EEEOS9_DpOT_
FN:494,_ZNSt5_BindIFM10corethreadFviRNSt7__cxx1112basic_stringIcSt11char_traitsIcESaIcEEEEPS0_St12_PlaceholderILi1EESB_ILi2EEEEC2EOSF_
FNDA:0,_ZNSt5_BindIFM10corethreadFviRNSt7__cxx1112basic_stringIcSt11char_traitsIcESaIcEEEEPS0_St12_PlaceholderILi1EESB_ILi2EEEEC2EOSF_
FN:501,_ZNSt5_BindIFM10corethreadFviRNSt7__cxx1112basic_stringIcSt11char_traitsIcESaIcEEEEPS0_St12_PlaceholderILi1EESB_ILi2EEEEclIJiS7_EvEET0_DpOT_
FNDA:0,_ZNSt5_BindIFM10corethreadFviRNSt7__cxx1112basic_stringIcSt11char_traitsIcESaIcEEEEPS0_St12_PlaceholderILi1EESB_ILi2EEEEclIJiS7_EvEET0_DpOT_
FN:789,_ZSt4bindIM10corethreadFviRNSt7__cxx1112basic_stringIcSt11char_traitsIcESaIcEEEEJPS0_RKSt12_PlaceholderILi1EERKSB_ILi2EEEENSt12_Bind_helperIXsrSt5__or_IJSt11is_integralINSt5decayIT_E4typeEESt7is_enumISO_EEE5valueESM_JDpT0_EE4typeEOSM_DpOST_
FNDA:0,_ZSt4bindIM10corethreadFviRNSt7__cxx1112basic_stringIcSt11char_traitsIcESaIcEEEEJPS0_RKSt12_PlaceholderILi1EERKSB_ILi2EEEENSt12_Bind_helperIXsrSt5__or_IJSt11is_integralINSt5decayIT_E4typeEESt7is_enumISO_EEE5valueESM_JDpT0_EE4typeEOSM_DpOST_
DA:363,0
DA:366,0
DA:363,0
DA:366,0
DA:382,0
DA:383,0
DA:418,0
DA:420,0
DA:421,0
DA:422,0
DA:489,0
DA:490,0
DA:491,0
DA:494,0
DA:501,0
DA:503,0
DA:505,0
DA:789,0
DA:793,0
end_of_record
SF:/usr/include/c++/11/bits/char_traits.h
FN:106,_ZN9__gnu_cxx11char_traitsIcE2eqERKcS3_
FNDA:0,_ZN9__gnu_cxx11char_traitsIcE2eqERKcS3_
FN:167,_ZN9__gnu_cxx11char_traitsIcE6lengthEPKc
FNDA:0,_ZN9__gnu_cxx11char_traitsIcE6lengthEPKc
FN:240,_ZN9__gnu_cxx11char_traitsIcE4copyEPcPKcm
FNDA:0,_ZN9__gnu_cxx11char_traitsIcE4copyEPcPKcm
FN:356,_ZNSt11char_traitsIcE6assignERcRKc
FNDA:0,_ZNSt11char_traitsIcE6assignERcRKc
FN:393,_ZNSt11char_traitsIcE6lengthEPKc
FNDA:0,_ZNSt11char_traitsIcE6lengthEPKc
FN:429,_ZNSt11char_traitsIcE4copyEPcPKcm
FNDA:0,_ZNSt11char_traitsIcE4copyEPcPKcm
DA:106,0
DA:107,0
DA:167,0
DA:170,0
DA:171,0
DA:172,0
DA:173,0
DA:240,0
DA:244,0
DA:245,0
DA:290,0
DA:356,0
DA:357,0
DA:393,0
DA:396,0
DA:397,0
DA:399,0
DA:429,0
DA:431,0
DA:432,0
DA:434,0
DA:435,0
DA:437,0
end_of_record
SF:/usr/include/c++/11/bits/invoke.h
FN:60,_ZSt13__invoke_implIvRSt5_BindIFM10corethreadFviRNSt7__cxx1112basic_stringIcSt11char_traitsIcESaIcEEEEPS1_St12_PlaceholderILi1EESC_ILi2EEEEJiS8_EET_St14__invoke_otherOT0_DpOT1_
FNDA:0,_ZSt13__invoke_implIvRSt5_BindIFM10corethreadFviRNSt7__cxx1112basic_stringIcSt11char_traitsIcESaIcEEEEPS1_St12_PlaceholderILi1EESC_ILi2EEEEJiS8_EET_St14__invoke_otherOT0_DpOT1_
FN:71,_ZSt13__invoke_implIvRM10corethreadFviRNSt7__cxx1112basic_stringIcSt11char_traitsIcESaIcEEEERPS0_JiS7_EET_St21__invoke_memfun_derefOT0_OT1_DpOT2_
FNDA:0,_ZSt13__invoke_implIvRM10corethreadFviRNSt7__cxx1112basic_stringIcSt11char_traitsIcESaIcEEEERPS0_JiS7_EET_St21__invoke_memfun_derefOT0_OT1_DpOT2_
FN:90,_ZSt8__invokeIRM10corethreadFviRNSt7__cxx1112basic_stringIcSt11char_traitsIcESaIcEEEEJRPS0_iS7_EENSt15__invoke_resultIT_JDpT0_EE4typeEOSE_DpOSF_
FNDA:0,_ZSt8__invokeIRM10corethreadFviRNSt7__cxx1112basic_stringIcSt11char_traitsIcESaIcEEEEJRPS0_iS7_EENSt15__invoke_resultIT_JDpT0_EE4typeEOSE_DpOSF_
FN:104,_ZSt10__invoke_rIvRSt5_BindIFM10corethreadFviRNSt7__cxx1112basic_stringIcSt11char_traitsIcESaIcEEEEPS1_St12_PlaceholderILi1EESC_ILi2EEEEJiS8_EENSt9enable_ifIX16is_invocable_r_vIT_T0_DpT1_EESJ_E4typeEOSK_DpOSL_
FNDA:0,_ZSt10__invoke_rIvRSt5_BindIFM10corethreadFviRNSt7__cxx1112basic_stringIcSt11char_traitsIcESaIcEEEEPS1_St12_PlaceholderILi1EESC_ILi2EEEEJiS8_EENSt9enable_ifIX16is_invocable_r_vIT_T0_DpT1_EESJ_E4typeEOSK_DpOSL_
DA:60,0
DA:61,0
DA:71,0
DA:74,0
DA:90,0
DA:96,0
DA:97,0
DA:104,0
DA:111,0
DA:117,0
end_of_record
SF:/usr/include/c++/11/bits/stl_function.h
FN:399,_ZNKSt4lessIiEclERKiS2_
FNDA:0,_ZNKSt4lessIiEclERKiS2_
FN:1174,_ZNKSt10_Select1stISt4pairIKiiEEclERKS2_
FNDA:0,_ZNKSt10_Select1stISt4pairIKiiEEclERKS2_
DA:399,0
DA:400,0
DA:1174,0
DA:1175,0
end_of_record
SF:/usr/include/c++/11/typeinfo
FN:120,_ZNKSt9type_infoeqERKS_
FNDA:0,_ZNKSt9type_infoeqERKS_
DA:120,0
DA:122,0
DA:123,0
DA:124,0
end_of_record
SF:/home/yackey/projects/waitables/vpgnixApp/include/corethread.h
FN:19,_ZN10corethreadD0Ev
FNDA:0,_ZN10corethreadD0Ev
FN:19,_ZN10corethreadD2Ev
FNDA:1,_ZN10corethreadD2Ev
DA:19,0
DA:19,1
end_of_record
SF:/usr/include/c++/11/bits/basic_string.h
FN:164,_ZNSt7__cxx1112basic_stringIcSt11char_traitsIcESaIcEE12_Alloc_hiderC2EPcRKS3_
FNDA:0,_ZNSt7__cxx1112basic_stringIcSt11char_traitsIcESaIcEE12_Alloc_hiderC2EPcRKS3_
FN:167,_ZNSt7__cxx1112basic_stringIcSt11char_traitsIcESaIcEE12_Alloc_hiderC2EPcOS3_
FNDA:0,_ZNSt7__cxx1112basic_stringIcSt11char_traitsIcESaIcEE12_Alloc_hiderC2EPcOS3_
FN:186,_ZNSt7__cxx1112basic_stringIcSt11char_traitsIcESaIcEE7_M_dataEPc
FNDA:0,_ZNSt7__cxx1112basic_stringIcSt11char_traitsIcESaIcEE7_M_dataEPc
FN:190,_ZNSt7__cxx1112basic_stringIcSt11char_traitsIcESaIcEE9_M_lengthEm
FNDA:0,_ZNSt7__cxx1112basic_stringIcSt11char_traitsIcESaIcEE9_M_lengthEm
FN:194,_ZNKSt7__cxx1112basic_stringIcSt11char_traitsIcESaIcEE7_M_dataEv
FNDA:0,_ZNKSt7__cxx1112basic_stringIcSt11char_traitsIcESaIcEE7_M_dataEv
FN:198,_ZNSt7__cxx1112basic_stringIcSt11char_traitsIcESaIcEE13_M_local_dataEv
FNDA:0,_ZNSt7__cxx1112basic_stringIcSt11char_traitsIcESaIcEE13_M_local_dataEv
FN:208,_ZNKSt7__cxx1112basic_stringIcSt11char_traitsIcESaIcEE13_M_local_dataEv
FNDA:0,_ZNKSt7__cxx1112basic_stringIcSt11char_traitsIcESaIcEE13_M_local_dataEv
FN:218,_ZNSt7__cxx1112basic_stringIcSt11char_traitsIcESaIcEE11_M_capacityEm
FNDA:0,_ZNSt7__cxx1112basic_stringIcSt11char_traitsIcESaIcEE11_M_capacityEm
FN:222,_ZNSt7__cxx1112basic_stringIcSt11char_traitsIcESaIcEE13_M_set_lengthEm
FNDA:0,_ZNSt7__cxx1112basic_stringIcSt11char_traitsIcESaIcEE13_M_set_lengthEm
FN:229,_ZNKSt7__cxx1112basic_stringIcSt11char_traitsIcESaIcEE11_M_is_localEv
FNDA:0,_ZNKSt7__cxx1112basic_stringIcSt11char_traitsIcESaIcEE11_M_is_localEv
FN:237,_ZNSt7__cxx1112basic_stringIcSt11char_traitsIcESaIcEE10_M_disposeEv
FNDA:0,_ZNSt7__cxx1112basic_stringIcSt11char_traitsIcESaIcEE10_M_disposeEv
FN:244,_ZNSt7__cxx1112basic_stringIcSt11char_traitsIcESaIcEE10_M_destroyEm
FNDA:0,_ZNSt7__cxx1112basic_stringIcSt11char_traitsIcESaIcEE10_M_destroyEm
FN:251,_ZNSt7__cxx1112basic_stringIcSt11char_traitsIcESaIcEE16_M_construct_auxIPcEEvT_S7_St12__false_type
FNDA:0,_ZNSt7__cxx1112basic_stringIcSt11char_traitsIcESaIcEE16_M_construct_auxIPcEEvT_S7_St12__false_type
FN:271,_ZNSt7__cxx1112basic_stringIcSt11char_traitsIcESaIcEE12_M_constructIPcEEvT_S7_
FNDA:0,_ZNSt7__cxx1112basic_stringIcSt11char_traitsIcESaIcEE12_M_constructIPcEEvT_S7_
FN:294,_ZNSt7__cxx1112basic_stringIcSt11char_traitsIcESaIcEE16_M_get_allocatorEv
FNDA:0,_ZNSt7__cxx1112basic_stringIcSt11char_traitsIcESaIcEE16_M_get_allocatorEv
FN:298,_ZNKSt7__cxx1112basic_stringIcSt11char_traitsIcESaIcEE16_M_get_allocatorEv
FNDA:0,_ZNKSt7__cxx1112basic_stringIcSt11char_traitsIcESaIcEE16_M_get_allocatorEv
FN:354,_ZNSt7__cxx1112basic_stringIcSt11char_traitsIcESaIcEE7_S_copyEPcPKcm
FNDA:0,_ZNSt7__cxx1112basic_stringIcSt11char_traitsIcESaIcEE7_S_copyEPcPKcm
FN:400,_ZNSt7__cxx1112basic_stringIcSt11char_traitsIcESaIcEE13_S_copy_charsEPcS5_S5_
FNDA:0,_ZNSt7__cxx1112basic_stringIcSt11char_traitsIcESaIcEE13_S_copy_charsEPcS5_S5_
FN:404,_ZNSt7__cxx1112basic_stringIcSt11char_traitsIcESaIcEE13_S_copy_charsEPcPKcS7_
FNDA:0,_ZNSt7__cxx1112basic_stringIcSt11char_traitsIcESaIcEE13_S_copy_charsEPcPKcS7_
FN:456,_ZNSt7__cxx1112basic_stringIcSt11char_traitsIcESaIcEEC2ERKS4_
FNDA:0,_ZNSt7__cxx1112basic_stringIcSt11char_traitsIcESaIcEEC2ERKS4_
FN:533,_ZNSt7__cxx1112basic_stringIcSt11char_traitsIcESaIcEEC2IS3_EEPKcRKS3_
FNDA:0,_ZNSt7__cxx1112basic_stringIcSt11char_traitsIcESaIcEEC2IS3_EEPKcRKS3_
FN:671,_ZNSt7__cxx1112basic_stringIcSt11char_traitsIcESaIcEED2Ev
FNDA:0,_ZNSt7__cxx1112basic_stringIcSt11char_traitsIcESaIcEED2Ev
FN:926,_ZNKSt7__cxx1112basic_stringIcSt11char_traitsIcESaIcEE6lengthEv
FNDA:0,_ZNKSt7__cxx1112basic_stringIcSt11char_traitsIcESaIcEE6lengthEv
FN:931,_ZNKSt7__cxx1112basic_stringIcSt11char_traitsIcESaIcEE8max_sizeEv
FNDA:0,_ZNKSt7__cxx1112basic_stringIcSt11char_traitsIcESaIcEE8max_sizeEv
FN:2320,_ZNKSt7__cxx1112basic_stringIcSt11char_traitsIcESaIcEE5c_strEv
FNDA:0,_ZNKSt7__cxx1112basic_stringIcSt11char_traitsIcESaIcEE5c_strEv
DA:164,0
DA:165,0
DA:167,0
DA:168,0
DA:186,0
DA:187,0
DA:190,0
DA:191,0
DA:194,0
DA:195,0
DA:198,0
DA:201,0
DA:208,0
DA:211,0
DA:218,0
DA:219,0
DA:222,0
DA:224,0
DA:225,0
DA:226,0
DA:229,0
DA:230,0
DA:237,0
DA:239,0
DA:240,0
DA:241,0
DA:244,0
DA:245,0
DA:251,0
DA:255,0
DA:256,0
DA:271,0
DA:274,0
DA:275,0
DA:294,0
DA:295,0
DA:298,0
DA:299,0
DA:354,0
DA:356,0
DA:357,0
DA:359,0
DA:360,0
DA:400,0
DA:401,0
DA:404,0
DA:406,0
DA:456,0
DA:457,0
DA:458,0
DA:459,0
DA:533,0
DA:534,0
DA:536,0
DA:539,0
DA:540,0
DA:671,0
DA:672,0
DA:926,0
DA:927,0
DA:931,0
DA:932,0
DA:2320,0
DA:2321,0
end_of_record
SF:/usr/include/c++/11/bits/unique_ptr.h
FN:79,_ZNKSt14default_deleteI15waitable_threadEclEPS0_
FNDA:0,_ZNKSt14default_deleteI15waitable_threadEclEPS0_
FN:154,_ZNSt15__uniq_ptr_implI15waitable_threadSt14default_deleteIS0_EEC2Ev
FNDA:0,_ZNSt15__uniq_ptr_implI15waitable_threadSt14default_deleteIS0_EEC2Ev
FN:155,_ZNSt15__uniq_ptr_implI15waitable_threadSt14default_deleteIS0_EEC2EPS0_
FNDA:0,_ZNSt15__uniq_ptr_implI15waitable_threadSt14default_deleteIS0_EEC2EPS0_
FN:165,_ZNSt15__uniq_ptr_implI15waitable_threadSt14default_deleteIS0_EEaSEOS3_
FNDA:0,_ZNSt15__uniq_ptr_implI15waitable_threadSt14default_deleteIS0_EEaSEOS3_
FN:172,_ZNSt15__uniq_ptr_implI15waitable_threadSt14default_deleteIS0_EE6_M_ptrEv
FNDA:0,_ZNSt15__uniq_ptr_implI15waitable_threadSt14default_deleteIS0_EE6_M_ptrEv
FN:173,_ZNKSt15__uniq_ptr_implI15waitable_threadSt14default_deleteIS0_EE6_M_ptrEv
FNDA:0,_ZNKSt15__uniq_ptr_implI15waitable_threadSt14default_deleteIS0_EE6_M_ptrEv
FN:174,_ZNSt15__uniq_ptr_implI15waitable_threadSt14default_deleteIS0_EE10_M_deleterEv
FNDA:0,_ZNSt15__uniq_ptr_implI15waitable_threadSt14default_deleteIS0_EE10_M_deleterEv
FN:177,_ZNSt15__uniq_ptr_implI15waitable_threadSt14default_deleteIS0_EE5resetEPS0_
FNDA:0,_ZNSt15__uniq_ptr_implI15waitable_threadSt14default_deleteIS0_EE5resetEPS0_
FN:185,_ZNSt15__uniq_ptr_implI15waitable_threadSt14default_deleteIS0_EE7releaseEv
FNDA:0,_ZNSt15__uniq_ptr_implI15waitable_threadSt14default_deleteIS0_EE7releaseEv
FN:212,_ZNSt15__uniq_ptr_dataI15waitable_threadSt14default_deleteIS0_ELb1ELb1EEaSEOS3_
FNDA:0,_ZNSt15__uniq_ptr_dataI15waitable_threadSt14default_deleteIS0_ELb1ELb1EEaSEOS3_
FN:269,_ZNSt10unique_ptrI15waitable_threadSt14default_deleteIS0_EEC2IS2_vEEv
FNDA:0,_ZNSt10unique_ptrI15waitable_threadSt14default_deleteIS0_EEC2IS2_vEEv
FN:281,_ZNSt10unique_ptrI15waitable_threadSt14default_deleteIS0_EEC2IS2_vEEPS0_
FNDA:0,_ZNSt10unique_ptrI15waitable_threadSt14default_deleteIS0_EEC2IS2_vEEPS0_
FN:355,_ZNSt10unique_ptrI15waitable_threadSt14default_deleteIS0_EED2Ev
FNDA:0,_ZNSt10unique_ptrI15waitable_threadSt14default_deleteIS0_EED2Ev
FN:371,_ZNSt10unique_ptrI15waitable_threadSt14default_deleteIS0_EEaSEOS3_
FNDA:0,_ZNSt10unique_ptrI15waitable_threadSt14default_deleteIS0_EEaSEOS3_
FN:413,_ZNKSt10unique_ptrI15waitable_threadSt14default_deleteIS0_EEptEv
FNDA:0,_ZNKSt10unique_ptrI15waitable_threadSt14default_deleteIS0_EEptEv
FN:421,_ZNKSt10unique_ptrI15waitable_threadSt14default_deleteIS0_EE3getEv
FNDA:0,_ZNKSt10unique_ptrI15waitable_threadSt14default_deleteIS0_EE3getEv
FN:426,_ZNSt10unique_ptrI15waitable_threadSt14default_deleteIS0_EE11get_deleterEv
FNDA:0,_ZNSt10unique_ptrI15waitable_threadSt14default_deleteIS0_EE11get_deleterEv
FN:961,_ZSt11make_uniqueI15waitable_threadJRNSt7__cxx1112basic_stringIcSt11char_traitsIcESaIcEEERKiRSt8functionIFviS7_EEEENSt9_MakeUniqIT_E15__single_objectEDpOT0_
FNDA:0,_ZSt11make_uniqueI15waitable_threadJRNSt7__cxx1112basic_stringIcSt11char_traitsIcESaIcEEERKiRSt8functionIFviS7_EEEENSt9_MakeUniqIT_E15__single_objectEDpOT0_
DA:79,0
DA:85,0
DA:86,0
DA:154,0
DA:155,0
DA:165,0
DA:167,0
DA:168,0
DA:169,0
DA:172,0
DA:173,0
DA:174,0
DA:177,0
DA:179,0
DA:180,0
DA:181,0
DA:182,0
DA:183,0
DA:185,0
DA:187,0
DA:188,0
DA:189,0
DA:212,0
DA:269,0
DA:270,0
DA:271,0
DA:281,0
DA:282,0
DA:283,0
DA:355,0
DA:359,0
DA:360,0
DA:361,0
DA:362,0
DA:363,0
DA:371,0
DA:413,0
DA:416,0
DA:421,0
DA:422,0
DA:426,0
DA:427,0
DA:961,0
DA:962,0
end_of_record
SF:/usr/include/c++/11/bits/ptr_traits.h
FN:149,_ZNSt14pointer_traitsIPKcE10pointer_toERS0_
FNDA:0,_ZNSt14pointer_traitsIPKcE10pointer_toERS0_
FN:149,_ZNSt14pointer_traitsIPcE10pointer_toERc
FNDA:0,_ZNSt14pointer_traitsIPcE10pointer_toERc
FN:159,_ZSt12__to_addressISt23_Sp_counted_ptr_inplaceI4wfmoSaIS1_ELN9__gnu_cxx12_Lock_policyE2EEEPT_S7_
FNDA:0,_ZSt12__to_addressISt23_Sp_counted_ptr_inplaceI4wfmoSaIS1_ELN9__gnu_cxx12_Lock_policyE2EEEPT_S7_
FN:159,_ZSt12__to_addressISt23_Sp_counted_ptr_inplaceI19waitableMessageSinkSaIS1_ELN9__gnu_cxx12_Lock_policyE2EEEPT_S7_
FNDA:0,_ZSt12__to_addressISt23_Sp_counted_ptr_inplaceI19waitableMessageSinkSaIS1_ELN9__gnu_cxx12_Lock_policyE2EEEPT_S7_
DA:149,0
DA:150,0
DA:149,0
DA:150,0
DA:159,0
DA:162,0
DA:159,0
DA:162,0
end_of_record
SF:/usr/include/c++/11/bits/shared_ptr_base.h
FN:126,_ZNSt16_Sp_counted_baseILN9__gnu_cxx12_Lock_policyE2EEC2Ev
FNDA:0,_ZNSt16_Sp_counted_baseILN9__gnu_cxx12_Lock_policyE2EEC2Ev
FN:130,_ZNSt16_Sp_counted_baseILN9__gnu_cxx12_Lock_policyE2EED2Ev
FNDA:0,_ZNSt16_Sp_counted_baseILN9__gnu_cxx12_Lock_policyE2EED2Ev
FN:130,_ZNSt16_Sp_counted_baseILN9__gnu_cxx12_Lock_policyE2EED0Ev
FNDA:0,_ZNSt16_Sp_counted_baseILN9__gnu_cxx12_Lock_policyE2EED0Ev
FN:140,_ZNSt16_Sp_counted_baseILN9__gnu_cxx12_Lock_policyE2EE10_M_destroyEv
FNDA:0,_ZNSt16_Sp_counted_baseILN9__gnu_cxx12_Lock_policyE2EE10_M_destroyEv
FN:147,_ZNSt16_Sp_counted_baseILN9__gnu_cxx12_Lock_policyE2EE15_M_add_ref_copyEv
FNDA:0,_ZNSt16_Sp_counted_baseILN9__gnu_cxx12_Lock_policyE2EE15_M_add_ref_copyEv
FN:161,_ZNSt16_Sp_counted_baseILN9__gnu_cxx12_Lock_policyE2EE10_M_releaseEv
FNDA:0,_ZNSt16_Sp_counted_baseILN9__gnu_cxx12_Lock_policyE2EE10_M_releaseEv
FN:385,_ZNSt14_Sp_ebo_helperILi0ESaI19waitableMessageSinkELb1EEC2ERKS1_
FNDA:0,_ZNSt14_Sp_ebo_helperILi0ESaI19waitableMessageSinkELb1EEC2ERKS1_
FN:385,_ZNSt14_Sp_ebo_helperILi0ESaI4wfmoELb1EEC2ERKS1_
FNDA:0,_ZNSt14_Sp_ebo_helperILi0ESaI4wfmoELb1EEC2ERKS1_
FN:389,_ZNSt14_Sp_ebo_helperILi0ESaI4wfmoELb1EE6_S_getERS2_
FNDA:0,_ZNSt14_Sp_ebo_helperILi0ESaI4wfmoELb1EE6_S_getERS2_
FN:389,_ZNSt14_Sp_ebo_helperILi0ESaI19waitableMessageSinkELb1EE6_S_getERS2_
FNDA:0,_ZNSt14_Sp_ebo_helperILi0ESaI19waitableMessageSinkELb1EE6_S_getERS2_
FN:479,_ZNSt19_Sp_make_shared_tag5_S_tiEv
FNDA:0,_ZNSt19_Sp_make_shared_tag5_S_tiEv
FN:502,_ZNSt23_Sp_counted_ptr_inplaceI4wfmoSaIS0_ELN9__gnu_cxx12_Lock_policyE2EE5_ImplC2ES1_
FNDA:0,_ZNSt23_Sp_counted_ptr_inplaceI4wfmoSaIS0_ELN9__gnu_cxx12_Lock_policyE2EE5_ImplC2ES1_
FN:502,_ZNSt23_Sp_counted_ptr_inplaceI19waitableMessageSinkSaIS0_ELN9__gnu_cxx12_Lock_policyE2EE5_ImplC2ES1_
FNDA:0,_ZNSt23_Sp_counted_ptr_inplaceI19waitableMessageSinkSaIS0_ELN9__gnu_cxx12_Lock_policyE2EE5_ImplC2ES1_
FN:504,_ZNSt23_Sp_counted_ptr_inplaceI19waitableMessageSinkSaIS0_ELN9__gnu_cxx12_Lock_policyE2EE5_Impl8_M_allocEv
FNDA:0,_ZNSt23_Sp_counted_ptr_inplaceI19waitableMessageSinkSaIS0_ELN9__gnu_cxx12_Lock_policyE2EE5_Impl8_M_allocEv
FN:504,_ZNSt23_Sp_counted_ptr_inplaceI4wfmoSaIS0_ELN9__gnu_cxx12_Lock_policyE2EE5_Impl8_M_allocEv
FNDA:0,_ZNSt23_Sp_counted_ptr_inplaceI4wfmoSaIS0_ELN9__gnu_cxx12_Lock_policyE2EE5_Impl8_M_allocEv
FN:514,_ZNSt23_Sp_counted_ptr_inplaceI19waitableMessageSinkSaIS0_ELN9__gnu_cxx12_Lock_policyE2EEC2IJRNSt7__cxx1112basic_stringIcSt11char_traitsIcESaIcEEERKiRSt10shared_ptrI7ILoggerEEEES1_DpOT_
FNDA:0,_ZNSt23_Sp_counted_ptr_inplaceI19waitableMessageSinkSaIS0_ELN9__gnu_cxx12_Lock_policyE2EEC2IJRNSt7__cxx1112basic_stringIcSt11char_traitsIcESaIcEEERKiRSt10shared_ptrI7ILoggerEEEES1_DpOT_
FN:514,_ZNSt23_Sp_counted_ptr_inplaceI4wfmoSaIS0_ELN9__gnu_cxx12_Lock_policyE2EEC2IJRSt3mapIiiSt4lessIiESaISt4pairIKiiEEEEEES1_DpOT_
FNDA:0,_ZNSt23_Sp_counted_ptr_inplaceI4wfmoSaIS0_ELN9__gnu_cxx12_Lock_policyE2EEC2IJRSt3mapIiiSt4lessIiESaISt4pairIKiiEEEEEES1_DpOT_
FN:523,_ZNSt23_Sp_counted_ptr_inplaceI4wfmoSaIS0_ELN9__gnu_cxx12_Lock_policyE2EED0Ev
FNDA:0,_ZNSt23_Sp_counted_ptr_inplaceI4wfmoSaIS0_ELN9__gnu_cxx12_Lock_policyE2EED0Ev
FN:523,_ZNSt23_Sp_counted_ptr_inplaceI19waitableMessageSinkSaIS0_ELN9__gnu_cxx12_Lock_policyE2EED0Ev
FNDA:0,_ZNSt23_Sp_counted_ptr_inplaceI19waitableMessageSinkSaIS0_ELN9__gnu_cxx12_Lock_policyE2EED0Ev
FN:523,_ZNSt23_Sp_counted_ptr_inplaceI19waitableMessageSinkSaIS0_ELN9__gnu_cxx12_Lock_policyE2EED2Ev
FNDA:0,_ZNSt23_Sp_counted_ptr_inplaceI19waitableMessageSinkSaIS0_ELN9__gnu_cxx12_Lock_policyE2EED2Ev
FN:523,_ZNSt23_Sp_counted_ptr_inplaceI4wfmoSaIS0_ELN9__gnu_cxx12_Lock_policyE2EED2Ev
FNDA:0,_ZNSt23_Sp_counted_ptr_inplaceI4wfmoSaIS0_ELN9__gnu_cxx12_Lock_policyE2EED2Ev
FN:526,_ZNSt23_Sp_counted_ptr_inplaceI4wfmoSaIS0_ELN9__gnu_cxx12_Lock_policyE2EE10_M_disposeEv
FNDA:0,_ZNSt23_Sp_counted_ptr_inplaceI4wfmoSaIS0_ELN9__gnu_cxx12_Lock_policyE2EE10_M_disposeEv
FN:526,_ZNSt23_Sp_counted_ptr_inplaceI19waitableMessageSinkSaIS0_ELN9__gnu_cxx12_Lock_policyE2EE10_M_disposeEv
FNDA:0,_ZNSt23_Sp_counted_ptr_inplaceI19waitableMessageSinkSaIS0_ELN9__gnu_cxx12_Lock_policyE2EE10_M_disposeEv
FN:533,_ZNSt23_Sp_counted_ptr_inplaceI19waitableMessageSinkSaIS0_ELN9__gnu_cxx12_Lock_policyE2EE10_M_destroyEv
FNDA:0,_ZNSt23_Sp_counted_ptr_inplaceI19waitableMessageSinkSaIS0_ELN9__gnu_cxx12_Lock_policyE2EE10_M_destroyEv
FN:533,_ZNSt23_Sp_counted_ptr_inplaceI4wfmoSaIS0_ELN9__gnu_cxx12_Lock_policyE2EE10_M_destroyEv
FNDA:0,_ZNSt23_Sp_counted_ptr_inplaceI4wfmoSaIS0_ELN9__gnu_cxx12_Lock_policyE2EE10_M_destroyEv
FN:546,_ZNSt23_Sp_counted_ptr_inplaceI4wfmoSaIS0_ELN9__gnu_cxx12_Lock_policyE2EE14_M_get_deleterERKSt9type_info
FNDA:0,_ZNSt23_Sp_counted_ptr_inplaceI4wfmoSaIS0_ELN9__gnu_cxx12_Lock_policyE2EE14_M_get_deleterERKSt9type_info
FN:546,_ZNSt23_Sp_counted_ptr_inplaceI19waitableMessageSinkSaIS0_ELN9__gnu_cxx12_Lock_policyE2EE14_M_get_deleterERKSt9type_info
FNDA:0,_ZNSt23_Sp_counted_ptr_inplaceI19waitableMessageSinkSaIS0_ELN9__gnu_cxx12_Lock_policyE2EE14_M_get_deleterERKSt9type_info
FN:565,_ZNSt23_Sp_counted_ptr_inplaceI4wfmoSaIS0_ELN9__gnu_cxx12_Lock_policyE2EE6_M_ptrEv
FNDA:0,_ZNSt23_Sp_counted_ptr_inplaceI4wfmoSaIS0_ELN9__gnu_cxx12_Lock_policyE2EE6_M_ptrEv
FN:565,_ZNSt23_Sp_counted_ptr_inplaceI19waitableMessageSinkSaIS0_ELN9__gnu_cxx12_Lock_policyE2EE6_M_ptrEv
FNDA:0,_ZNSt23_Sp_counted_ptr_inplaceI19waitableMessageSinkSaIS0_ELN9__gnu_cxx12_Lock_policyE2EE6_M_ptrEv
FN:587,_ZNSt14__shared_countILN9__gnu_cxx12_Lock_policyE2EEC2Ev
FNDA:0,_ZNSt14__shared_countILN9__gnu_cxx12_Lock_policyE2EEC2Ev
FN:643,_ZNSt14__shared_countILN9__gnu_cxx12_Lock_policyE2EEC2I19waitableMessageSinkSaIS4_EJRNSt7__cxx1112basic_stringIcSt11char_traitsIcESaIcEEERKiRSt10shared_ptrI7ILoggerEEEERPT_St20_Sp_alloc_shared_tagIT0_EDpOT1_
FNDA:0,_ZNSt14__shared_countILN9__gnu_cxx12_Lock_policyE2EEC2I19waitableMessageSinkSaIS4_EJRNSt7__cxx1112basic_stringIcSt11char_traitsIcESaIcEEERKiRSt10shared_ptrI7ILoggerEEEERPT_St20_Sp_alloc_shared_tagIT0_EDpOT1_
FN:643,_ZNSt14__shared_countILN9__gnu_cxx12_Lock_policyE2EEC2I4wfmoSaIS4_EJRSt3mapIiiSt4lessIiESaISt4pairIKiiEEEEEERPT_St20_Sp_alloc_shared_tagIT0_EDpOT1_
FNDA:0,_ZNSt14__shared_countILN9__gnu_cxx12_Lock_policyE2EEC2I4wfmoSaIS4_EJRSt3mapIiiSt4lessIiESaISt4pairIKiiEEEEEERPT_St20_Sp_alloc_shared_tagIT0_EDpOT1_
FN:702,_ZNSt14__shared_countILN9__gnu_cxx12_Lock_policyE2EED2Ev
FNDA:0,_ZNSt14__shared_countILN9__gnu_cxx12_Lock_policyE2EED2Ev
FN:708,_ZNSt14__shared_countILN9__gnu_cxx12_Lock_policyE2EEC2ERKS2_
FNDA:0,_ZNSt14__shared_countILN9__gnu_cxx12_Lock_policyE2EEC2ERKS2_
FN:716,_ZNSt14__shared_countILN9__gnu_cxx12_Lock_policyE2EEaSERKS2_
FNDA:0,_ZNSt14__shared_countILN9__gnu_cxx12_Lock_policyE2EEaSERKS2_
FN:731,_ZNSt14__shared_countILN9__gnu_cxx12_Lock_policyE2EE7_M_swapERS2_
FNDA:0,_ZNSt14__shared_countILN9__gnu_cxx12_Lock_policyE2EE7_M_swapERS2_
FN:984,_ZNKSt19__shared_ptr_accessI7ILoggerLN9__gnu_cxx12_Lock_policyE2ELb0ELb0EEptEv
FNDA:0,_ZNKSt19__shared_ptr_accessI7ILoggerLN9__gnu_cxx12_Lock_policyE2ELb0ELb0EEptEv
FN:984,_ZNKSt19__shared_ptr_accessI20IWaitableMessageSinkLN9__gnu_cxx12_Lock_policyE2ELb0ELb0EEptEv
FNDA:0,_ZNKSt19__shared_ptr_accessI20IWaitableMessageSinkLN9__gnu_cxx12_Lock_policyE2ELb0ELb0EEptEv
FN:984,_ZNKSt19__shared_ptr_accessI14waitable_eventLN9__gnu_cxx12_Lock_policyE2ELb0ELb0EEptEv
FNDA:0,_ZNKSt19__shared_ptr_accessI14waitable_eventLN9__gnu_cxx12_Lock_policyE2ELb0ELb0EEptEv
FN:984,_ZNKSt19__shared_ptr_accessI4wfmoLN9__gnu_cxx12_Lock_policyE2ELb0ELb0EEptEv
FNDA:0,_ZNKSt19__shared_ptr_accessI4wfmoLN9__gnu_cxx12_Lock_policyE2ELb0ELb0EEptEv
FN:984,_ZNKSt19__shared_ptr_accessI9aspthreadLN9__gnu_cxx12_Lock_policyE2ELb0ELb0EEptEv
FNDA:0,_ZNKSt19__shared_ptr_accessI9aspthreadLN9__gnu_cxx12_Lock_policyE2ELb0ELb0EEptEv
FN:992,_ZNKSt19__shared_ptr_accessI7ILoggerLN9__gnu_cxx12_Lock_policyE2ELb0ELb0EE6_M_getEv
FNDA:0,_ZNKSt19__shared_ptr_accessI7ILoggerLN9__gnu_cxx12_Lock_policyE2ELb0ELb0EE6_M_getEv
FN:992,_ZNKSt19__shared_ptr_accessI9aspthreadLN9__gnu_cxx12_Lock_policyE2ELb0ELb0EE6_M_getEv
FNDA:0,_ZNKSt19__shared_ptr_accessI9aspthreadLN9__gnu_cxx12_Lock_policyE2ELb0ELb0EE6_M_getEv
FN:992,_ZNKSt19__shared_ptr_accessI4wfmoLN9__gnu_cxx12_Lock_policyE2ELb0ELb0EE6_M_getEv
FNDA:0,_ZNKSt19__shared_ptr_accessI4wfmoLN9__gnu_cxx12_Lock_policyE2ELb0ELb0EE6_M_getEv
FN:992,_ZNKSt19__shared_ptr_accessI14waitable_eventLN9__gnu_cxx12_Lock_policyE2ELb0ELb0EE6_M_getEv
FNDA:0,_ZNKSt19__shared_ptr_accessI14waitable_eventLN9__gnu_cxx12_Lock_policyE2ELb0ELb0EE6_M_getEv
FN:992,_ZNKSt19__shared_ptr_accessI20IWaitableMessageSinkLN9__gnu_cxx12_Lock_policyE2ELb0ELb0EE6_M_getEv
FNDA:0,_ZNKSt19__shared_ptr_accessI20IWaitableMessageSinkLN9__gnu_cxx12_Lock_policyE2ELb0ELb0EE6_M_getEv
FN:1092,_ZNSt12__shared_ptrI20IWaitableMessageSinkLN9__gnu_cxx12_Lock_policyE2EEC2Ev
FNDA:0,_ZNSt12__shared_ptrI20IWaitableMessageSinkLN9__gnu_cxx12_Lock_policyE2EEC2Ev
FN:1092,_ZNSt12__shared_ptrI7ILoggerLN9__gnu_cxx12_Lock_policyE2EEC2Ev
FNDA:0,_ZNSt12__shared_ptrI7ILoggerLN9__gnu_cxx12_Lock_policyE2EEC2Ev
FN:1092,_ZNSt12__shared_ptrI9aspthreadLN9__gnu_cxx12_Lock_policyE2EEC2Ev
FNDA:0,_ZNSt12__shared_ptrI9aspthreadLN9__gnu_cxx12_Lock_policyE2EEC2Ev
FN:1092,_ZNSt12__shared_ptrI14waitable_eventLN9__gnu_cxx12_Lock_policyE2EEC2Ev
FNDA:0,_ZNSt12__shared_ptrI14waitable_eventLN9__gnu_cxx12_Lock_policyE2EEC2Ev
FN:1152,_ZNSt12__shared_ptrI7ILoggerLN9__gnu_cxx12_Lock_policyE2EEC2ERKS3_
FNDA:0,_ZNSt12__shared_ptrI7ILoggerLN9__gnu_cxx12_Lock_policyE2EEC2ERKS3_
FN:1153,_ZNSt12__shared_ptrI14waitable_eventLN9__gnu_cxx12_Lock_policyE2EEaSERKS3_
FNDA:0,_ZNSt12__shared_ptrI14waitable_eventLN9__gnu_cxx12_Lock_policyE2EEaSERKS3_
FN:1153,_ZNSt12__shared_ptrI9aspthreadLN9__gnu_cxx12_Lock_policyE2EEaSERKS3_
FNDA:1,_ZNSt12__shared_ptrI9aspthreadLN9__gnu_cxx12_Lock_policyE2EEaSERKS3_
FN:1153,_ZNSt12__shared_ptrI7ILoggerLN9__gnu_cxx12_Lock_policyE2EEaSERKS3_
FNDA:0,_ZNSt12__shared_ptrI7ILoggerLN9__gnu_cxx12_Lock_policyE2EEaSERKS3_
FN:1154,_ZNSt12__shared_ptrI14waitable_eventLN9__gnu_cxx12_Lock_policyE2EED2Ev
FNDA:0,_ZNSt12__shared_ptrI14waitable_eventLN9__gnu_cxx12_Lock_policyE2EED2Ev
FN:1154,_ZNSt12__shared_ptrI9aspthreadLN9__gnu_cxx12_Lock_policyE2EED2Ev
FNDA:0,_ZNSt12__shared_ptrI9aspthreadLN9__gnu_cxx12_Lock_policyE2EED2Ev
FN:1154,_ZNSt12__shared_ptrI7ILoggerLN9__gnu_cxx12_Lock_policyE2EED2Ev
FNDA:0,_ZNSt12__shared_ptrI7ILoggerLN9__gnu_cxx12_Lock_policyE2EED2Ev
FN:1154,_ZNSt12__shared_ptrI20IWaitableMessageSinkLN9__gnu_cxx12_Lock_policyE2EED2Ev
FNDA:0,_ZNSt12__shared_ptrI20IWaitableMessageSinkLN9__gnu_cxx12_Lock_policyE2EED2Ev
FN:1154,_ZNSt12__shared_ptrI19waitableMessageSinkLN9__gnu_cxx12_Lock_policyE2EED2Ev
FNDA:0,_ZNSt12__shared_ptrI19waitableMessageSinkLN9__gnu_cxx12_Lock_policyE2EED2Ev
FN:1154,_ZNSt12__shared_ptrI4wfmoLN9__gnu_cxx12_Lock_policyE2EED2Ev
FNDA:0,_ZNSt12__shared_ptrI4wfmoLN9__gnu_cxx12_Lock_policyE2EED2Ev
FN:1169,_ZNSt12__shared_ptrI20IWaitableMessageSinkLN9__gnu_cxx12_Lock_policyE2EEC2I19waitableMessageSinkvEEOS_IT_LS2_2EE
FNDA:0,_ZNSt12__shared_ptrI20IWaitableMessageSinkLN9__gnu_cxx12_Lock_policyE2EEC2I19waitableMessageSinkvEEOS_IT_LS2_2EE
FN:1256,_ZNSt12__shared_ptrI20IWaitableMessageSinkLN9__gnu_cxx12_Lock_policyE2EEaSI19waitableMessageSinkEENSt9enable_ifIXsrSt20__sp_compatible_withIPT_PS0_E5valueERS3_E4typeEOS_IS8_LS2_2EE
FNDA:0,_ZNSt12__shared_ptrI20IWaitableMessageSinkLN9__gnu_cxx12_Lock_policyE2EEaSI19waitableMessageSinkEENSt9enable_ifIXsrSt20__sp_compatible_withIPT_PS0_E5valueERS3_E4typeEOS_IS8_LS2_2EE
FN:1295,_ZNKSt12__shared_ptrI9aspthreadLN9__gnu_cxx12_Lock_policyE2EE3getEv
FNDA:0,_ZNKSt12__shared_ptrI9aspthreadLN9__gnu_cxx12_Lock_policyE2EE3getEv
FN:1295,_ZNKSt12__shared_ptrI4wfmoLN9__gnu_cxx12_Lock_policyE2EE3getEv
FNDA:0,_ZNKSt12__shared_ptrI4wfmoLN9__gnu_cxx12_Lock_policyE2EE3getEv
FN:1295,_ZNKSt12__shared_ptrI14waitable_eventLN9__gnu_cxx12_Lock_policyE2EE3getEv
FNDA:0,_ZNKSt12__shared_ptrI14waitable_eventLN9__gnu_cxx12_Lock_policyE2EE3getEv
FN:1295,_ZNKSt12__shared_ptrI20IWaitableMessageSinkLN9__gnu_cxx12_Lock_policyE2EE3getEv
FNDA:0,_ZNKSt12__shared_ptrI20IWaitableMessageSinkLN9__gnu_cxx12_Lock_policyE2EE3getEv
FN:1295,_ZNKSt12__shared_ptrI7ILoggerLN9__gnu_cxx12_Lock_policyE2EE3getEv
FNDA:0,_ZNKSt12__shared_ptrI7ILoggerLN9__gnu_cxx12_Lock_policyE2EE3getEv
FN:1314,_ZNSt12__shared_ptrI20IWaitableMessageSinkLN9__gnu_cxx12_Lock_policyE2EE4swapERS3_
FNDA:0,_ZNSt12__shared_ptrI20IWaitableMessageSinkLN9__gnu_cxx12_Lock_policyE2EE4swapERS3_
FN:1341,_ZNSt12__shared_ptrI19waitableMessageSinkLN9__gnu_cxx12_Lock_policyE2EEC2ISaIS0_EJRNSt7__cxx1112basic_stringIcSt11char_traitsIcESaIcEEERKiRSt10shared_ptrI7ILoggerEEEESt20_Sp_alloc_shared_tagIT_EDpOT0_
FNDA:0,_ZNSt12__shared_ptrI19waitableMessageSinkLN9__gnu_cxx12_Lock_policyE2EEC2ISaIS0_EJRNSt7__cxx1112basic_stringIcSt11char_traitsIcESaIcEEERKiRSt10shared_ptrI7ILoggerEEEESt20_Sp_alloc_shared_tagIT_EDpOT0_
FN:1341,_ZNSt12__shared_ptrI4wfmoLN9__gnu_cxx12_Lock_policyE2EEC2ISaIS0_EJRSt3mapIiiSt4lessIiESaISt4pairIKiiEEEEEESt20_Sp_alloc_shared_tagIT_EDpOT0_
FNDA:0,_ZNSt12__shared_ptrI4wfmoLN9__gnu_cxx12_Lock_policyE2EEC2ISaIS0_EJRSt3mapIiiSt4lessIiESaISt4pairIKiiEEEEEESt20_Sp_alloc_shared_tagIT_EDpOT0_
FN:1386,_ZNSt12__shared_ptrI19waitableMessageSinkLN9__gnu_cxx12_Lock_policyE2EE31_M_enable_shared_from_this_withIS0_S0_EENSt9enable_ifIXntsrNS3_15__has_esft_baseIT0_vEE5valueEvE4typeEPT_
FNDA:0,_ZNSt12__shared_ptrI19waitableMessageSinkLN9__gnu_cxx12_Lock_policyE2EE31_M_enable_shared_from_this_withIS0_S0_EENSt9enable_ifIXntsrNS3_15__has_esft_baseIT0_vEE5valueEvE4typeEPT_
FN:1386,_ZNSt12__shared_ptrI4wfmoLN9__gnu_cxx12_Lock_policyE2EE31_M_enable_shared_from_this_withIS0_S0_EENSt9enable_ifIXntsrNS3_15__has_esft_baseIT0_vEE5valueEvE4typeEPT_
FNDA:0,_ZNSt12__shared_ptrI4wfmoLN9__gnu_cxx12_Lock_policyE2EE31_M_enable_shared_from_this_withIS0_S0_EENSt9enable_ifIXntsrNS3_15__has_esft_baseIT0_vEE5valueEvE4typeEPT_
DA:126,0
DA:127,0
DA:130,0
DA:131,0
DA:130,0
DA:131,0
DA:140,0
DA:141,0
DA:147,0
DA:148,0
DA:161,0
DA:165,0
DA:168,0
DA:180,0
DA:181,0
DA:184,0
DA:187,0
DA:385,0
DA:385,0
DA:389,0
DA:389,0
DA:479,0
DA:482,0
DA:502,0
DA:502,0
DA:504,0
DA:504,0
DA:514,0
DA:515,0
DA:519,0
DA:521,0
DA:514,0
DA:515,0
DA:519,0
DA:521,0
DA:523,0
DA:523,0
DA:523,0
DA:523,0
DA:526,0
DA:528,0
DA:529,0
DA:526,0
DA:528,0
DA:529,0
DA:533,0
DA:535,0
DA:536,0
DA:537,0
DA:538,0
DA:533,0
DA:535,0
DA:536,0
DA:537,0
DA:538,0
DA:546,0
DA:548,0
DA:553,0
DA:554,0
DA:556,0
DA:561,0
DA:562,0
DA:546,0
DA:548,0
DA:553,0
DA:554,0
DA:556,0
DA:561,0
DA:562,0
DA:565,0
DA:565,0
DA:587,0
DA:588,0
DA:643,0
DA:647,0
DA:648,0
DA:649,0
DA:650,0
DA:651,0
DA:652,0
DA:653,0
DA:654,0
DA:655,0
DA:643,0
DA:647,0
DA:648,0
DA:649,0
DA:650,0
DA:651,0
DA:652,0
DA:653,0
DA:654,0
DA:655,0
DA:702,0
DA:704,0
DA:705,0
DA:706,0
DA:708,0
DA:709,0
DA:711,0
DA:712,0
DA:713,0
DA:716,0
DA:718,0
DA:719,0
DA:721,0
DA:722,0
DA:723,0
DA:724,0
DA:725,0
DA:727,0
DA:731,0
DA:733,0
DA:734,0
DA:735,0
DA:736,0
DA:984,0
DA:987,0
DA:984,0
DA:987,0
DA:984,0
DA:987,0
DA:984,0
DA:987,0
DA:984,0
DA:987,0
DA:992,0
DA:993,0
DA:992,0
DA:993,0
DA:992,0
DA:993,0
DA:992,0
DA:993,0
DA:992,0
DA:993,0
DA:1092,0
DA:1093,0
DA:1094,0
DA:1092,0
DA:1093,0
DA:1094,0
DA:1092,0
DA:1093,0
DA:1094,0
DA:1092,0
DA:1093,0
DA:1094,0
DA:1152,0
DA:1153,0
DA:1153,1
DA:1153,0
DA:1154,0
DA:1154,0
DA:1154,0
DA:1154,0
DA:1154,0
DA:1154,0
DA:1169,0
DA:1170,0
DA:1172,0
DA:1173,0
DA:1174,0
DA:1256,0
DA:1258,0
DA:1259,0
DA:1295,0
DA:1296,0
DA:1295,0
DA:1296,0
DA:1295,0
DA:1296,0
DA:1295,0
DA:1296,0
DA:1295,0
DA:1296,0
DA:1314,0
DA:1316,0
DA:1317,0
DA:1318,0
DA:1341,0
DA:1342,0
DA:1343,0
DA:1341,0
DA:1342,0
DA:1343,0
DA:1386,0
DA:1387,0
DA:1386,0
DA:1387,0
end_of_record
SF:/usr/include/c++/11/bits/move.h
FN:49,_ZSt11__addressofISaISt23_Sp_counted_ptr_inplaceI4wfmoSaIS1_ELN9__gnu_cxx12_Lock_policyE2EEEEPT_RS7_
FNDA:0,_ZSt11__addressofISaISt23_Sp_counted_ptr_inplaceI4wfmoSaIS1_ELN9__gnu_cxx12_Lock_policyE2EEEEPT_RS7_
FN:49,_ZSt11__addressofISaISt23_Sp_counted_ptr_inplaceI19waitableMessageSinkSaIS1_ELN9__gnu_cxx12_Lock_policyE2EEEEPT_RS7_
FNDA:0,_ZSt11__addressofISaISt23_Sp_counted_ptr_inplaceI19waitableMessageSinkSaIS1_ELN9__gnu_cxx12_Lock_policyE2EEEEPT_RS7_
FN:49,_ZSt11__addressofIKcEPT_RS1_
FNDA:0,_ZSt11__addressofIKcEPT_RS1_
FN:49,_ZSt11__addressofIcEPT_RS0_
FNDA:0,_ZSt11__addressofIcEPT_RS0_
FN:77,_ZSt7forwardIRKSt12_PlaceholderILi2EEEOT_RNSt16remove_referenceIS4_E4typeE
FNDA:0,_ZSt7forwardIRKSt12_PlaceholderILi2EEEOT_RNSt16remove_referenceIS4_E4typeE
FN:77,_ZSt7forwardIRSt3mapIiiSt4lessIiESaISt4pairIKiiEEEEOT_RNSt16remove_referenceIS9_E4typeE
FNDA:0,_ZSt7forwardIRSt3mapIiiSt4lessIiESaISt4pairIKiiEEEEOT_RNSt16remove_referenceIS9_E4typeE
FN:77,_ZSt7forwardISt4pairIiiEEOT_RNSt16remove_referenceIS2_E4typeE
FNDA:0,_ZSt7forwardISt4pairIiiEEOT_RNSt16remove_referenceIS2_E4typeE
FN:77,_ZSt7forwardIRSt10shared_ptrI7ILoggerEEOT_RNSt16remove_referenceIS4_E4typeE
FNDA:0,_ZSt7forwardIRSt10shared_ptrI7ILoggerEEOT_RNSt16remove_referenceIS4_E4typeE
FN:77,_ZSt7forwardISt14default_deleteI15waitable_threadEEOT_RNSt16remove_referenceIS3_E4typeE
FNDA:0,_ZSt7forwardISt14default_deleteI15waitable_threadEEOT_RNSt16remove_referenceIS3_E4typeE
FN:77,_ZSt7forwardIRSt8functionIFviRNSt7__cxx1112basic_stringIcSt11char_traitsIcESaIcEEEEEEOT_RNSt16remove_referenceISB_E4typeE
FNDA:0,_ZSt7forwardIRSt8functionIFviRNSt7__cxx1112basic_stringIcSt11char_traitsIcESaIcEEEEEEOT_RNSt16remove_referenceISB_E4typeE
FN:77,_ZSt7forwardIRKiEOT_RNSt16remove_referenceIS2_E4typeE
FNDA:0,_ZSt7forwardIRKiEOT_RNSt16remove_referenceIS2_E4typeE
FN:77,_ZSt7forwardIRNSt7__cxx1112basic_stringIcSt11char_traitsIcESaIcEEEEOT_RNSt16remove_referenceIS7_E4typeE
FNDA:0,_ZSt7forwardIRNSt7__cxx1112basic_stringIcSt11char_traitsIcESaIcEEEEOT_RNSt16remove_referenceIS7_E4typeE
FN:77,_ZSt7forwardISt5_BindIFM10corethreadFviRNSt7__cxx1112basic_stringIcSt11char_traitsIcESaIcEEEEPS1_St12_PlaceholderILi1EESC_ILi2EEEEEOT_RNSt16remove_referenceISH_E4typeE
FNDA:0,_ZSt7forwardISt5_BindIFM10corethreadFviRNSt7__cxx1112basic_stringIcSt11char_traitsIcESaIcEEEEPS1_St12_PlaceholderILi1EESC_ILi2EEEEEOT_RNSt16remove_referenceISH_E4typeE
FN:77,_ZSt7forwardIOiEOT_RNSt16remove_referenceIS1_E4typeE
FNDA:0,_ZSt7forwardIOiEOT_RNSt16remove_referenceIS1_E4typeE
FN:77,_ZSt7forwardIRKSt12_PlaceholderILi1EEEOT_RNSt16remove_referenceIS4_E4typeE
FNDA:0,_ZSt7forwardIRKSt12_PlaceholderILi1EEEOT_RNSt16remove_referenceIS4_E4typeE
FN:77,_ZSt7forwardIP10corethreadEOT_RNSt16remove_referenceIS2_E4typeE
FNDA:0,_ZSt7forwardIP10corethreadEOT_RNSt16remove_referenceIS2_E4typeE
FN:77,_ZSt7forwardIM10corethreadFviRNSt7__cxx1112basic_stringIcSt11char_traitsIcESaIcEEEEEOT_RNSt16remove_referenceISA_E4typeE
FNDA:0,_ZSt7forwardIM10corethreadFviRNSt7__cxx1112basic_stringIcSt11char_traitsIcESaIcEEEEEOT_RNSt16remove_referenceISA_E4typeE
FN:77,_ZSt7forwardIbEOT_RNSt16remove_referenceIS0_E4typeE
FNDA:0,_ZSt7forwardIbEOT_RNSt16remove_referenceIS0_E4typeE
FN:77,_ZSt7forwardIiEOT_RNSt16remove_referenceIS0_E4typeE
FNDA:0,_ZSt7forwardIiEOT_RNSt16remove_referenceIS0_E4typeE
FN:77,_ZSt7forwardIRKSt4pairIKiiEEOT_RNSt16remove_referenceIS5_E4typeE
FNDA:0,_ZSt7forwardIRKSt4pairIKiiEEOT_RNSt16remove_referenceIS5_E4typeE
FN:77,_ZSt7forwardIRM10corethreadFviRNSt7__cxx1112basic_stringIcSt11char_traitsIcESaIcEEEEEOT_RNSt16remove_referenceISB_E4typeE
FNDA:0,_ZSt7forwardIRM10corethreadFviRNSt7__cxx1112basic_stringIcSt11char_traitsIcESaIcEEEEEOT_RNSt16remove_referenceISB_E4typeE
FN:77,_ZSt7forwardIRSt5_BindIFM10corethreadFviRNSt7__cxx1112basic_stringIcSt11char_traitsIcESaIcEEEEPS1_St12_PlaceholderILi1EESC_ILi2EEEEEOT_RNSt16remove_referenceISI_E4typeE
FNDA:0,_ZSt7forwardIRSt5_BindIFM10corethreadFviRNSt7__cxx1112basic_stringIcSt11char_traitsIcESaIcEEEEPS1_St12_PlaceholderILi1EESC_ILi2EEEEEOT_RNSt16remove_referenceISI_E4typeE
FN:77,_ZSt7forwardISt17_Rb_tree_iteratorISt4pairIKiiEEEOT_RNSt16remove_referenceIS5_E4typeE
FNDA:0,_ZSt7forwardISt17_Rb_tree_iteratorISt4pairIKiiEEEOT_RNSt16remove_referenceIS5_E4typeE
FN:77,_ZSt7forwardIRKSt5_BindIFM10corethreadFviRNSt7__cxx1112basic_stringIcSt11char_traitsIcESaIcEEEEPS1_St12_PlaceholderILi1EESC_ILi2EEEEEOT_RNSt16remove_referenceISJ_E4typeE
FNDA:0,_ZSt7forwardIRKSt5_BindIFM10corethreadFviRNSt7__cxx1112basic_stringIcSt11char_traitsIcESaIcEEEEPS1_St12_PlaceholderILi1EESC_ILi2EEEEEOT_RNSt16remove_referenceISJ_E4typeE
FN:77,_ZSt7forwardIRP10corethreadEOT_RNSt16remove_referenceIS3_E4typeE
FNDA:0,_ZSt7forwardIRP10corethreadEOT_RNSt16remove_referenceIS3_E4typeE
FN:77,_ZSt7forwardIRPSt13_Rb_tree_nodeISt4pairIKiiEEEOT_RNSt16remove_referenceIS7_E4typeE
FNDA:0,_ZSt7forwardIRPSt13_Rb_tree_nodeISt4pairIKiiEEEOT_RNSt16remove_referenceIS7_E4typeE
FN:77,_ZSt7forwardIRPSt18_Rb_tree_node_baseEOT_RNSt16remove_referenceIS3_E4typeE
FNDA:0,_ZSt7forwardIRPSt18_Rb_tree_node_baseEOT_RNSt16remove_referenceIS3_E4typeE
FN:104,_ZSt4moveIRP20IWaitableMessageSinkEONSt16remove_referenceIT_E4typeEOS4_
FNDA:0,_ZSt4moveIRP20IWaitableMessageSinkEONSt16remove_referenceIT_E4typeEOS4_
FN:104,_ZSt4moveIRSaIcEEONSt16remove_referenceIT_E4typeEOS3_
FNDA:0,_ZSt4moveIRSaIcEEONSt16remove_referenceIT_E4typeEOS3_
FN:104,_ZSt4moveIRP15waitable_threadEONSt16remove_referenceIT_E4typeEOS4_
FNDA:0,_ZSt4moveIRP15waitable_threadEONSt16remove_referenceIT_E4typeEOS4_
FN:104,_ZSt4moveIRSt5tupleIJOiRNSt7__cxx1112basic_stringIcSt11char_traitsIcESaIcEEEEEEONSt16remove_referenceIT_E4typeEOSC_
FNDA:0,_ZSt4moveIRSt5tupleIJOiRNSt7__cxx1112basic_stringIcSt11char_traitsIcESaIcEEEEEEONSt16remove_referenceIT_E4typeEOSC_
FN:104,_ZSt4moveIRM10corethreadFviRNSt7__cxx1112basic_stringIcSt11char_traitsIcESaIcEEEEEONSt16remove_referenceIT_E4typeEOSC_
FNDA:0,_ZSt4moveIRM10corethreadFviRNSt7__cxx1112basic_stringIcSt11char_traitsIcESaIcEEEEEONSt16remove_referenceIT_E4typeEOSC_
FN:104,_ZSt4moveIRSt10shared_ptrI19waitableMessageSinkEEONSt16remove_referenceIT_E4typeEOS5_
FNDA:0,_ZSt4moveIRSt10shared_ptrI19waitableMessageSinkEEONSt16remove_referenceIT_E4typeEOS5_
FN:104,_ZSt4moveIRSt12__shared_ptrI19waitableMessageSinkLN9__gnu_cxx12_Lock_policyE2EEEONSt16remove_referenceIT_E4typeEOS7_
FNDA:0,_ZSt4moveIRSt12__shared_ptrI19waitableMessageSinkLN9__gnu_cxx12_Lock_policyE2EEEONSt16remove_referenceIT_E4typeEOS7_
FN:145,_ZSt9addressofIKcEPT_RS1_
FNDA:0,_ZSt9addressofIKcEPT_RS1_
FN:145,_ZSt9addressofIcEPT_RS0_
FNDA:0,_ZSt9addressofIcEPT_RS0_
FN:196,_ZSt4swapIP20IWaitableMessageSinkENSt9enable_ifIXsrSt6__and_IJSt6__not_ISt15__is_tuple_likeIT_EESt21is_move_constructibleIS6_ESt18is_move_assignableIS6_EEE5valueEvE4typeERS6_SG_
FNDA:0,_ZSt4swapIP20IWaitableMessageSinkENSt9enable_ifIXsrSt6__and_IJSt6__not_ISt15__is_tuple_likeIT_EESt21is_move_constructibleIS6_ESt18is_move_assignableIS6_EEE5valueEvE4typeERS6_SG_
DA:49,0
DA:50,0
DA:49,0
DA:50,0
DA:49,0
DA:50,0
DA:49,0
DA:50,0
DA:77,0
DA:78,0
DA:77,0
DA:78,0
DA:77,0
DA:78,0
DA:77,0
DA:78,0
DA:77,0
DA:78,0
DA:77,0
DA:78,0
DA:77,0
DA:78,0
DA:77,0
DA:78,0
DA:77,0
DA:78,0
DA:77,0
DA:78,0
DA:77,0
DA:78,0
DA:77,0
DA:78,0
DA:77,0
DA:78,0
DA:77,0
DA:78,0
DA:77,0
DA:78,0
DA:77,0
DA:78,0
DA:77,0
DA:78,0
DA:77,0
DA:78,0
DA:77,0
DA:78,0
DA:77,0
DA:78,0
DA:77,0
DA:78,0
DA:77,0
DA:78,0
DA:77,0
DA:78,0
DA:104,0
DA:105,0
DA:104,0
DA:105,0
DA:104,0
DA:105,0
DA:104,0
DA:105,0
DA:104,0
DA:105,0
DA:104,0
DA:105,0
DA:104,0
DA:105,0
DA:145,0
DA:146,0
DA:145,0
DA:146,0
DA:196,0
DA:204,0
DA:205,0
DA:206,0
DA:207,0
end_of_record
SF:/usr/include/c++/11/tuple
FN:80,_ZNSt10_Head_baseILm1ESt14default_deleteI15waitable_threadELb1EEC2Ev
FNDA:0,_ZNSt10_Head_baseILm1ESt14default_deleteI15waitable_threadELb1EEC2Ev
FN:83,_ZNSt10_Head_baseILm1ESt12_PlaceholderILi1EELb1EEC2ERKS1_
FNDA:0,_ZNSt10_Head_baseILm1ESt12_PlaceholderILi1EELb1EEC2ERKS1_
FN:83,_ZNSt10_Head_baseILm2ESt12_PlaceholderILi2EELb1EEC2ERKS1_
FNDA:0,_ZNSt10_Head_baseILm2ESt12_PlaceholderILi2EELb1EEC2ERKS1_
FN:124,_ZNSt10_Head_baseILm2ESt12_PlaceholderILi2EELb1EE7_M_headERS2_
FNDA:0,_ZNSt10_Head_baseILm2ESt12_PlaceholderILi2EELb1EE7_M_headERS2_
FN:124,_ZNSt10_Head_baseILm1ESt12_PlaceholderILi1EELb1EE7_M_headERS2_
FNDA:0,_ZNSt10_Head_baseILm1ESt12_PlaceholderILi1EELb1EE7_M_headERS2_
FN:124,_ZNSt10_Head_baseILm1ESt14default_deleteI15waitable_threadELb1EE7_M_headERS3_
FNDA:0,_ZNSt10_Head_baseILm1ESt14default_deleteI15waitable_threadELb1EE7_M_headERS3_
FN:189,_ZNSt10_Head_baseILm0EP15waitable_threadLb0EEC2Ev
FNDA:0,_ZNSt10_Head_baseILm0EP15waitable_threadLb0EEC2Ev
FN:192,_ZNSt10_Head_baseILm1ERNSt7__cxx1112basic_stringIcSt11char_traitsIcESaIcEEELb0EEC2ES6_
FNDA:0,_ZNSt10_Head_baseILm1ERNSt7__cxx1112basic_stringIcSt11char_traitsIcESaIcEEELb0EEC2ES6_
FN:199,_ZNSt10_Head_baseILm0EP10corethreadLb0EEC2IS1_EEOT_
FNDA:0,_ZNSt10_Head_baseILm0EP10corethreadLb0EEC2IS1_EEOT_
FN:199,_ZNSt10_Head_baseILm0EOiLb0EEC2IiEEOT_
FNDA:0,_ZNSt10_Head_baseILm0EOiLb0EEC2IiEEOT_
FN:233,_ZNSt10_Head_baseILm0EOiLb0EE7_M_headERS1_
FNDA:0,_ZNSt10_Head_baseILm0EOiLb0EE7_M_headERS1_
FN:233,_ZNSt10_Head_baseILm0EP15waitable_threadLb0EE7_M_headERS2_
FNDA:0,_ZNSt10_Head_baseILm0EP15waitable_threadLb0EE7_M_headERS2_
FN:233,_ZNSt10_Head_baseILm1ERNSt7__cxx1112basic_stringIcSt11char_traitsIcESaIcEEELb0EE7_M_headERS7_
FNDA:0,_ZNSt10_Head_baseILm1ERNSt7__cxx1112basic_stringIcSt11char_traitsIcESaIcEEELb0EE7_M_headERS7_
FN:233,_ZNSt10_Head_baseILm0EP10corethreadLb0EE7_M_headERS2_
FNDA:0,_ZNSt10_Head_baseILm0EP10corethreadLb0EE7_M_headERS2_
FN:236,_ZNSt10_Head_baseILm0EP15waitable_threadLb0EE7_M_headERKS2_
FNDA:0,_ZNSt10_Head_baseILm0EP15waitable_threadLb0EE7_M_headERKS2_
FN:268,_ZNSt11_Tuple_implILm1EJSt12_PlaceholderILi1EES0_ILi2EEEE7_M_headERS3_
FNDA:0,_ZNSt11_Tuple_implILm1EJSt12_PlaceholderILi1EES0_ILi2EEEE7_M_headERS3_
FN:268,_ZNSt11_Tuple_implILm0EJOiRNSt7__cxx1112basic_stringIcSt11char_traitsIcESaIcEEEEE7_M_headERS8_
FNDA:0,_ZNSt11_Tuple_implILm0EJOiRNSt7__cxx1112basic_stringIcSt11char_traitsIcESaIcEEEEE7_M_headERS8_
FN:268,_ZNSt11_Tuple_implILm0EJP15waitable_threadSt14default_deleteIS0_EEE7_M_headERS4_
FNDA:0,_ZNSt11_Tuple_implILm0EJP15waitable_threadSt14default_deleteIS0_EEE7_M_headERS4_
FN:268,_ZNSt11_Tuple_implILm0EJP10corethreadSt12_PlaceholderILi1EES2_ILi2EEEE7_M_headERS5_
FNDA:0,_ZNSt11_Tuple_implILm0EJP10corethreadSt12_PlaceholderILi1EES2_ILi2EEEE7_M_headERS5_
FN:271,_ZNSt11_Tuple_implILm0EJP15waitable_threadSt14default_deleteIS0_EEE7_M_headERKS4_
FNDA:0,_ZNSt11_Tuple_implILm0EJP15waitable_threadSt14default_deleteIS0_EEE7_M_headERKS4_
FN:279,_ZNSt11_Tuple_implILm0EJP15waitable_threadSt14default_deleteIS0_EEEC2Ev
FNDA:0,_ZNSt11_Tuple_implILm0EJP15waitable_threadSt14default_deleteIS0_EEEC2Ev
FN:283,_ZNSt11_Tuple_implILm1EJSt12_PlaceholderILi1EES0_ILi2EEEEC2ERKS1_RKS2_
FNDA:0,_ZNSt11_Tuple_implILm1EJSt12_PlaceholderILi1EES0_ILi2EEEEC2ERKS1_RKS2_
FN:290,_ZNSt11_Tuple_implILm0EJOiRNSt7__cxx1112basic_stringIcSt11char_traitsIcESaIcEEEEEC2IiJS7_EvEEOT_DpOT0_
FNDA:0,_ZNSt11_Tuple_implILm0EJOiRNSt7__cxx1112basic_stringIcSt11char_traitsIcESaIcEEEEEC2IiJS7_EvEEOT_DpOT0_
FN:290,_ZNSt11_Tuple_implILm0EJP10corethreadSt12_PlaceholderILi1EES2_ILi2EEEEC2IS1_JRKS3_RKS4_EvEEOT_DpOT0_
FNDA:0,_ZNSt11_Tuple_implILm0EJP10corethreadSt12_PlaceholderILi1EES2_ILi2EEEEC2IS1_JRKS3_RKS4_EvEEOT_DpOT0_
FN:301,_ZNSt11_Tuple_implILm1EJSt12_PlaceholderILi1EES0_ILi2EEEEC2EOS3_
FNDA:0,_ZNSt11_Tuple_implILm1EJSt12_PlaceholderILi1EES0_ILi2EEEEC2EOS3_
FN:301,_ZNSt11_Tuple_implILm0EJP10corethreadSt12_PlaceholderILi1EES2_ILi2EEEEC2EOS5_
FNDA:0,_ZNSt11_Tuple_implILm0EJP10corethreadSt12_PlaceholderILi1EES2_ILi2EEEEC2EOS5_
FN:424,_ZNSt11_Tuple_implILm2EJSt12_PlaceholderILi2EEEE7_M_headERS2_
FNDA:0,_ZNSt11_Tuple_implILm2EJSt12_PlaceholderILi2EEEE7_M_headERS2_
FN:424,_ZNSt11_Tuple_implILm1EJRNSt7__cxx1112basic_stringIcSt11char_traitsIcESaIcEEEEE7_M_headERS7_
FNDA:0,_ZNSt11_Tuple_implILm1EJRNSt7__cxx1112basic_stringIcSt11char_traitsIcESaIcEEEEE7_M_headERS7_
FN:424,_ZNSt11_Tuple_implILm1EJSt14default_deleteI15waitable_threadEEE7_M_headERS3_
FNDA:0,_ZNSt11_Tuple_implILm1EJSt14default_deleteI15waitable_threadEEE7_M_headERS3_
FN:430,_ZNSt11_Tuple_implILm1EJSt14default_deleteI15waitable_threadEEEC2Ev
FNDA:0,_ZNSt11_Tuple_implILm1EJSt14default_deleteI15waitable_threadEEEC2Ev
FN:434,_ZNSt11_Tuple_implILm1EJRNSt7__cxx1112basic_stringIcSt11char_traitsIcESaIcEEEEEC2ES6_
FNDA:0,_ZNSt11_Tuple_implILm1EJRNSt7__cxx1112basic_stringIcSt11char_traitsIcESaIcEEEEEC2ES6_
FN:434,_ZNSt11_Tuple_implILm2EJSt12_PlaceholderILi2EEEEC2ERKS1_
FNDA:0,_ZNSt11_Tuple_implILm2EJSt12_PlaceholderILi2EEEEC2ERKS1_
FN:454,_ZNSt11_Tuple_implILm2EJSt12_PlaceholderILi2EEEEC2EOS2_
FNDA:0,_ZNSt11_Tuple_implILm2EJSt12_PlaceholderILi2EEEEC2EOS2_
FN:746,_ZNSt5tupleIJP10corethreadSt12_PlaceholderILi1EES2_ILi2EEEEC2IJS1_RKS3_RKS4_ELb1ELb1EEEDpOT_
FNDA:0,_ZNSt5tupleIJP10corethreadSt12_PlaceholderILi1EES2_ILi2EEEEC2IJS1_RKS3_RKS4_ELb1ELb1EEEDpOT_
FN:760,_ZNSt5tupleIJP10corethreadSt12_PlaceholderILi1EES2_ILi2EEEEC2EOS5_
FNDA:0,_ZNSt5tupleIJP10corethreadSt12_PlaceholderILi1EES2_ILi2EEEEC2EOS5_
FN:1053,_ZNSt5tupleIJP15waitable_threadSt14default_deleteIS0_EEEC2ILb1ELb1EEEv
FNDA:0,_ZNSt5tupleIJP15waitable_threadSt14default_deleteIS0_EEEC2ILb1ELb1EEEv
FN:1081,_ZNSt5tupleIJOiRNSt7__cxx1112basic_stringIcSt11char_traitsIcESaIcEEEEEC2IiS7_Lb1EEEOT_OT0_
FNDA:0,_ZNSt5tupleIJOiRNSt7__cxx1112basic_stringIcSt11char_traitsIcESaIcEEEEEC2IiS7_Lb1EEEOT_OT0_
FN:1381,_ZSt12__get_helperILm0EP15waitable_threadJSt14default_deleteIS0_EEERT0_RSt11_Tuple_implIXT_EJS4_DpT1_EE
FNDA:0,_ZSt12__get_helperILm0EP15waitable_threadJSt14default_deleteIS0_EEERT0_RSt11_Tuple_implIXT_EJS4_DpT1_EE
FN:1381,_ZSt12__get_helperILm0EP10corethreadJSt12_PlaceholderILi1EES2_ILi2EEEERT0_RSt11_Tuple_implIXT_EJS5_DpT1_EE
FNDA:0,_ZSt12__get_helperILm0EP10corethreadJSt12_PlaceholderILi1EES2_ILi2EEEERT0_RSt11_Tuple_implIXT_EJS5_DpT1_EE
FN:1381,_ZSt12__get_helperILm1ESt14default_deleteI15waitable_threadEJEERT0_RSt11_Tuple_implIXT_EJS3_DpT1_EE
FNDA:0,_ZSt12__get_helperILm1ESt14default_deleteI15waitable_threadEJEERT0_RSt11_Tuple_implIXT_EJS3_DpT1_EE
FN:1381,_ZSt12__get_helperILm2ESt12_PlaceholderILi2EEJEERT0_RSt11_Tuple_implIXT_EJS2_DpT1_EE
FNDA:0,_ZSt12__get_helperILm2ESt12_PlaceholderILi2EEJEERT0_RSt11_Tuple_implIXT_EJS2_DpT1_EE
FN:1381,_ZSt12__get_helperILm1ERNSt7__cxx1112basic_stringIcSt11char_traitsIcESaIcEEEJEERT0_RSt11_Tuple_implIXT_EJS7_DpT1_EE
FNDA:0,_ZSt12__get_helperILm1ERNSt7__cxx1112basic_stringIcSt11char_traitsIcESaIcEEEJEERT0_RSt11_Tuple_implIXT_EJS7_DpT1_EE
FN:1381,_ZSt12__get_helperILm0EOiJRNSt7__cxx1112basic_stringIcSt11char_traitsIcESaIcEEEEERT0_RSt11_Tuple_implIXT_EJS8_DpT1_EE
FNDA:0,_ZSt12__get_helperILm0EOiJRNSt7__cxx1112basic_stringIcSt11char_traitsIcESaIcEEEEERT0_RSt11_Tuple_implIXT_EJS8_DpT1_EE
FN:1381,_ZSt12__get_helperILm1ESt12_PlaceholderILi1EEJS0_ILi2EEEERT0_RSt11_Tuple_implIXT_EJS3_DpT1_EE
FNDA:0,_ZSt12__get_helperILm1ESt12_PlaceholderILi1EEJS0_ILi2EEEERT0_RSt11_Tuple_implIXT_EJS3_DpT1_EE
FN:1386,_ZSt12__get_helperILm0EP15waitable_threadJSt14default_deleteIS0_EEERKT0_RKSt11_Tuple_implIXT_EJS4_DpT1_EE
FNDA:0,_ZSt12__get_helperILm0EP15waitable_threadJSt14default_deleteIS0_EEERKT0_RKSt11_Tuple_implIXT_EJS4_DpT1_EE
FN:1397,_ZSt3getILm1EJP15waitable_threadSt14default_deleteIS0_EEERNSt13tuple_elementIXT_ESt5tupleIJDpT0_EEE4typeERS8_
FNDA:0,_ZSt3getILm1EJP15waitable_threadSt14default_deleteIS0_EEERNSt13tuple_elementIXT_ESt5tupleIJDpT0_EEE4typeERS8_
FN:1397,_ZSt3getILm0EJP15waitable_threadSt14default_deleteIS0_EEERNSt13tuple_elementIXT_ESt5tupleIJDpT0_EEE4typeERS8_
FNDA:0,_ZSt3getILm0EJP15waitable_threadSt14default_deleteIS0_EEERNSt13tuple_elementIXT_ESt5tupleIJDpT0_EEE4typeERS8_
FN:1397,_ZSt3getILm0EJP10corethreadSt12_PlaceholderILi1EES2_ILi2EEEERNSt13tuple_elementIXT_ESt5tupleIJDpT0_EEE4typeERS9_
FNDA:0,_ZSt3getILm0EJP10corethreadSt12_PlaceholderILi1EES2_ILi2EEEERNSt13tuple_elementIXT_ESt5tupleIJDpT0_EEE4typeERS9_
FN:1397,_ZSt3getILm1EJP10corethreadSt12_PlaceholderILi1EES2_ILi2EEEERNSt13tuple_elementIXT_ESt5tupleIJDpT0_EEE4typeERS9_
FNDA:0,_ZSt3getILm1EJP10corethreadSt12_PlaceholderILi1EES2_ILi2EEEERNSt13tuple_elementIXT_ESt5tupleIJDpT0_EEE4typeERS9_
FN:1397,_ZSt3getILm2EJP10corethreadSt12_PlaceholderILi1EES2_ILi2EEEERNSt13tuple_elementIXT_ESt5tupleIJDpT0_EEE4typeERS9_
FNDA:0,_ZSt3getILm2EJP10corethreadSt12_PlaceholderILi1EES2_ILi2EEEERNSt13tuple_elementIXT_ESt5tupleIJDpT0_EEE4typeERS9_
FN:1403,_ZSt3getILm0EJP15waitable_threadSt14default_deleteIS0_EEERKNSt13tuple_elementIXT_ESt5tupleIJDpT0_EEE4typeERKS8_
FNDA:0,_ZSt3getILm0EJP15waitable_threadSt14default_deleteIS0_EEERKNSt13tuple_elementIXT_ESt5tupleIJDpT0_EEE4typeERKS8_
FN:1409,_ZSt3getILm1EJOiRNSt7__cxx1112basic_stringIcSt11char_traitsIcESaIcEEEEEONSt13tuple_elementIXT_ESt5tupleIJDpT0_EEE4typeEOSC_
FNDA:0,_ZSt3getILm1EJOiRNSt7__cxx1112basic_stringIcSt11char_traitsIcESaIcEEEEEONSt13tuple_elementIXT_ESt5tupleIJDpT0_EEE4typeEOSC_
FN:1409,_ZSt3getILm0EJOiRNSt7__cxx1112basic_stringIcSt11char_traitsIcESaIcEEEEEONSt13tuple_elementIXT_ESt5tupleIJDpT0_EEE4typeEOSC_
FNDA:0,_ZSt3getILm0EJOiRNSt7__cxx1112basic_stringIcSt11char_traitsIcESaIcEEEEEONSt13tuple_elementIXT_ESt5tupleIJDpT0_EEE4typeEOSC_
FN:1621,_ZSt16forward_as_tupleIJiRNSt7__cxx1112basic_stringIcSt11char_traitsIcESaIcEEEEESt5tupleIJDpOT_EESA_
FNDA:0,_ZSt16forward_as_tupleIJiRNSt7__cxx1112basic_stringIcSt11char_traitsIcESaIcEEEEESt5tupleIJDpOT_EESA_
DA:80,0
DA:81,0
DA:83,0
DA:84,0
DA:83,0
DA:84,0
DA:124,0
DA:124,0
DA:124,0
DA:189,0
DA:190,0
DA:192,0
DA:193,0
DA:199,0
DA:200,0
DA:199,0
DA:200,0
DA:233,0
DA:233,0
DA:233,0
DA:233,0
DA:236,0
DA:268,0
DA:268,0
DA:268,0
DA:268,0
DA:271,0
DA:279,0
DA:280,0
DA:283,0
DA:284,0
DA:285,0
DA:290,0
DA:292,0
DA:293,0
DA:290,0
DA:292,0
DA:293,0
DA:301,0
DA:301,0
DA:424,0
DA:424,0
DA:424,0
DA:430,0
DA:431,0
DA:434,0
DA:435,0
DA:436,0
DA:434,0
DA:435,0
DA:436,0
DA:454,0
DA:457,0
DA:746,0
DA:748,0
DA:760,0
DA:1053,0
DA:1055,0
DA:1081,0
DA:1083,0
DA:1381,0
DA:1382,0
DA:1381,0
DA:1382,0
DA:1381,0
DA:1382,0
DA:1381,0
DA:1382,0
DA:1381,0
DA:1382,0
DA:1381,0
DA:1382,0
DA:1381,0
DA:1382,0
DA:1386,0
DA:1387,0
DA:1397,0
DA:1398,0
DA:1397,0
DA:1398,0
DA:1397,0
DA:1398,0
DA:1397,0
DA:1398,0
DA:1397,0
DA:1398,0
DA:1403,0
DA:1404,0
DA:1409,0
DA:1412,0
DA:1409,0
DA:1412,0
DA:1621,0
DA:1622,0
end_of_record
SF:/usr/include/c++/11/bits/stl_iterator_base_funcs.h
FN:98,_ZSt10__distanceIPcENSt15iterator_traitsIT_E15difference_typeES2_S2_St26random_access_iterator_tag
FNDA:0,_ZSt10__distanceIPcENSt15iterator_traitsIT_E15difference_typeES2_S2_St26random_access_iterator_tag
FN:98,_ZSt10__distanceIPKcENSt15iterator_traitsIT_E15difference_typeES3_S3_St26random_access_iterator_tag
FNDA:0,_ZSt10__distanceIPKcENSt15iterator_traitsIT_E15difference_typeES3_S3_St26random_access_iterator_tag
FN:138,_ZSt8distanceIPcENSt15iterator_traitsIT_E15difference_typeES2_S2_
FNDA:0,_ZSt8distanceIPcENSt15iterator_traitsIT_E15difference_typeES2_S2_
FN:138,_ZSt8distanceIPKcENSt15iterator_traitsIT_E15difference_typeES3_S3_
FNDA:0,_ZSt8distanceIPKcENSt15iterator_traitsIT_E15difference_typeES3_S3_
DA:98,0
DA:104,0
DA:98,0
DA:104,0
DA:138,0
DA:141,0
DA:142,0
DA:138,0
DA:141,0
DA:142,0
end_of_record
SF:/usr/include/c++/11/bits/stl_iterator_base_types.h
FN:238,_ZSt19__iterator_categoryIPKcENSt15iterator_traitsIT_E17iterator_categoryERKS3_
FNDA:0,_ZSt19__iterator_categoryIPKcENSt15iterator_traitsIT_E17iterator_categoryERKS3_
FN:238,_ZSt19__iterator_categoryIPcENSt15iterator_traitsIT_E17iterator_categoryERKS2_
FNDA:0,_ZSt19__iterator_categoryIPcENSt15iterator_traitsIT_E17iterator_categoryERKS2_
DA:238,0
DA:239,0
DA:238,0
DA:239,0
end_of_record
SF:/usr/include/c++/11/bits/stl_construct.h
FN:80,_ZSt10destroy_atI19waitableMessageSinkEvPT_
FNDA:0,_ZSt10destroy_atI19waitableMessageSinkEvPT_
FN:80,_ZSt10destroy_atI4wfmoEvPT_
FNDA:0,_ZSt10destroy_atI4wfmoEvPT_
FN:80,_ZSt10destroy_atISt4pairIKiiEEvPT_
FNDA:0,_ZSt10destroy_atISt4pairIKiiEEvPT_
FN:94,_ZSt12construct_atISt4pairIKiiEJRKS2_EEDTgsnwcvPvLi0E_T_pispcl7declvalIT0_EEEEPS6_DpOS7_
FNDA:0,_ZSt12construct_atISt4pairIKiiEJRKS2_EEDTgsnwcvPvLi0E_T_pispcl7declvalIT0_EEEEPS6_DpOS7_
FN:94,_ZSt12construct_atI4wfmoJRSt3mapIiiSt4lessIiESaISt4pairIKiiEEEEEDTgsnwcvPvLi0E_T_pispcl7declvalIT0_EEEEPSB_DpOSC_
FNDA:0,_ZSt12construct_atI4wfmoJRSt3mapIiiSt4lessIiESaISt4pairIKiiEEEEEDTgsnwcvPvLi0E_T_pispcl7declvalIT0_EEEEPSB_DpOSC_
FN:94,_ZSt12construct_atI19waitableMessageSinkJRNSt7__cxx1112basic_stringIcSt11char_traitsIcESaIcEEERKiRSt10shared_ptrI7ILoggerEEEDTgsnwcvPvLi0E_T_pispcl7declvalIT0_EEEEPSF_DpOSG_
FNDA:0,_ZSt12construct_atI19waitableMessageSinkJRNSt7__cxx1112basic_stringIcSt11char_traitsIcESaIcEEERKiRSt10shared_ptrI7ILoggerEEEDTgsnwcvPvLi0E_T_pispcl7declvalIT0_EEEEPSF_DpOSG_
FN:94,_ZSt12construct_atISt4pairIKiiEJS0_IiiEEEDTgsnwcvPvLi0E_T_pispcl7declvalIT0_EEEEPS5_DpOS6_
FNDA:0,_ZSt12construct_atISt4pairIKiiEJS0_IiiEEEDTgsnwcvPvLi0E_T_pispcl7declvalIT0_EEEEPS5_DpOS6_
DA:80,0
DA:88,0
DA:89,0
DA:80,0
DA:88,0
DA:89,0
DA:80,0
DA:88,0
DA:89,0
DA:94,0
DA:97,0
DA:94,0
DA:97,0
DA:94,0
DA:97,0
DA:94,0
DA:97,0
end_of_record
SF:/usr/include/c++/11/ext/aligned_buffer.h
FN:64,_ZN9__gnu_cxx16__aligned_membufISt4pairIKiiEE7_M_addrEv
FNDA:0,_ZN9__gnu_cxx16__aligned_membufISt4pairIKiiEE7_M_addrEv
FN:68,_ZNK9__gnu_cxx16__aligned_membufISt4pairIKiiEE7_M_addrEv
FNDA:0,_ZNK9__gnu_cxx16__aligned_membufISt4pairIKiiEE7_M_addrEv
FN:72,_ZN9__gnu_cxx16__aligned_membufISt4pairIKiiEE6_M_ptrEv
FNDA:0,_ZN9__gnu_cxx16__aligned_membufISt4pairIKiiEE6_M_ptrEv
FN:76,_ZNK9__gnu_cxx16__aligned_membufISt4pairIKiiEE6_M_ptrEv
FNDA:0,_ZNK9__gnu_cxx16__aligned_membufISt4pairIKiiEE6_M_ptrEv
FN:102,_ZN9__gnu_cxx16__aligned_bufferI4wfmoE7_M_addrEv
FNDA:0,_ZN9__gnu_cxx16__aligned_bufferI4wfmoE7_M_addrEv
FN:102,_ZN9__gnu_cxx16__aligned_bufferI19waitableMessageSinkE7_M_addrEv
FNDA:0,_ZN9__gnu_cxx16__aligned_bufferI19waitableMessageSinkE7_M_addrEv
FN:114,_ZN9__gnu_cxx16__aligned_bufferI4wfmoE6_M_ptrEv
FNDA:0,_ZN9__gnu_cxx16__aligned_bufferI4wfmoE6_M_ptrEv
FN:114,_ZN9__gnu_cxx16__aligned_bufferI19waitableMessageSinkE6_M_ptrEv
FNDA:0,_ZN9__gnu_cxx16__aligned_bufferI19waitableMessageSinkE6_M_ptrEv
DA:64,0
DA:65,0
DA:68,0
DA:69,0
DA:72,0
DA:73,0
DA:76,0
DA:77,0
DA:102,0
DA:104,0
DA:102,0
DA:104,0
DA:114,0
DA:115,0
DA:114,0
DA:115,0
end_of_record
SF:/usr/include/c++/11/ext/alloc_traits.h
FN:97,_ZN9__gnu_cxx14__alloc_traitsISaISt13_Rb_tree_nodeISt4pairIKiiEEES5_E17_S_select_on_copyERKS6_
FNDA:0,_ZN9__gnu_cxx14__alloc_traitsISaISt13_Rb_tree_nodeISt4pairIKiiEEES5_E17_S_select_on_copyERKS6_
FN:97,_ZN9__gnu_cxx14__alloc_traitsISaIcEcE17_S_select_on_copyERKS1_
FNDA:0,_ZN9__gnu_cxx14__alloc_traitsISaIcEcE17_S_select_on_copyERKS1_
DA:97,0
DA:98,0
DA:97,0
DA:98,0
end_of_record
SF:/usr/include/c++/11/bits/stl_algobase.h
FN:313,_ZSt12__niter_baseIPcET_S1_
FNDA:0,_ZSt12__niter_baseIPcET_S1_
FN:313,_ZSt12__niter_baseIPKcET_S2_
FNDA:0,_ZSt12__niter_baseIPKcET_S2_
FN:335,_ZSt12__niter_wrapIPcET_RKS1_S1_
FNDA:0,_ZSt12__niter_wrapIPcET_RKS1_S1_
FN:380,_ZNSt11__copy_moveILb0ELb0ESt26random_access_iterator_tagE8__copy_mIPKcPcEET0_T_S7_S6_
FNDA:0,_ZNSt11__copy_moveILb0ELb0ESt26random_access_iterator_tagE8__copy_mIPKcPcEET0_T_S7_S6_
FN:420,_ZNSt11__copy_moveILb0ELb1ESt26random_access_iterator_tagE8__copy_mIcEEPT_PKS3_S6_S4_
FNDA:0,_ZNSt11__copy_moveILb0ELb1ESt26random_access_iterator_tagE8__copy_mIcEEPT_PKS3_S6_S4_
FN:486,_ZSt14__copy_move_a2ILb0EPKcPcET1_T0_S4_S3_
FNDA:0,_ZSt14__copy_move_a2ILb0EPKcPcET1_T0_S4_S3_
FN:521,_ZSt14__copy_move_a1ILb0EPKcPcET1_T0_S4_S3_
FNDA:0,_ZSt14__copy_move_a1ILb0EPKcPcET1_T0_S4_S3_
FN:527,_ZSt13__copy_move_aILb0EPKcPcET1_T0_S4_S3_
FNDA:0,_ZSt13__copy_move_aILb0EPKcPcET1_T0_S4_S3_
FN:611,_ZSt4copyIPKcPcET0_T_S4_S3_
FNDA:0,_ZSt4copyIPKcPcET0_T_S4_S3_
DA:313,0
DA:315,0
DA:313,0
DA:315,0
DA:335,0
DA:336,0
DA:380,0
DA:383,0
DA:385,0
DA:386,0
DA:387,0
DA:389,0
DA:420,0
DA:429,0
DA:430,0
DA:431,0
DA:432,0
DA:486,0
DA:490,0
DA:492,0
DA:495,0
DA:521,0
DA:522,0
DA:527,0
DA:529,0
DA:532,0
DA:611,0
DA:620,0
end_of_record
SF:/usr/include/c++/11/bits/shared_ptr.h
FN:148,_ZNSt10shared_ptrI20IWaitableMessageSinkEC2Ev
FNDA:0,_ZNSt10shared_ptrI20IWaitableMessageSinkEC2Ev
FN:148,_ZNSt10shared_ptrI7ILoggerEC2Ev
FNDA:0,_ZNSt10shared_ptrI7ILoggerEC2Ev
FN:148,_ZNSt10shared_ptrI9aspthreadEC2Ev
FNDA:0,_ZNSt10shared_ptrI9aspthreadEC2Ev
FN:148,_ZNSt10shared_ptrI14waitable_eventEC2Ev
FNDA:0,_ZNSt10shared_ptrI14waitable_eventEC2Ev
FN:150,_ZNSt10shared_ptrI7ILoggerEC2ERKS1_
FNDA:0,_ZNSt10shared_ptrI7ILoggerEC2ERKS1_
FN:359,_ZNSt10shared_ptrI7ILoggerEaSERKS1_
FNDA:0,_ZNSt10shared_ptrI7ILoggerEaSERKS1_
FN:359,_ZNSt10shared_ptrI9aspthreadEaSERKS1_
FNDA:1,_ZNSt10shared_ptrI9aspthreadEaSERKS1_
FN:359,_ZNSt10shared_ptrI14waitable_eventEaSERKS1_
FNDA:0,_ZNSt10shared_ptrI14waitable_eventEaSERKS1_
FN:391,_ZNSt10shared_ptrI20IWaitableMessageSinkEaSI19waitableMessageSinkEENSt9enable_ifIXsrSt13is_assignableIRSt12__shared_ptrIS0_LN9__gnu_cxx12_Lock_policyE2EES_IT_EE5valueERS1_E4typeEOSC_
FNDA:0,_ZNSt10shared_ptrI20IWaitableMessageSinkEaSI19waitableMessageSinkEENSt9enable_ifIXsrSt13is_assignableIRSt12__shared_ptrIS0_LN9__gnu_cxx12_Lock_policyE2EES_IT_EE5valueERS1_E4typeEOSC_
FN:408,_ZNSt10shared_ptrI4wfmoEC2ISaIS0_EJRSt3mapIiiSt4lessIiESaISt4pairIKiiEEEEEESt20_Sp_alloc_shared_tagIT_EDpOT0_
FNDA:0,_ZNSt10shared_ptrI4wfmoEC2ISaIS0_EJRSt3mapIiiSt4lessIiESaISt4pairIKiiEEEEEESt20_Sp_alloc_shared_tagIT_EDpOT0_
FN:408,_ZNSt10shared_ptrI19waitableMessageSinkEC2ISaIS0_EJRNSt7__cxx1112basic_stringIcSt11char_traitsIcESaIcEEERKiRS_I7ILoggerEEEESt20_Sp_alloc_shared_tagIT_EDpOT0_
FNDA:0,_ZNSt10shared_ptrI19waitableMessageSinkEC2ISaIS0_EJRNSt7__cxx1112basic_stringIcSt11char_traitsIcESaIcEEERKiRS_I7ILoggerEEEESt20_Sp_alloc_shared_tagIT_EDpOT0_
FN:858,_ZSt15allocate_sharedI4wfmoSaIS0_EJRSt3mapIiiSt4lessIiESaISt4pairIKiiEEEEESt10shared_ptrIT_ERKT0_DpOT1_
FNDA:0,_ZSt15allocate_sharedI4wfmoSaIS0_EJRSt3mapIiiSt4lessIiESaISt4pairIKiiEEEEESt10shared_ptrIT_ERKT0_DpOT1_
FN:858,_ZSt15allocate_sharedI19waitableMessageSinkSaIS0_EJRNSt7__cxx1112basic_stringIcSt11char_traitsIcESaIcEEERKiRSt10shared_ptrI7ILoggerEEESB_IT_ERKT0_DpOT1_
FNDA:0,_ZSt15allocate_sharedI19waitableMessageSinkSaIS0_EJRNSt7__cxx1112basic_stringIcSt11char_traitsIcESaIcEEERKiRSt10shared_ptrI7ILoggerEEESB_IT_ERKT0_DpOT1_
FN:875,_ZSt11make_sharedI4wfmoJRSt3mapIiiSt4lessIiESaISt4pairIKiiEEEEESt10shared_ptrIT_EDpOT0_
FNDA:0,_ZSt11make_sharedI4wfmoJRSt3mapIiiSt4lessIiESaISt4pairIKiiEEEEESt10shared_ptrIT_EDpOT0_
FN:875,_ZSt11make_sharedI19waitableMessageSinkJRNSt7__cxx1112basic_stringIcSt11char_traitsIcESaIcEEERKiRSt10shared_ptrI7ILoggerEEESA_IT_EDpOT0_
FNDA:0,_ZSt11make_sharedI19waitableMessageSinkJRNSt7__cxx1112basic_stringIcSt11char_traitsIcESaIcEEERKiRSt10shared_ptrI7ILoggerEEESA_IT_EDpOT0_
DA:148,0
DA:148,0
DA:148,0
DA:148,0
DA:150,0
DA:359,0
DA:359,1
DA:359,0
DA:391,0
DA:393,0
DA:394,0
DA:408,0
DA:409,0
DA:410,0
DA:408,0
DA:409,0
DA:410,0
DA:858,0
DA:863,0
DA:858,0
DA:863,0
DA:875,0
DA:878,0
DA:879,0
DA:875,0
DA:878,0
DA:879,0
end_of_record
SF:/usr/include/c++/11/bits/stl_tree.h
FN:112,_ZNSt18_Rb_tree_node_base10_S_minimumEPS_
FNDA:0,_ZNSt18_Rb_tree_node_base10_S_minimumEPS_
FN:126,_ZNSt18_Rb_tree_node_base10_S_maximumEPS_
FNDA:0,_ZNSt18_Rb_tree_node_base10_S_maximumEPS_
FN:146,_ZNSt20_Rb_tree_key_compareISt4lessIiEEC2Ev
FNDA:0,_ZNSt20_Rb_tree_key_compareISt4lessIiEEC2Ev
FN:152,_ZNSt20_Rb_tree_key_compareISt4lessIiEEC2ERKS1_
FNDA:0,_ZNSt20_Rb_tree_key_compareISt4lessIiEEC2ERKS1_
FN:173,_ZNSt15_Rb_tree_headerC2Ev
FNDA:0,_ZNSt15_Rb_tree_headerC2Ev
FN:206,_ZNSt15_Rb_tree_header8_M_resetEv
FNDA:0,_ZNSt15_Rb_tree_header8_M_resetEv
FN:234,_ZNSt13_Rb_tree_nodeISt4pairIKiiEE9_M_valptrEv
FNDA:0,_ZNSt13_Rb_tree_nodeISt4pairIKiiEE9_M_valptrEv
FN:238,_ZNKSt13_Rb_tree_nodeISt4pairIKiiEE9_M_valptrEv
FNDA:0,_ZNKSt13_Rb_tree_nodeISt4pairIKiiEE9_M_valptrEv
FN:273,_ZNSt17_Rb_tree_iteratorISt4pairIKiiEEC2EPSt18_Rb_tree_node_base
FNDA:0,_ZNSt17_Rb_tree_iteratorISt4pairIKiiEEC2EPSt18_Rb_tree_node_base
FN:300,_ZNSt17_Rb_tree_iteratorISt4pairIKiiEEmmEv
FNDA:0,_ZNSt17_Rb_tree_iteratorISt4pairIKiiEEmmEv
FN:315,_ZSteqRKSt17_Rb_tree_iteratorISt4pairIKiiEES5_
FNDA:0,_ZSteqRKSt17_Rb_tree_iteratorISt4pairIKiiEES5_
FN:523,_ZNSt8_Rb_treeIiSt4pairIKiiESt10_Select1stIS2_ESt4lessIiESaIS2_EE11_Alloc_nodeC2ERS8_
FNDA:0,_ZNSt8_Rb_treeIiSt4pairIKiiESt10_Select1stIS2_ESt4lessIiESaIS2_EE11_Alloc_nodeC2ERS8_
FN:528,_ZNKSt8_Rb_treeIiSt4pairIKiiESt10_Select1stIS2_ESt4lessIiESaIS2_EE11_Alloc_nodeclIRKS2_EEPSt13_Rb_tree_nodeIS2_EOT_
FNDA:0,_ZNKSt8_Rb_treeIiSt4pairIKiiESt10_Select1stIS2_ESt4lessIiESaIS2_EE11_Alloc_nodeclIRKS2_EEPSt13_Rb_tree_nodeIS2_EOT_
FN:547,_ZNSt8_Rb_treeIiSt4pairIKiiESt10_Select1stIS2_ESt4lessIiESaIS2_EE21_M_get_Node_allocatorEv
FNDA:0,_ZNSt8_Rb_treeIiSt4pairIKiiESt10_Select1stIS2_ESt4lessIiESaIS2_EE21_M_get_Node_allocatorEv
FN:560,_ZNSt8_Rb_treeIiSt4pairIKiiESt10_Select1stIS2_ESt4lessIiESaIS2_EE11_M_get_nodeEv
FNDA:0,_ZNSt8_Rb_treeIiSt4pairIKiiESt10_Select1stIS2_ESt4lessIiESaIS2_EE11_M_get_nodeEv
FN:564,_ZNSt8_Rb_treeIiSt4pairIKiiESt10_Select1stIS2_ESt4lessIiESaIS2_EE11_M_put_nodeEPSt13_Rb_tree_nodeIS2_E
FNDA:0,_ZNSt8_Rb_treeIiSt4pairIKiiESt10_Select1stIS2_ESt4lessIiESaIS2_EE11_M_put_nodeEPSt13_Rb_tree_nodeIS2_E
FN:590,_ZNSt8_Rb_treeIiSt4pairIKiiESt10_Select1stIS2_ESt4lessIiESaIS2_EE17_M_construct_nodeIJRKS2_EEEvPSt13_Rb_tree_nodeIS2_EDpOT_
FNDA:0,_ZNSt8_Rb_treeIiSt4pairIKiiESt10_Select1stIS2_ESt4lessIiESaIS2_EE17_M_construct_nodeIJRKS2_EEEvPSt13_Rb_tree_nodeIS2_EDpOT_
FN:590,_ZNSt8_Rb_treeIiSt4pairIKiiESt10_Select1stIS2_ESt4lessIiESaIS2_EE17_M_construct_nodeIJS0_IiiEEEEvPSt13_Rb_tree_nodeIS2_EDpOT_
FNDA:0,_ZNSt8_Rb_treeIiSt4pairIKiiESt10_Select1stIS2_ESt4lessIiESaIS2_EE17_M_construct_nodeIJS0_IiiEEEEvPSt13_Rb_tree_nodeIS2_EDpOT_
FN:609,_ZNSt8_Rb_treeIiSt4pairIKiiESt10_Select1stIS2_ESt4lessIiESaIS2_EE14_M_create_nodeIJRKS2_EEEPSt13_Rb_tree_nodeIS2_EDpOT_
FNDA:0,_ZNSt8_Rb_treeIiSt4pairIKiiESt10_Select1stIS2_ESt4lessIiESaIS2_EE14_M_create_nodeIJRKS2_EEEPSt13_Rb_tree_nodeIS2_EDpOT_
FN:609,_ZNSt8_Rb_treeIiSt4pairIKiiESt10_Select1stIS2_ESt4lessIiESaIS2_EE14_M_create_nodeIJS0_IiiEEEEPSt13_Rb_tree_nodeIS2_EDpOT_
FNDA:0,_ZNSt8_Rb_treeIiSt4pairIKiiESt10_Select1stIS2_ESt4lessIiESaIS2_EE14_M_create_nodeIJS0_IiiEEEEPSt13_Rb_tree_nodeIS2_EDpOT_
FN:618,_ZNSt8_Rb_treeIiSt4pairIKiiESt10_Select1stIS2_ESt4lessIiESaIS2_EE15_M_destroy_nodeEPSt13_Rb_tree_nodeIS2_E
FNDA:0,_ZNSt8_Rb_treeIiSt4pairIKiiESt10_Select1stIS2_ESt4lessIiESaIS2_EE15_M_destroy_nodeEPSt13_Rb_tree_nodeIS2_E
FN:629,_ZNSt8_Rb_treeIiSt4pairIKiiESt10_Select1stIS2_ESt4lessIiESaIS2_EE12_M_drop_nodeEPSt13_Rb_tree_nodeIS2_E
FNDA:0,_ZNSt8_Rb_treeIiSt4pairIKiiESt10_Select1stIS2_ESt4lessIiESaIS2_EE12_M_drop_nodeEPSt13_Rb_tree_nodeIS2_E
FN:637,_ZNSt8_Rb_treeIiSt4pairIKiiESt10_Select1stIS2_ESt4lessIiESaIS2_EE13_M_clone_nodeILb0ENS8_11_Alloc_nodeEEEPSt13_Rb_tree_nodeIS2_ESD_RT0_
FNDA:0,_ZNSt8_Rb_treeIiSt4pairIKiiESt10_Select1stIS2_ESt4lessIiESaIS2_EE13_M_clone_nodeILb0ENS8_11_Alloc_nodeEEEPSt13_Rb_tree_nodeIS2_ESD_RT0_
FN:667,_ZNSt8_Rb_treeIiSt4pairIKiiESt10_Select1stIS2_ESt4lessIiESaIS2_EE13_Rb_tree_implIS6_Lb1EEC2Ev
FNDA:0,_ZNSt8_Rb_treeIiSt4pairIKiiESt10_Select1stIS2_ESt4lessIiESaIS2_EE13_Rb_tree_implIS6_Lb1EEC2Ev
FN:674,_ZNSt8_Rb_treeIiSt4pairIKiiESt10_Select1stIS2_ESt4lessIiESaIS2_EE13_Rb_tree_implIS6_Lb1EEC2ERKSA_
FNDA:0,_ZNSt8_Rb_treeIiSt4pairIKiiESt10_Select1stIS2_ESt4lessIiESaIS2_EE13_Rb_tree_implIS6_Lb1EEC2ERKSA_
FN:710,_ZNSt8_Rb_treeIiSt4pairIKiiESt10_Select1stIS2_ESt4lessIiESaIS2_EE7_M_rootEv
FNDA:0,_ZNSt8_Rb_treeIiSt4pairIKiiESt10_Select1stIS2_ESt4lessIiESaIS2_EE7_M_rootEv
FN:714,_ZNKSt8_Rb_treeIiSt4pairIKiiESt10_Select1stIS2_ESt4lessIiESaIS2_EE7_M_rootEv
FNDA:0,_ZNKSt8_Rb_treeIiSt4pairIKiiESt10_Select1stIS2_ESt4lessIiESaIS2_EE7_M_rootEv
FN:718,_ZNSt8_Rb_treeIiSt4pairIKiiESt10_Select1stIS2_ESt4lessIiESaIS2_EE11_M_leftmostEv
FNDA:0,_ZNSt8_Rb_treeIiSt4pairIKiiESt10_Select1stIS2_ESt4lessIiESaIS2_EE11_M_leftmostEv
FN:726,_ZNSt8_Rb_treeIiSt4pairIKiiESt10_Select1stIS2_ESt4lessIiESaIS2_EE12_M_rightmostEv
FNDA:0,_ZNSt8_Rb_treeIiSt4pairIKiiESt10_Select1stIS2_ESt4lessIiESaIS2_EE12_M_rightmostEv
FN:734,_ZNKSt8_Rb_treeIiSt4pairIKiiESt10_Select1stIS2_ESt4lessIiESaIS2_EE9_M_mbeginEv
FNDA:0,_ZNKSt8_Rb_treeIiSt4pairIKiiESt10_Select1stIS2_ESt4lessIiESaIS2_EE9_M_mbeginEv
FN:738,_ZNSt8_Rb_treeIiSt4pairIKiiESt10_Select1stIS2_ESt4lessIiESaIS2_EE8_M_beginEv
FNDA:0,_ZNSt8_Rb_treeIiSt4pairIKiiESt10_Select1stIS2_ESt4lessIiESaIS2_EE8_M_beginEv
FN:749,_ZNSt8_Rb_treeIiSt4pairIKiiESt10_Select1stIS2_ESt4lessIiESaIS2_EE6_M_endEv
FNDA:0,_ZNSt8_Rb_treeIiSt4pairIKiiESt10_Select1stIS2_ESt4lessIiESaIS2_EE6_M_endEv
FN:757,_ZNSt8_Rb_treeIiSt4pairIKiiESt10_Select1stIS2_ESt4lessIiESaIS2_EE6_S_keyEPKSt13_Rb_tree_nodeIS2_E
FNDA:0,_ZNSt8_Rb_treeIiSt4pairIKiiESt10_Select1stIS2_ESt4lessIiESaIS2_EE6_S_keyEPKSt13_Rb_tree_nodeIS2_E
FN:779,_ZNSt8_Rb_treeIiSt4pairIKiiESt10_Select1stIS2_ESt4lessIiESaIS2_EE7_S_leftEPSt18_Rb_tree_node_base
FNDA:0,_ZNSt8_Rb_treeIiSt4pairIKiiESt10_Select1stIS2_ESt4lessIiESaIS2_EE7_S_leftEPSt18_Rb_tree_node_base
FN:787,_ZNSt8_Rb_treeIiSt4pairIKiiESt10_Select1stIS2_ESt4lessIiESaIS2_EE8_S_rightEPSt18_Rb_tree_node_base
FNDA:0,_ZNSt8_Rb_treeIiSt4pairIKiiESt10_Select1stIS2_ESt4lessIiESaIS2_EE8_S_rightEPSt18_Rb_tree_node_base
FN:795,_ZNSt8_Rb_treeIiSt4pairIKiiESt10_Select1stIS2_ESt4lessIiESaIS2_EE6_S_keyEPKSt18_Rb_tree_node_base
FNDA:0,_ZNSt8_Rb_treeIiSt4pairIKiiESt10_Select1stIS2_ESt4lessIiESaIS2_EE6_S_keyEPKSt18_Rb_tree_node_base
FN:799,_ZNSt8_Rb_treeIiSt4pairIKiiESt10_Select1stIS2_ESt4lessIiESaIS2_EE10_S_minimumEPSt18_Rb_tree_node_base
FNDA:0,_ZNSt8_Rb_treeIiSt4pairIKiiESt10_Select1stIS2_ESt4lessIiESaIS2_EE10_S_minimumEPSt18_Rb_tree_node_base
FN:807,_ZNSt8_Rb_treeIiSt4pairIKiiESt10_Select1stIS2_ESt4lessIiESaIS2_EE10_S_maximumEPSt18_Rb_tree_node_base
FNDA:0,_ZNSt8_Rb_treeIiSt4pairIKiiESt10_Select1stIS2_ESt4lessIiESaIS2_EE10_S_maximumEPSt18_Rb_tree_node_base
FN:887,_ZNSt8_Rb_treeIiSt4pairIKiiESt10_Select1stIS2_ESt4lessIiESaIS2_EE7_M_copyILb0ENS8_11_Alloc_nodeEEEPSt13_Rb_tree_nodeIS2_ERKS8_RT0_
FNDA:0,_ZNSt8_Rb_treeIiSt4pairIKiiESt10_Select1stIS2_ESt4lessIiESaIS2_EE7_M_copyILb0ENS8_11_Alloc_nodeEEEPSt13_Rb_tree_nodeIS2_ERKS8_RT0_
FN:898,_ZNSt8_Rb_treeIiSt4pairIKiiESt10_Select1stIS2_ESt4lessIiESaIS2_EE7_M_copyERKS8_
FNDA:0,_ZNSt8_Rb_treeIiSt4pairIKiiESt10_Select1stIS2_ESt4lessIiESaIS2_EE7_M_copyERKS8_
FN:928,_ZNSt8_Rb_treeIiSt4pairIKiiESt10_Select1stIS2_ESt4lessIiESaIS2_EEC2Ev
FNDA:0,_ZNSt8_Rb_treeIiSt4pairIKiiESt10_Select1stIS2_ESt4lessIiESaIS2_EEC2Ev
FN:935,_ZNSt8_Rb_treeIiSt4pairIKiiESt10_Select1stIS2_ESt4lessIiESaIS2_EEC2ERKS8_
FNDA:0,_ZNSt8_Rb_treeIiSt4pairIKiiESt10_Select1stIS2_ESt4lessIiESaIS2_EEC2ERKS8_
FN:983,_ZNSt8_Rb_treeIiSt4pairIKiiESt10_Select1stIS2_ESt4lessIiESaIS2_EED2Ev
FNDA:0,_ZNSt8_Rb_treeIiSt4pairIKiiESt10_Select1stIS2_ESt4lessIiESaIS2_EED2Ev
FN:995,_ZNSt8_Rb_treeIiSt4pairIKiiESt10_Select1stIS2_ESt4lessIiESaIS2_EE5beginEv
FNDA:0,_ZNSt8_Rb_treeIiSt4pairIKiiESt10_Select1stIS2_ESt4lessIiESaIS2_EE5beginEv
FN:1252,_ZNSt8_Rb_treeIiSt4pairIKiiESt10_Select1stIS2_ESt4lessIiESaIS2_EE5clearEv
FNDA:0,_ZNSt8_Rb_treeIiSt4pairIKiiESt10_Select1stIS2_ESt4lessIiESaIS2_EE5clearEv
FN:1845,_ZNSt8_Rb_treeIiSt4pairIKiiESt10_Select1stIS2_ESt4lessIiESaIS2_EE7_M_copyILb0ENS8_11_Alloc_nodeEEEPSt13_Rb_tree_nodeIS2_ESD_PSt18_Rb_tree_node_baseRT0_
FNDA:0,_ZNSt8_Rb_treeIiSt4pairIKiiESt10_Select1stIS2_ESt4lessIiESaIS2_EE7_M_copyILb0ENS8_11_Alloc_nodeEEEPSt13_Rb_tree_nodeIS2_ESD_PSt18_Rb_tree_node_baseRT0_
FN:1883,_ZNSt8_Rb_treeIiSt4pairIKiiESt10_Select1stIS2_ESt4lessIiESaIS2_EE8_M_eraseEPSt13_Rb_tree_nodeIS2_E
FNDA:0,_ZNSt8_Rb_treeIiSt4pairIKiiESt10_Select1stIS2_ESt4lessIiESaIS2_EE8_M_eraseEPSt13_Rb_tree_nodeIS2_E
FN:2061,_ZNSt8_Rb_treeIiSt4pairIKiiESt10_Select1stIS2_ESt4lessIiESaIS2_EE24_M_get_insert_unique_posERS1_
FNDA:0,_ZNSt8_Rb_treeIiSt4pairIKiiESt10_Select1stIS2_ESt4lessIiESaIS2_EE24_M_get_insert_unique_posERS1_
FN:2330,_ZNSt8_Rb_treeIiSt4pairIKiiESt10_Select1stIS2_ESt4lessIiESaIS2_EE14_M_insert_nodeEPSt18_Rb_tree_node_baseSA_PSt13_Rb_tree_nodeIS2_E
FNDA:0,_ZNSt8_Rb_treeIiSt4pairIKiiESt10_Select1stIS2_ESt4lessIiESaIS2_EE14_M_insert_nodeEPSt18_Rb_tree_node_baseSA_PSt13_Rb_tree_nodeIS2_E
FN:2381,_ZNSt8_Rb_treeIiSt4pairIKiiESt10_Select1stIS2_ESt4lessIiESaIS2_EE17_M_emplace_uniqueIJS0_IiiEEEES0_ISt17_Rb_tree_iteratorIS2_EbEDpOT_
FNDA:0,_ZNSt8_Rb_treeIiSt4pairIKiiESt10_Select1stIS2_ESt4lessIiESaIS2_EE17_M_emplace_uniqueIJS0_IiiEEEES0_ISt17_Rb_tree_iteratorIS2_EbEDpOT_
DA:112,0
DA:114,0
DA:115,0
DA:126,0
DA:128,0
DA:129,0
DA:146,0
DA:150,0
DA:152,0
DA:154,0
DA:173,0
DA:174,0
DA:175,0
DA:176,0
DA:177,0
DA:206,0
DA:208,0
DA:209,0
DA:210,0
DA:211,0
DA:212,0
DA:234,0
DA:235,0
DA:238,0
DA:239,0
DA:273,0
DA:274,0
DA:300,0
DA:302,0
DA:303,0
DA:315,0
DA:316,0
DA:523,0
DA:524,0
DA:528,0
DA:529,0
DA:547,0
DA:548,0
DA:560,0
DA:561,0
DA:564,0
DA:565,0
DA:590,0
DA:594,0
DA:595,0
DA:605,0
DA:590,0
DA:594,0
DA:595,0
DA:599,0
DA:601,0
DA:602,0
DA:603,0
DA:605,0
DA:609,0
DA:611,0
DA:612,0
DA:613,0
DA:609,0
DA:611,0
DA:612,0
DA:613,0
DA:618,0
DA:623,0
DA:624,0
DA:626,0
DA:629,0
DA:631,0
DA:632,0
DA:633,0
DA:637,0
DA:645,0
DA:646,0
DA:647,0
DA:648,0
DA:649,0
DA:667,0
DA:671,0
DA:672,0
DA:674,0
DA:676,0
DA:677,0
DA:678,0
DA:710,0
DA:711,0
DA:714,0
DA:715,0
DA:718,0
DA:719,0
DA:726,0
DA:727,0
DA:734,0
DA:735,0
DA:738,0
DA:739,0
DA:749,0
DA:750,0
DA:757,0
DA:775,0
DA:779,0
DA:780,0
DA:787,0
DA:788,0
DA:795,0
DA:796,0
DA:799,0
DA:800,0
DA:807,0
DA:808,0
DA:887,0
DA:890,0
DA:891,0
DA:892,0
DA:893,0
DA:894,0
DA:898,0
DA:900,0
DA:901,0
DA:928,0
DA:935,0
DA:936,0
DA:938,0
DA:939,0
DA:940,0
DA:983,0
DA:984,0
DA:995,0
DA:996,0
DA:1252,0
DA:1254,0
DA:1255,0
DA:1256,0
DA:1845,0
DA:1849,0
DA:1850,0
DA:1854,0
DA:1855,0
DA:1856,0
DA:1857,0
DA:1858,0
DA:1860,0
DA:1862,0
DA:1863,0
DA:1864,0
DA:1865,0
DA:1866,0
DA:1868,0
DA:1869,0
DA:1872,0
DA:1874,0
DA:1875,0
DA:1877,0
DA:1883,0
DA:1887,0
DA:1889,0
DA:1890,0
DA:1891,0
DA:1892,0
DA:1894,0
DA:2061,0
DA:2065,0
DA:2066,0
DA:2067,0
DA:2068,0
DA:2070,0
DA:2071,0
DA:2072,0
DA:2074,0
DA:2075,0
DA:2077,0
DA:2078,0
DA:2080,0
DA:2082,0
DA:2083,0
DA:2084,0
DA:2330,0
DA:2333,0
DA:2334,0
DA:2337,0
DA:2338,0
DA:2339,0
DA:2340,0
DA:2381,0
DA:2384,0
DA:2389,0
DA:2390,0
DA:2391,0
DA:2393,0
DA:2394,0
DA:2396,0
DA:2398,0
DA:2399,0
end_of_record
SF:/usr/include/c++/11/bits/stl_map.h
FN:185,_ZNSt3mapIiiSt4lessIiESaISt4pairIKiiEEEC2Ev
FNDA:0,_ZNSt3mapIiiSt4lessIiESaISt4pairIKiiEEEC2Ev
FN:207,_ZNSt3mapIiiSt4lessIiESaISt4pairIKiiEEEC2ERKS6_
FNDA:0,_ZNSt3mapIiiSt4lessIiESaISt4pairIKiiEEEC2ERKS6_
FN:302,_ZNSt3mapIiiSt4lessIiESaISt4pairIKiiEEED2Ev
FNDA:0,_ZNSt3mapIiiSt4lessIiESaISt4pairIKiiEEED2Ev
FN:816,_ZNSt3mapIiiSt4lessIiESaISt4pairIKiiEEE6insertIS2_IiiEEENSt9enable_ifIXsrSt16is_constructibleIS4_JT_EE5valueES2_ISt17_Rb_tree_iteratorIS4_EbEE4typeEOSB_
FNDA:0,_ZNSt3mapIiiSt4lessIiESaISt4pairIKiiEEE6insertIS2_IiiEEENSt9enable_ifIXsrSt16is_constructibleIS4_JT_EE5valueES2_ISt17_Rb_tree_iteratorIS4_EbEE4typeEOSB_
FN:1133,_ZNSt3mapIiiSt4lessIiESaISt4pairIKiiEEE5clearEv
FNDA:0,_ZNSt3mapIiiSt4lessIiESaISt4pairIKiiEEE5clearEv
DA:185,0
DA:207,0
DA:302,0
DA:816,0
DA:817,0
DA:1133,0
DA:1134,0
end_of_record
SF:/usr/include/c++/11/ext/type_traits.h
FN:152,_ZN9__gnu_cxx17__is_null_pointerIcEEbPT_
FNDA:0,_ZN9__gnu_cxx17__is_null_pointerIcEEbPT_
FN:152,_ZN9__gnu_cxx17__is_null_pointerIKcEEbPT_
FNDA:0,_ZN9__gnu_cxx17__is_null_pointerIKcEEbPT_
DA:152,0
DA:153,0
DA:152,0
DA:153,0
end_of_record
SF:/usr/include/c++/11/bits/basic_string.tcc
FN:132,_ZNSt7__cxx1112basic_stringIcSt11char_traitsIcESaIcEE9_M_createERmm
FNDA:0,_ZNSt7__cxx1112basic_stringIcSt11char_traitsIcESaIcEE9_M_createERmm
FN:206,_ZNSt7__cxx1112basic_stringIcSt11char_traitsIcESaIcEE12_M_constructIPcEEvT_S7_St20forward_iterator_tag
FNDA:0,_ZNSt7__cxx1112basic_stringIcSt11char_traitsIcESaIcEE12_M_constructIPcEEvT_S7_St20forward_iterator_tag
FN:206,_ZNSt7__cxx1112basic_stringIcSt11char_traitsIcESaIcEE12_M_constructIPKcEEvT_S8_St20forward_iterator_tag
FNDA:0,_ZNSt7__cxx1112basic_stringIcSt11char_traitsIcESaIcEE12_M_constructIPKcEEvT_S8_St20forward_iterator_tag
DA:132,0
DA:137,0
DA:138,0
DA:143,0
DA:145,0
DA:147,0
DA:148,0
DA:153,0
DA:206,0
DA:211,0
DA:212,0
DA:215,0
DA:217,0
DA:219,0
DA:220,0
DA:225,0
DA:232,0
DA:233,0
DA:206,0
DA:211,0
DA:212,0
DA:215,0
DA:217,0
DA:219,0
DA:220,0
DA:225,0
DA:232,0
DA:233,0
end_of_record
SF:/usr/include/c++/11/bits/stl_pair.h
FN:322,_ZNSt4pairIPSt18_Rb_tree_node_baseS1_EC2IRS1_Lb1EEEOT_RKS1_
FNDA:0,_ZNSt4pairIPSt18_Rb_tree_node_baseS1_EC2IRS1_Lb1EEEOT_RKS1_
FN:322,_ZNSt4pairIiiEC2IiLb1EEEOT_RKi
FNDA:0,_ZNSt4pairIiiEC2IiLb1EEEOT_RKi
FN:352,_ZNSt4pairIPSt18_Rb_tree_node_baseS1_EC2IRPSt13_Rb_tree_nodeIS_IKiiEERS1_Lb1EEEOT_OT0_
FNDA:0,_ZNSt4pairIPSt18_Rb_tree_node_baseS1_EC2IRPSt13_Rb_tree_nodeIS_IKiiEERS1_Lb1EEEOT_OT0_
FN:352,_ZNSt4pairISt17_Rb_tree_iteratorIS_IKiiEEbEC2IS3_bLb1EEEOT_OT0_
FNDA:0,_ZNSt4pairISt17_Rb_tree_iteratorIS_IKiiEEbEC2IS3_bLb1EEEOT_OT0_
FN:352,_ZNSt4pairIiiEC2IiiLb1EEEOT_OT0_
FNDA:0,_ZNSt4pairIiiEC2IiiLb1EEEOT_OT0_
FN:371,_ZNSt4pairIKiiEC2IiiLb1EEEOS_IT_T0_E
FNDA:0,_ZNSt4pairIKiiEC2IiiLb1EEEOS_IT_T0_E
DA:322,0
DA:323,0
DA:322,0
DA:323,0
DA:352,0
DA:353,0
DA:352,0
DA:353,0
DA:352,0
DA:353,0
DA:371,0
DA:372,0
DA:373,0
end_of_record
SF:/usr/include/c++/11/bits/alloc_traits.h
FN:463,_ZNSt16allocator_traitsISaIcEE8allocateERS0_m
FNDA:0,_ZNSt16allocator_traitsISaIcEE8allocateERS0_m
FN:463,_ZNSt16allocator_traitsISaISt13_Rb_tree_nodeISt4pairIKiiEEEE8allocateERS5_m
FNDA:0,_ZNSt16allocator_traitsISaISt13_Rb_tree_nodeISt4pairIKiiEEEE8allocateERS5_m
FN:463,_ZNSt16allocator_traitsISaISt23_Sp_counted_ptr_inplaceI19waitableMessageSinkSaIS1_ELN9__gnu_cxx12_Lock_policyE2EEEE8allocateERS6_m
FNDA:0,_ZNSt16allocator_traitsISaISt23_Sp_counted_ptr_inplaceI19waitableMessageSinkSaIS1_ELN9__gnu_cxx12_Lock_policyE2EEEE8allocateERS6_m
FN:463,_ZNSt16allocator_traitsISaISt23_Sp_counted_ptr_inplaceI4wfmoSaIS1_ELN9__gnu_cxx12_Lock_policyE2EEEE8allocateERS6_m
FNDA:0,_ZNSt16allocator_traitsISaISt23_Sp_counted_ptr_inplaceI4wfmoSaIS1_ELN9__gnu_cxx12_Lock_policyE2EEEE8allocateERS6_m
FN:495,_ZNSt16allocator_traitsISaIcEE10deallocateERS0_Pcm
FNDA:0,_ZNSt16allocator_traitsISaIcEE10deallocateERS0_Pcm
FN:495,_ZNSt16allocator_traitsISaISt13_Rb_tree_nodeISt4pairIKiiEEEE10deallocateERS5_PS4_m
FNDA:0,_ZNSt16allocator_traitsISaISt13_Rb_tree_nodeISt4pairIKiiEEEE10deallocateERS5_PS4_m
FN:495,_ZNSt16allocator_traitsISaISt23_Sp_counted_ptr_inplaceI19waitableMessageSinkSaIS1_ELN9__gnu_cxx12_Lock_policyE2EEEE10deallocateERS6_PS5_m
FNDA:0,_ZNSt16allocator_traitsISaISt23_Sp_counted_ptr_inplaceI19waitableMessageSinkSaIS1_ELN9__gnu_cxx12_Lock_policyE2EEEE10deallocateERS6_PS5_m
FN:495,_ZNSt16allocator_traitsISaISt23_Sp_counted_ptr_inplaceI4wfmoSaIS1_ELN9__gnu_cxx12_Lock_policyE2EEEE10deallocateERS6_PS5_m
FNDA:0,_ZNSt16allocator_traitsISaISt23_Sp_counted_ptr_inplaceI4wfmoSaIS1_ELN9__gnu_cxx12_Lock_policyE2EEEE10deallocateERS6_PS5_m
FN:511,_ZNSt16allocator_traitsISaI19waitableMessageSinkEE9constructIS0_JRNSt7__cxx1112basic_stringIcSt11char_traitsIcESaIcEEERKiRSt10shared_ptrI7ILoggerEEEEvRS1_PT_DpOT0_
FNDA:0,_ZNSt16allocator_traitsISaI19waitableMessageSinkEE9constructIS0_JRNSt7__cxx1112basic_stringIcSt11char_traitsIcESaIcEEERKiRSt10shared_ptrI7ILoggerEEEEvRS1_PT_DpOT0_
FN:511,_ZNSt16allocator_traitsISaI4wfmoEE9constructIS0_JRSt3mapIiiSt4lessIiESaISt4pairIKiiEEEEEEvRS1_PT_DpOT0_
FNDA:0,_ZNSt16allocator_traitsISaI4wfmoEE9constructIS0_JRSt3mapIiiSt4lessIiESaISt4pairIKiiEEEEEEvRS1_PT_DpOT0_
FN:511,_ZNSt16allocator_traitsISaISt13_Rb_tree_nodeISt4pairIKiiEEEE9constructIS3_JS1_IiiEEEEvRS5_PT_DpOT0_
FNDA:0,_ZNSt16allocator_traitsISaISt13_Rb_tree_nodeISt4pairIKiiEEEE9constructIS3_JS1_IiiEEEEvRS5_PT_DpOT0_
FN:511,_ZNSt16allocator_traitsISaISt13_Rb_tree_nodeISt4pairIKiiEEEE9constructIS3_JRKS3_EEEvRS5_PT_DpOT0_
FNDA:0,_ZNSt16allocator_traitsISaISt13_Rb_tree_nodeISt4pairIKiiEEEE9constructIS3_JRKS3_EEEvRS5_PT_DpOT0_
FN:531,_ZNSt16allocator_traitsISaISt13_Rb_tree_nodeISt4pairIKiiEEEE7destroyIS3_EEvRS5_PT_
FNDA:0,_ZNSt16allocator_traitsISaISt13_Rb_tree_nodeISt4pairIKiiEEEE7destroyIS3_EEvRS5_PT_
FN:531,_ZNSt16allocator_traitsISaI4wfmoEE7destroyIS0_EEvRS1_PT_
FNDA:0,_ZNSt16allocator_traitsISaI4wfmoEE7destroyIS0_EEvRS1_PT_
FN:531,_ZNSt16allocator_traitsISaI19waitableMessageSinkEE7destroyIS0_EEvRS1_PT_
FNDA:0,_ZNSt16allocator_traitsISaI19waitableMessageSinkEE7destroyIS0_EEvRS1_PT_
FN:547,_ZNSt16allocator_traitsISaIcEE8max_sizeERKS0_
FNDA:0,_ZNSt16allocator_traitsISaIcEE8max_sizeERKS0_
FN:562,_ZNSt16allocator_traitsISaISt13_Rb_tree_nodeISt4pairIKiiEEEE37select_on_container_copy_constructionERKS5_
FNDA:0,_ZNSt16allocator_traitsISaISt13_Rb_tree_nodeISt4pairIKiiEEEE37select_on_container_copy_constructionERKS5_
FN:562,_ZNSt16allocator_traitsISaIcEE37select_on_container_copy_constructionERKS0_
FNDA:0,_ZNSt16allocator_traitsISaIcEE37select_on_container_copy_constructionERKS0_
DA:463,0
DA:464,0
DA:463,0
DA:464,0
DA:463,0
DA:464,0
DA:463,0
DA:464,0
DA:495,0
DA:496,0
DA:495,0
DA:496,0
DA:495,0
DA:496,0
DA:495,0
DA:496,0
DA:511,0
DA:518,0
DA:520,0
DA:511,0
DA:518,0
DA:520,0
DA:511,0
DA:518,0
DA:520,0
DA:511,0
DA:518,0
DA:520,0
DA:531,0
DA:537,0
DA:539,0
DA:531,0
DA:537,0
DA:539,0
DA:531,0
DA:537,0
DA:539,0
DA:547,0
DA:552,0
DA:562,0
DA:563,0
DA:562,0
DA:563,0
end_of_record
SF:/usr/include/c++/11/ext/new_allocator.h
FN:79,_ZN9__gnu_cxx13new_allocatorIcEC2Ev
FNDA:0,_ZN9__gnu_cxx13new_allocatorIcEC2Ev
FN:79,_ZN9__gnu_cxx13new_allocatorI19waitableMessageSinkEC2Ev
FNDA:0,_ZN9__gnu_cxx13new_allocatorI19waitableMessageSinkEC2Ev
FN:79,_ZN9__gnu_cxx13new_allocatorISt13_Rb_tree_nodeISt4pairIKiiEEEC2Ev
FNDA:0,_ZN9__gnu_cxx13new_allocatorISt13_Rb_tree_nodeISt4pairIKiiEEEC2Ev
FN:79,_ZN9__gnu_cxx13new_allocatorI4wfmoEC2Ev
FNDA:0,_ZN9__gnu_cxx13new_allocatorI4wfmoEC2Ev
FN:79,_ZN9__gnu_cxx13new_allocatorISt23_Sp_counted_ptr_inplaceI19waitableMessageSinkSaIS2_ELNS_12_Lock_policyE2EEEC2Ev
FNDA:0,_ZN9__gnu_cxx13new_allocatorISt23_Sp_counted_ptr_inplaceI19waitableMessageSinkSaIS2_ELNS_12_Lock_policyE2EEEC2Ev
FN:79,_ZN9__gnu_cxx13new_allocatorISt23_Sp_counted_ptr_inplaceI4wfmoSaIS2_ELNS_12_Lock_policyE2EEEC2Ev
FNDA:0,_ZN9__gnu_cxx13new_allocatorISt23_Sp_counted_ptr_inplaceI4wfmoSaIS2_ELNS_12_Lock_policyE2EEEC2Ev
FN:82,_ZN9__gnu_cxx13new_allocatorI19waitableMessageSinkEC2ERKS2_
FNDA:0,_ZN9__gnu_cxx13new_allocatorI19waitableMessageSinkEC2ERKS2_
FN:82,_ZN9__gnu_cxx13new_allocatorIcEC2ERKS1_
FNDA:0,_ZN9__gnu_cxx13new_allocatorIcEC2ERKS1_
FN:82,_ZN9__gnu_cxx13new_allocatorISt13_Rb_tree_nodeISt4pairIKiiEEEC2ERKS6_
FNDA:0,_ZN9__gnu_cxx13new_allocatorISt13_Rb_tree_nodeISt4pairIKiiEEEC2ERKS6_
FN:82,_ZN9__gnu_cxx13new_allocatorI4wfmoEC2ERKS2_
FNDA:0,_ZN9__gnu_cxx13new_allocatorI4wfmoEC2ERKS2_
FN:103,_ZN9__gnu_cxx13new_allocatorISt13_Rb_tree_nodeISt4pairIKiiEEE8allocateEmPKv
FNDA:0,_ZN9__gnu_cxx13new_allocatorISt13_Rb_tree_nodeISt4pairIKiiEEE8allocateEmPKv
FN:103,_ZN9__gnu_cxx13new_allocatorIcE8allocateEmPKv
FNDA:0,_ZN9__gnu_cxx13new_allocatorIcE8allocateEmPKv
FN:103,_ZN9__gnu_cxx13new_allocatorISt23_Sp_counted_ptr_inplaceI19waitableMessageSinkSaIS2_ELNS_12_Lock_policyE2EEE8allocateEmPKv
FNDA:0,_ZN9__gnu_cxx13new_allocatorISt23_Sp_counted_ptr_inplaceI19waitableMessageSinkSaIS2_ELNS_12_Lock_policyE2EEE8allocateEmPKv
FN:103,_ZN9__gnu_cxx13new_allocatorISt23_Sp_counted_ptr_inplaceI4wfmoSaIS2_ELNS_12_Lock_policyE2EEE8allocateEmPKv
FNDA:0,_ZN9__gnu_cxx13new_allocatorISt23_Sp_counted_ptr_inplaceI4wfmoSaIS2_ELNS_12_Lock_policyE2EEE8allocateEmPKv
FN:132,_ZN9__gnu_cxx13new_allocatorISt13_Rb_tree_nodeISt4pairIKiiEEE10deallocateEPS5_m
FNDA:0,_ZN9__gnu_cxx13new_allocatorISt13_Rb_tree_nodeISt4pairIKiiEEE10deallocateEPS5_m
FN:132,_ZN9__gnu_cxx13new_allocatorIcE10deallocateEPcm
FNDA:0,_ZN9__gnu_cxx13new_allocatorIcE10deallocateEPcm
FN:132,_ZN9__gnu_cxx13new_allocatorISt23_Sp_counted_ptr_inplaceI19waitableMessageSinkSaIS2_ELNS_12_Lock_policyE2EEE10deallocateEPS5_m
FNDA:0,_ZN9__gnu_cxx13new_allocatorISt23_Sp_counted_ptr_inplaceI19waitableMessageSinkSaIS2_ELNS_12_Lock_policyE2EEE10deallocateEPS5_m
FN:132,_ZN9__gnu_cxx13new_allocatorISt23_Sp_counted_ptr_inplaceI4wfmoSaIS2_ELNS_12_Lock_policyE2EEE10deallocateEPS5_m
FNDA:0,_ZN9__gnu_cxx13new_allocatorISt23_Sp_counted_ptr_inplaceI4wfmoSaIS2_ELNS_12_Lock_policyE2EEE10deallocateEPS5_m
FN:197,_ZNK9__gnu_cxx13new_allocatorISt13_Rb_tree_nodeISt4pairIKiiEEE11_M_max_sizeEv
FNDA:0,_ZNK9__gnu_cxx13new_allocatorISt13_Rb_tree_nodeISt4pairIKiiEEE11_M_max_sizeEv
FN:197,_ZNK9__gnu_cxx13new_allocatorISt23_Sp_counted_ptr_inplaceI19waitableMessageSinkSaIS2_ELNS_12_Lock_policyE2EEE11_M_max_sizeEv
FNDA:0,_ZNK9__gnu_cxx13new_allocatorISt23_Sp_counted_ptr_inplaceI19waitableMessageSinkSaIS2_ELNS_12_Lock_policyE2EEE11_M_max_sizeEv
FN:197,_ZNK9__gnu_cxx13new_allocatorIcE11_M_max_sizeEv
FNDA:0,_ZNK9__gnu_cxx13new_allocatorIcE11_M_max_sizeEv
FN:197,_ZNK9__gnu_cxx13new_allocatorISt23_Sp_counted_ptr_inplaceI4wfmoSaIS2_ELNS_12_Lock_policyE2EEE11_M_max_sizeEv
FNDA:0,_ZNK9__gnu_cxx13new_allocatorISt23_Sp_counted_ptr_inplaceI4wfmoSaIS2_ELNS_12_Lock_policyE2EEE11_M_max_sizeEv
DA:79,0
DA:79,0
DA:79,0
DA:79,0
DA:79,0
DA:79,0
DA:82,0
DA:82,0
DA:82,0
DA:82,0
DA:103,0
DA:111,0
DA:115,0
DA:116,0
DA:117,0
DA:127,0
DA:103,0
DA:111,0
DA:115,0
DA:116,0
DA:117,0
DA:127,0
DA:103,0
DA:111,0
DA:115,0
DA:116,0
DA:117,0
DA:127,0
DA:103,0
DA:111,0
DA:117,0
DA:127,0
DA:132,0
DA:145,0
DA:132,0
DA:145,0
DA:132,0
DA:145,0
DA:132,0
DA:145,0
DA:197,0
DA:200,0
DA:197,0
DA:200,0
DA:197,0
DA:200,0
DA:197,0
DA:200,0
end_of_record
SF:/usr/include/c++/11/ext/atomicity.h
DA:52,0
DA:66,0
DA:71,0
DA:84,0
DA:85,0
DA:86,0
DA:92,0
DA:98,0
DA:99,0
DA:101,0
DA:108,0
DA:112,0
end_of_record
SF:/usr/include/c++/11/bits/std_function.h
FN:85,_ZNSt9_Any_data9_M_accessEv
FNDA:0,_ZNSt9_Any_data9_M_accessEv
FN:86,_ZNKSt9_Any_data9_M_accessEv
FNDA:0,_ZNKSt9_Any_data9_M_accessEv
FN:90,_ZNSt9_Any_data9_M_accessIPSt5_BindIFM10corethreadFviRNSt7__cxx1112basic_stringIcSt11char_traitsIcESaIcEEEEPS2_St12_PlaceholderILi1EESD_ILi2EEEEEERT_v
FNDA:0,_ZNSt9_Any_data9_M_accessIPSt5_BindIFM10corethreadFviRNSt7__cxx1112basic_stringIcSt11char_traitsIcESaIcEEEEPS2_St12_PlaceholderILi1EESD_ILi2EEEEEERT_v
FN:90,_ZNSt9_Any_data9_M_accessIPKSt9type_infoEERT_v
FNDA:0,_ZNSt9_Any_data9_M_accessIPKSt9type_infoEERT_v
FN:95,_ZNKSt9_Any_data9_M_accessIPSt5_BindIFM10corethreadFviRNSt7__cxx1112basic_stringIcSt11char_traitsIcESaIcEEEEPS2_St12_PlaceholderILi1EESD_ILi2EEEEEERKT_v
FNDA:0,_ZNKSt9_Any_data9_M_accessIPSt5_BindIFM10corethreadFviRNSt7__cxx1112basic_stringIcSt11char_traitsIcESaIcEEEEPS2_St12_PlaceholderILi1EESD_ILi2EEEEEERKT_v
FN:134,_ZNSt14_Function_base13_Base_managerISt5_BindIFM10corethreadFviRNSt7__cxx1112basic_stringIcSt11char_traitsIcESaIcEEEEPS2_St12_PlaceholderILi1EESD_ILi2EEEEE14_M_get_pointerERKSt9_Any_data
FNDA:0,_ZNSt14_Function_base13_Base_managerISt5_BindIFM10corethreadFviRNSt7__cxx1112basic_stringIcSt11char_traitsIcESaIcEEEEPS2_St12_PlaceholderILi1EESD_ILi2EEEEE14_M_get_pointerERKSt9_Any_data
FN:158,_ZNSt14_Function_base13_Base_managerISt5_BindIFM10corethreadFviRNSt7__cxx1112basic_stringIcSt11char_traitsIcESaIcEEEEPS2_St12_PlaceholderILi1EESD_ILi2EEEEE9_M_createIRKSH_EEvRSt9_Any_dataOT_St17integral_constantIbLb0EE
FNDA:0,_ZNSt14_Function_base13_Base_managerISt5_BindIFM10corethreadFviRNSt7__cxx1112basic_stringIcSt11char_traitsIcESaIcEEEEPS2_St12_PlaceholderILi1EESD_ILi2EEEEE9_M_createIRKSH_EEvRSt9_Any_dataOT_St17integral_constantIbLb0EE
FN:158,_ZNSt14_Function_base13_Base_managerISt5_BindIFM10corethreadFviRNSt7__cxx1112basic_stringIcSt11char_traitsIcESaIcEEEEPS2_St12_PlaceholderILi1EESD_ILi2EEEEE9_M_createISH_EEvRSt9_Any_dataOT_St17integral_constantIbLb0EE
FNDA:0,_ZNSt14_Function_base13_Base_managerISt5_BindIFM10corethreadFviRNSt7__cxx1112basic_stringIcSt11char_traitsIcESaIcEEEEPS2_St12_PlaceholderILi1EESD_ILi2EEEEE9_M_createISH_EEvRSt9_Any_dataOT_St17integral_constantIbLb0EE
FN:173,_ZNSt14_Function_base13_Base_managerISt5_BindIFM10corethreadFviRNSt7__cxx1112basic_stringIcSt11char_traitsIcESaIcEEEEPS2_St12_PlaceholderILi1EESD_ILi2EEEEE10_M_destroyERSt9_Any_dataSt17integral_constantIbLb0EE
FNDA:0,_ZNSt14_Function_base13_Base_managerISt5_BindIFM10corethreadFviRNSt7__cxx1112basic_stringIcSt11char_traitsIcESaIcEEEEPS2_St12_PlaceholderILi1EESD_ILi2EEEEE10_M_destroyERSt9_Any_dataSt17integral_constantIbLb0EE
FN:180,_ZNSt14_Function_base13_Base_managerISt5_BindIFM10corethreadFviRNSt7__cxx1112basic_stringIcSt11char_traitsIcESaIcEEEEPS2_St12_PlaceholderILi1EESD_ILi2EEEEE10_M_managerERSt9_Any_dataRKSJ_St18_Manager_operation
FNDA:0,_ZNSt14_Function_base13_Base_managerISt5_BindIFM10corethreadFviRNSt7__cxx1112basic_stringIcSt11char_traitsIcESaIcEEEEPS2_St12_PlaceholderILi1EESD_ILi2EEEEE10_M_managerERSt9_Any_dataRKSJ_St18_Manager_operation
FN:211,_ZNSt14_Function_base13_Base_managerISt5_BindIFM10corethreadFviRNSt7__cxx1112basic_stringIcSt11char_traitsIcESaIcEEEEPS2_St12_PlaceholderILi1EESD_ILi2EEEEE15_M_init_functorISH_EEvRSt9_Any_dataOT_
FNDA:0,_ZNSt14_Function_base13_Base_managerISt5_BindIFM10corethreadFviRNSt7__cxx1112basic_stringIcSt11char_traitsIcESaIcEEEEPS2_St12_PlaceholderILi1EESD_ILi2EEEEE15_M_init_functorISH_EEvRSt9_Any_dataOT_
FN:211,_ZNSt14_Function_base13_Base_managerISt5_BindIFM10corethreadFviRNSt7__cxx1112basic_stringIcSt11char_traitsIcESaIcEEEEPS2_St12_PlaceholderILi1EESD_ILi2EEEEE15_M_init_functorIRKSH_EEvRSt9_Any_dataOT_
FNDA:0,_ZNSt14_Function_base13_Base_managerISt5_BindIFM10corethreadFviRNSt7__cxx1112basic_stringIcSt11char_traitsIcESaIcEEEEPS2_St12_PlaceholderILi1EESD_ILi2EEEEE15_M_init_functorIRKSH_EEvRSt9_Any_dataOT_
FN:235,_ZNSt14_Function_base13_Base_managerISt5_BindIFM10corethreadFviRNSt7__cxx1112basic_stringIcSt11char_traitsIcESaIcEEEEPS2_St12_PlaceholderILi1EESD_ILi2EEEEE21_M_not_empty_functionISH_EEbRKT_
FNDA:0,_ZNSt14_Function_base13_Base_managerISt5_BindIFM10corethreadFviRNSt7__cxx1112basic_stringIcSt11char_traitsIcESaIcEEEEPS2_St12_PlaceholderILi1EESD_ILi2EEEEE21_M_not_empty_functionISH_EEbRKT_
FN:239,_ZNSt14_Function_baseC2Ev
FNDA:0,_ZNSt14_Function_baseC2Ev
FN:241,_ZNSt14_Function_baseD2Ev
FNDA:0,_ZNSt14_Function_baseD2Ev
FN:247,_ZNKSt14_Function_base8_M_emptyEv
FNDA:0,_ZNKSt14_Function_base8_M_emptyEv
FN:267,_ZNSt17_Function_handlerIFviRNSt7__cxx1112basic_stringIcSt11char_traitsIcESaIcEEEESt5_BindIFM10corethreadFviS6_EPS9_St12_PlaceholderILi1EESD_ILi2EEEEE10_M_managerERSt9_Any_dataRKSJ_St18_Manager_operation
FNDA:0,_ZNSt17_Function_handlerIFviRNSt7__cxx1112basic_stringIcSt11char_traitsIcESaIcEEEESt5_BindIFM10corethreadFviS6_EPS9_St12_PlaceholderILi1EESD_ILi2EEEEE10_M_managerERSt9_Any_dataRKSJ_St18_Manager_operation
FN:288,_ZNSt17_Function_handlerIFviRNSt7__cxx1112basic_stringIcSt11char_traitsIcESaIcEEEESt5_BindIFM10corethreadFviS6_EPS9_St12_PlaceholderILi1EESD_ILi2EEEEE9_M_invokeERKSt9_Any_dataOiS6_
FNDA:0,_ZNSt17_Function_handlerIFviRNSt7__cxx1112basic_stringIcSt11char_traitsIcESaIcEEEESt5_BindIFM10corethreadFviS6_EPS9_St12_PlaceholderILi1EESD_ILi2EEEEE9_M_invokeERKSt9_Any_dataOiS6_
FN:386,_ZNSt8functionIFviRNSt7__cxx1112basic_stringIcSt11char_traitsIcESaIcEEEEEC2ERKS8_
FNDA:0,_ZNSt8functionIFviRNSt7__cxx1112basic_stringIcSt11char_traitsIcESaIcEEEEEC2ERKS8_
FN:435,_ZNSt8functionIFviRNSt7__cxx1112basic_stringIcSt11char_traitsIcESaIcEEEEEC2ISt5_BindIFM10corethreadFviS6_EPSB_St12_PlaceholderILi1EESF_ILi2EEEEvEEOT_
FNDA:0,_ZNSt8functionIFviRNSt7__cxx1112basic_stringIcSt11char_traitsIcESaIcEEEEEC2ISt5_BindIFM10corethreadFviS6_EPSB_St12_PlaceholderILi1EESF_ILi2EEEEvEEOT_
FN:572,_ZNKSt8functionIFviRNSt7__cxx1112basic_stringIcSt11char_traitsIcESaIcEEEEEcvbEv
FNDA:0,_ZNKSt8functionIFviRNSt7__cxx1112basic_stringIcSt11char_traitsIcESaIcEEEEEcvbEv
DA:85,0
DA:86,0
DA:90,0
DA:91,0
DA:90,0
DA:91,0
DA:95,0
DA:96,0
DA:134,0
DA:142,0
DA:158,0
DA:160,0
DA:161,0
DA:162,0
DA:158,0
DA:160,0
DA:161,0
DA:162,0
DA:173,0
DA:175,0
DA:176,0
DA:180,0
DA:183,0
DA:185,0
DA:187,0
DA:191,0
DA:193,0
DA:194,0
DA:195,0
DA:197,0
DA:198,0
DA:199,0
DA:200,0
DA:202,0
DA:203,0
DA:204,0
DA:206,0
DA:211,0
DA:215,0
DA:216,0
DA:211,0
DA:215,0
DA:216,0
DA:235,0
DA:236,0
DA:239,0
DA:241,0
DA:243,0
DA:244,0
DA:245,0
DA:247,0
DA:267,0
DA:270,0
DA:273,0
DA:274,0
DA:275,0
DA:277,0
DA:278,0
DA:279,0
DA:281,0
DA:282,0
DA:284,0
DA:288,0
DA:290,0
DA:291,0
DA:386,0
DA:387,0
DA:389,0
DA:391,0
DA:392,0
DA:393,0
DA:395,0
DA:435,0
DA:437,0
DA:447,0
DA:449,0
DA:451,0
DA:452,0
DA:454,0
DA:572,0
DA:573,0
end_of_record
SF:/home/yackey/projects/waitables/vpgnixApp/include/IRunnable.h
FN:8,_ZN9IRunnableD0Ev
FNDA:0,_ZN9IRunnableD0Ev
FN:8,_ZN9IRunnableD2Ev
FNDA:0,_ZN9IRunnableD2Ev
DA:8,0
DA:8,0
end_of_record
SF:/usr/include/c++/11/bits/allocated_ptr.h
FN:53,_ZNSt15__allocated_ptrISaISt23_Sp_counted_ptr_inplaceI4wfmoSaIS1_ELN9__gnu_cxx12_Lock_policyE2EEEEC2ERS6_PS5_
FNDA:0,_ZNSt15__allocated_ptrISaISt23_Sp_counted_ptr_inplaceI4wfmoSaIS1_ELN9__gnu_cxx12_Lock_policyE2EEEEC2ERS6_PS5_
FN:53,_ZNSt15__allocated_ptrISaISt23_Sp_counted_ptr_inplaceI19waitableMessageSinkSaIS1_ELN9__gnu_cxx12_Lock_policyE2EEEEC2ERS6_PS5_
FNDA:0,_ZNSt15__allocated_ptrISaISt23_Sp_counted_ptr_inplaceI19waitableMessageSinkSaIS1_ELN9__gnu_cxx12_Lock_policyE2EEEEC2ERS6_PS5_
FN:71,_ZNSt15__allocated_ptrISaISt23_Sp_counted_ptr_inplaceI4wfmoSaIS1_ELN9__gnu_cxx12_Lock_policyE2EEEED2Ev
FNDA:0,_ZNSt15__allocated_ptrISaISt23_Sp_counted_ptr_inplaceI4wfmoSaIS1_ELN9__gnu_cxx12_Lock_policyE2EEEED2Ev
FN:71,_ZNSt15__allocated_ptrISaISt23_Sp_counted_ptr_inplaceI19waitableMessageSinkSaIS1_ELN9__gnu_cxx12_Lock_policyE2EEEED2Ev
FNDA:0,_ZNSt15__allocated_ptrISaISt23_Sp_counted_ptr_inplaceI19waitableMessageSinkSaIS1_ELN9__gnu_cxx12_Lock_policyE2EEEED2Ev
FN:79,_ZNSt15__allocated_ptrISaISt23_Sp_counted_ptr_inplaceI4wfmoSaIS1_ELN9__gnu_cxx12_Lock_policyE2EEEEaSEDn
FNDA:0,_ZNSt15__allocated_ptrISaISt23_Sp_counted_ptr_inplaceI4wfmoSaIS1_ELN9__gnu_cxx12_Lock_policyE2EEEEaSEDn
FN:79,_ZNSt15__allocated_ptrISaISt23_Sp_counted_ptr_inplaceI19waitableMessageSinkSaIS1_ELN9__gnu_cxx12_Lock_policyE2EEEEaSEDn
FNDA:0,_ZNSt15__allocated_ptrISaISt23_Sp_counted_ptr_inplaceI19waitableMessageSinkSaIS1_ELN9__gnu_cxx12_Lock_policyE2EEEEaSEDn
FN:86,_ZNSt15__allocated_ptrISaISt23_Sp_counted_ptr_inplaceI4wfmoSaIS1_ELN9__gnu_cxx12_Lock_policyE2EEEE3getEv
FNDA:0,_ZNSt15__allocated_ptrISaISt23_Sp_counted_ptr_inplaceI4wfmoSaIS1_ELN9__gnu_cxx12_Lock_policyE2EEEE3getEv
FN:86,_ZNSt15__allocated_ptrISaISt23_Sp_counted_ptr_inplaceI19waitableMessageSinkSaIS1_ELN9__gnu_cxx12_Lock_policyE2EEEE3getEv
FNDA:0,_ZNSt15__allocated_ptrISaISt23_Sp_counted_ptr_inplaceI19waitableMessageSinkSaIS1_ELN9__gnu_cxx12_Lock_policyE2EEEE3getEv
FN:96,_ZSt18__allocate_guardedISaISt23_Sp_counted_ptr_inplaceI4wfmoSaIS1_ELN9__gnu_cxx12_Lock_policyE2EEEESt15__allocated_ptrIT_ERS8_
FNDA:0,_ZSt18__allocate_guardedISaISt23_Sp_counted_ptr_inplaceI4wfmoSaIS1_ELN9__gnu_cxx12_Lock_policyE2EEEESt15__allocated_ptrIT_ERS8_
FN:96,_ZSt18__allocate_guardedISaISt23_Sp_counted_ptr_inplaceI19waitableMessageSinkSaIS1_ELN9__gnu_cxx12_Lock_policyE2EEEESt15__allocated_ptrIT_ERS8_
FNDA:0,_ZSt18__allocate_guardedISaISt23_Sp_counted_ptr_inplaceI19waitableMessageSinkSaIS1_ELN9__gnu_cxx12_Lock_policyE2EEEESt15__allocated_ptrIT_ERS8_
DA:53,0
DA:54,0
DA:55,0
DA:53,0
DA:54,0
DA:55,0
DA:71,0
DA:73,0
DA:74,0
DA:75,0
DA:71,0
DA:73,0
DA:74,0
DA:75,0
DA:79,0
DA:81,0
DA:82,0
DA:79,0
DA:81,0
DA:82,0
DA:86,0
DA:86,0
DA:96,0
DA:98,0
DA:96,0
DA:98,0
end_of_record
SF:/usr/include/c++/11/new
FN:174,_ZnwmPv
FNDA:0,_ZnwmPv
FN:180,_ZdlPvS_
FNDA:0,_ZdlPvS_
DA:174,0
DA:175,0
DA:180,0
end_of_record
